 game_shader_generic_deferred

 Timestamp is 5956383e (Fri Jun 30 12:38:38 2017)

 Preferred load address is 10000000

 Start         Length     Name                   Class
 0001:00000000 00001935H .text                   CODE
 0001:00001940 00000c75H .text$di                CODE
 0001:000025c0 0001b7aaH .text$mn                CODE
 0001:0001dd70 000001b3H .text$yc                CODE
 0001:0001df30 0000091aH .text$yd                CODE
 0002:00000000 00000120H .idata$5                DATA
 0002:00000120 00000004H .CRT$XCA                DATA
 0002:00000124 000001b4H .CRT$XCU                DATA
 0002:000002d8 00000004H .CRT$XCZ                DATA
 0002:000002dc 00000004H .CRT$XIA                DATA
 0002:000002e0 00000014H .CRT$XIC                DATA
 0002:000002f4 00000004H .CRT$XIZ                DATA
 0002:000002f8 00000004H .CRT$XPA                DATA
 0002:000002fc 00000008H .CRT$XPX                DATA
 0002:00000304 00000004H .CRT$XPXA               DATA
 0002:00000308 00000004H .CRT$XPZ                DATA
 0002:0000030c 00000004H .CRT$XTA                DATA
 0002:00000310 00000004H .CRT$XTZ                DATA
 0002:00000320 0001b068H .rdata                  DATA
 0002:0001b388 00000094H .rdata$debug            DATA
 0002:0001b41c 00000d44H .rdata$r                DATA
 0002:0001c160 0000000cH .rdata$sxdata           DATA
 0002:0001c16c 00000004H .rtc$IAA                DATA
 0002:0001c170 00000004H .rtc$IZZ                DATA
 0002:0001c174 00000004H .rtc$TAA                DATA
 0002:0001c178 00000004H .rtc$TZZ                DATA
 0002:0001c180 000003c4H .xdata$x                DATA
 0002:0001c550 00000063H .edata                  DATA
 0002:0001c5b4 00000028H .idata$2                DATA
 0002:0001c5dc 00000014H .idata$3                DATA
 0002:0001c5f0 00000120H .idata$4                DATA
 0002:0001c710 00000514H .idata$6                DATA
 0003:00000000 00002940H .data                   DATA
 0003:00002940 000004f8H .data$r                 DATA
 0003:00002e40 000137a4H .bss                    DATA

  Address         Publics by Value              Rva+Base       Lib:Object

 0000:00000000       ___guard_fids_table        00000000     <absolute>
 0000:00000000       __except_list              00000000     <absolute>
 0000:00000000       ___guard_fids_count        00000000     <absolute>
 0000:00000000       ___guard_flags             00000000     <absolute>
 0000:00000003       ___safe_se_handler_count   00000003     <absolute>
 0000:00000000       ___ImageBase               10000000     <linker-defined>
 0001:00000000       ?ConVar_Register@@YAXHPAVIConCommandBaseAccessor@@@Z 10001000 f   tier1:convar.obj
 0001:000000b0       ?ConVar_Unregister@@YAXXZ  100010b0 f   tier1:convar.obj
 0001:00000100       ?IsCommand@ConCommandBase@@UBE_NXZ 10001100 f   tier1:convar.obj
 0001:00000110       ?GetDLLIdentifier@ConCommandBase@@UBEHXZ 10001110 f   tier1:convar.obj
 0001:00000120       ?Create@ConCommandBase@@MAEXPBD0H@Z 10001120 f   tier1:convar.obj
 0001:00000170       ?Init@ConCommandBase@@MAEXXZ 10001170 f   tier1:convar.obj
 0001:00000170       ?Init@ConVar@@EAEXXZ       10001170 f   tier1:convar.obj
 0001:00000190       ?GetName@ConCommandBase@@UBEPBDXZ 10001190 f   tier1:convar.obj
 0001:000001a0       ?IsFlagSet@ConCommandBase@@UBE_NH@Z 100011a0 f   tier1:convar.obj
 0001:000001b0       ?AddFlags@ConCommandBase@@UAEXH@Z 100011b0 f   tier1:convar.obj
 0001:000001c0       ?RemoveFlags@ConCommandBase@@UAEXH@Z 100011c0 f   tier1:convar.obj
 0001:000001d0       ?GetFlags@ConCommandBase@@UBEHXZ 100011d0 f   tier1:convar.obj
 0001:000001d0       ?ShaderCount@CShaderDLL@@UBEHXZ 100011d0 f   shaderlib:ShaderDLL.obj
 0001:000001e0       ?GetHelpText@ConCommandBase@@UBEPBDXZ 100011e0 f   tier1:convar.obj
 0001:000001f0       ?IsRegistered@ConCommandBase@@UBE_NXZ 100011f0 f   tier1:convar.obj
 0001:00000200       ?IsFlagSet@ConVar@@UBE_NH@Z 10001200 f   tier1:convar.obj
 0001:00000210       ?GetFlags@ConVar@@UBEHXZ   10001210 f   tier1:convar.obj
 0001:00000220       ?GetHelpText@ConVar@@UBEPBDXZ 10001220 f   tier1:convar.obj
 0001:00000230       ?AddFlags@ConVar@@UAEXH@Z  10001230 f   tier1:convar.obj
 0001:00000240       ?IsRegistered@ConVar@@UBE_NXZ 10001240 f   tier1:convar.obj
 0001:00000250       ?GetName@ConVar@@UBEPBDXZ  10001250 f   tier1:convar.obj
 0001:00000260       ?GetBaseName@ConVar@@UBEPBDXZ 10001260 f   tier1:convar.obj
 0001:00000270       ?GetSplitScreenPlayerSlot@ConVar@@UBEHXZ 10001270 f   tier1:convar.obj
 0001:00000270       __matherr                  10001270 f   LIBCMT:matherr.obj
 0001:00000280       ?IsCommand@ConVar@@UBE_NXZ 10001280 f   tier1:convar.obj
 0001:00000290       ?InternalSetColorFromString@ConVar@@AAE_NPBD@Z 10001290 f   tier1:convar.obj
 0001:00000340       ?InternalSetValue@ConVar@@EAEXPBD@Z 10001340 f   tier1:convar.obj
 0001:00000470       ?ClampValue@ConVar@@EAE_NAAM@Z 10001470 f   tier1:convar.obj
 0001:000004b0       ?InternalSetFloatValue@ConVar@@EAEXM@Z 100014b0 f   tier1:convar.obj
 0001:00000590       ?InternalSetIntValue@ConVar@@EAEXH@Z 10001590 f   tier1:convar.obj
 0001:00000660       ?InternalSetColorValue@ConVar@@EAEXVColor@@@Z 10001660 f   tier1:convar.obj
 0001:00000690       ?SetValue@ConVar@@UAEXPBD@Z 10001690 f   tier1:convar.obj
 0001:000006a0       ?SetValue@ConVar@@UAEXM@Z  100016a0 f   tier1:convar.obj
 0001:000006c0       ?SetValue@ConVar@@UAEXH@Z  100016c0 f   tier1:convar.obj
 0001:000006d0       ?SetValue@ConVar@@UAEXVColor@@@Z 100016d0 f   tier1:convar.obj
 0001:000006e0       ?RegisterConCommandBase@CDefaultAccessor@@UAE_NPAVConCommandBase@@@Z 100016e0 f i tier1:convar.obj
 0001:00000700       ??_GConCommandBase@@UAEPAXI@Z 10001700 f i tier1:convar.obj
 0001:00000700       ??_EConCommandBase@@UAEPAXI@Z 10001700 f i tier1:convar.obj
 0001:00000720       ?Init@ConVarRef@@QAEXPBD_N@Z 10001720 f   tier1:convar.obj
 0001:000007a0       ?Grow@?$CUtlMemory@P6AXPAVIConVar@@PBDM@ZH@@QAEXH@Z 100017a0 f i tier1:convar.obj
 0001:00000830       ?ChangeStringValue@ConVar@@EAEXPBDM@Z 10001830 f   tier1:convar.obj
 0001:000008f0       ??0ConVarRef@@QAE@PBD@Z    100018f0 f   tier1:convar.obj
 0001:00000910       ??1?$CUtlVector@P6AXPAVIConVar@@PBDM@ZV?$CUtlMemory@P6AXPAVIConVar@@PBDM@ZH@@@@QAE@XZ 10001910 f i tier1:convar.obj
 0001:00000980       ?InsertBefore@?$CUtlVector@P6AXPAVIConVar@@PBDM@ZV?$CUtlMemory@P6AXPAVIConVar@@PBDM@ZH@@@@QAEHHABQ6AXPAVIConVar@@PBDM@Z@Z 10001980 f i tier1:convar.obj
 0001:000009f0       ??1ConVar@@UAE@XZ          100019f0 f   tier1:convar.obj
 0001:00000a30       ?GetName@ConVar@@WBI@BEPBDXZ 10001a30 f i tier1:convar.obj
 0001:00000a40       ?IsFlagSet@ConVar@@WBI@BE_NH@Z 10001a40 f i tier1:convar.obj
 0001:00000a50       ?Create@ConVar@@EAEXPBD0H0_NM1MP6AXPAVIConVar@@0M@Z@Z 10001a50 f   tier1:convar.obj
 0001:00000b90       ??0ConVar@@QAE@PBD0H@Z     10001b90 f   tier1:convar.obj
 0001:00000c00       ?SetValue@CEmptyConVar@@UAEXPBD@Z 10001c00 f i tier1:convar.obj
 0001:00000c00       ?SetValue@CEmptyConVar@@UAEXM@Z 10001c00 f i tier1:convar.obj
 0001:00000c00       ?SetValue@CEmptyConVar@@UAEXH@Z 10001c00 f i tier1:convar.obj
 0001:00000c10       ?GetName@CEmptyConVar@@UBEPBDXZ 10001c10 f i tier1:convar.obj
 0001:00000c20       ?IsFlagSet@CEmptyConVar@@UBE_NH@Z 10001c20 f i tier1:convar.obj
 0001:00000c30       ?GetName@CEmptyConVar@@WBI@BEPBDXZ 10001c30 f i tier1:convar.obj
 0001:00000c40       ?IsFlagSet@CEmptyConVar@@WBI@BE_NH@Z 10001c40 f i tier1:convar.obj
 0001:00000c50       ??_ECEmptyConVar@@UAEPAXI@Z 10001c50 f i tier1:convar.obj
 0001:00000c50       ??_GConVar@@UAEPAXI@Z      10001c50 f i tier1:convar.obj
 0001:00000c50       ??_EConVar@@UAEPAXI@Z      10001c50 f i tier1:convar.obj
 0001:00000c50       ??_GCEmptyConVar@@UAEPAXI@Z 10001c50 f i tier1:convar.obj
 0001:00000ca0       ?_V_strlen@@YAHPBD@Z       10001ca0 f   tier1:strtools.obj
 0001:00000cd0       ?_V_strcmp@@YAHPBD0@Z      10001cd0 f   tier1:strtools.obj
 0001:00000d30       ?_V_memset@@YAXPAXHH@Z     10001d30 f   tier1:strtools.obj
 0001:00000d60       ?_V_memcpy@@YAXPAXPBXH@Z   10001d60 f   tier1:strtools.obj
 0001:00000d90       ?_V_memmove@@YAXPAXPBXH@Z  10001d90 f   tier1:strtools.obj
 0001:00000dc0       ?V_snprintf@@YAHPADHPBDZZ  10001dc0 f   tier1:strtools.obj
 0001:00000e10       ??0InterfaceReg@@QAE@P6APAXXZPBD@Z 10001e10 f   tier1:interface.obj
 0001:00000e30       ?CreateInterfaceInternal@@YAPAXPBDPAH@Z 10001e30 f   tier1:interface.obj
 0001:00000ea0       _CreateInterface           10001ea0 f   tier1:interface.obj
 0001:00000eb0       ?FindConversion@CUtlCStringConversion@@UAEDPBDPAH@Z 10001eb0 f   tier1:utlbuffer.obj
 0001:00000ed0       ??0CUtlCharConversion@@QAE@DPBDHPAUConversionArray_t@0@@Z 10001ed0 f   tier1:utlbuffer.obj
 0001:00000f60       ?FindConversion@CUtlCharConversion@@UAEDPBDPAH@Z 10001f60 f   tier1:utlbuffer.obj
 0001:00000fc0       ?FindConversion@CUtlNoEscConversion@@UAEDPBDPAH@Z 10001fc0 f i tier1:utlbuffer.obj
 0001:00000fe0       ?ReconnectInterface@@YAXP6APAXPBDPAH@Z0PAPAX@Z 10001fe0 f   interfaces:interfaces.obj
 0001:00001050       ?ConnectInterfaces@@YAXPAP6APAXPBDPAH@ZH@Z 10002050 f   interfaces:interfaces.obj
 0001:00001150       ?DisconnectInterfaces@@YAXXZ 10002150 f   interfaces:interfaces.obj
 0001:00001190       ?BuildGammaTable@@YAXMMMH@Z 10002190 f   mathlib:color_conversion.obj
 0001:000014f0       ??4VMatrix@@QAEAAV0@ABV0@@Z 100024f0 f   mathlib:vmatrix.obj
 0001:00001560       ?MatrixSetIdentity@@YAXAAVVMatrix@@@Z 10002560 f   mathlib:vmatrix.obj
 0001:000015c0       ?MatrixTranspose@@YAXABVVMatrix@@AAV1@@Z 100025c0 f   mathlib:vmatrix.obj
 0001:00001690       ?Transpose@VMatrix@@QBE?AV1@XZ 10002690 f   mathlib:vmatrix.obj
 0001:00001700       ?_VectorNormalizeFast@@YIXAAVVector@@@Z 10002700 f   mathlib:mathlib_base.obj
 0001:00001760       ?MathLib_Init@@YAXMMMH_N000@Z 10002760 f   mathlib:mathlib_base.obj
 0001:00001800       ?Seed@SIMDRandStreamContext@@QAEXI@Z 10002800 f i mathlib:randsse.obj
 0001:000018f0       ?SeedRandSIMD@@YAXI@Z      100028f0 f   mathlib:randsse.obj
 0001:00001920       ?ConnectTier1Libraries@@YAXPAP6APAXPBDPAH@ZH@Z 10002920 f   tier1:tier1.obj
 0001:00001930       ?DisconnectTier1Libraries@@YAXXZ 10002930 f   tier1:tier1.obj
 0001:000025c0       ?LoadViewMatrixIntoVertexShaderConstant@CBaseVSShader@@QAEXH@Z 100035c0 f   BaseVSShader.obj
 0001:00002610       ?SetHWMorphVertexShaderState@CBaseVSShader@@QAEXHHW4VertexTextureSampler_t@@@Z 10003610 f   BaseVSShader.obj
 0001:00002740       ??0CShaderParam@GAUSSIAN_BLUR_6@@QAE@PBDW4ShaderParamType_t@@00H@Z 10003740 f i blur.obj
 0001:000027e0       ?GetFlags@CShader@GAUSSIAN_BLUR_6@@UBEHXZ 100037e0 f i blur.obj
 0001:000027f0       ?GetName@CShader@GAUSSIAN_BLUR_6@@UBEPBDXZ 100037f0 f i blur.obj
 0001:00002800       ?GetParamCount@CShader@GAUSSIAN_BLUR_6@@UBEHXZ 10003800 f i blur.obj
 0001:00002810       ?GetParamInfo@CShader@GAUSSIAN_BLUR_6@@UBEABUShaderParamInfo_t@@H@Z 10003810 f i blur.obj
 0001:00002840       ?OnDrawElements@CShader@GAUSSIAN_BLUR_6@@UAEXPAPAVIMaterialVar@@PAVIShaderShadow@@PAVIShaderDynamicAPI@@W4VertexCompressionType_t@@PAPAVCBasePerMaterialContextData@@@Z 10003840 f i blur.obj
 0001:00002970       ?OnInitShaderInstance@CShader@VOLUME_BLEND@@UAEXPAPAVIMaterialVar@@PAVIShaderInit@@PBD@Z 10003970 f i volume_blend.obj
 0001:00002970       ?OnInitShaderInstance@CShader@GAUSSIAN_BLUR_6@@UAEXPAPAVIMaterialVar@@PAVIShaderInit@@PBD@Z 10003970 f i blur.obj
 0001:000029a0       ?GetFlags@CShader@DEBUG_LIGHTING_CTRL@@UBEHXZ 100039a0 f i debug_lightingctrl.obj
 0001:000029b0       ?GetName@CShader@DEBUG_LIGHTING_CTRL@@UBEPBDXZ 100039b0 f i debug_lightingctrl.obj
 0001:000029c0       ?GetParamCount@CShader@DEBUG_LIGHTING_CTRL@@UBEHXZ 100039c0 f i debug_lightingctrl.obj
 0001:000029d0       ?GetParamInfo@CShader@DEBUG_LIGHTING_CTRL@@UBEABUShaderParamInfo_t@@H@Z 100039d0 f i debug_lightingctrl.obj
 0001:00002a00       ?OnDrawElements@CShader@DEBUG_LIGHTING_CTRL@@UAEXPAPAVIMaterialVar@@PAVIShaderShadow@@PAVIShaderDynamicAPI@@W4VertexCompressionType_t@@PAPAVCBasePerMaterialContextData@@@Z 10003a00 f i debug_lightingctrl.obj
 0001:00002b30       ?GetFlags@CShader@DEBUG_RADIOSITY_GRID@@UBEHXZ 10003b30 f i debug_radiosity_grid.obj
 0001:00002b40       ?GetName@CShader@DEBUG_RADIOSITY_GRID@@UBEPBDXZ 10003b40 f i debug_radiosity_grid.obj
 0001:00002b50       ?GetParamCount@CShader@DEBUG_RADIOSITY_GRID@@UBEHXZ 10003b50 f i debug_radiosity_grid.obj
 0001:00002b60       ?GetParamInfo@CShader@DEBUG_RADIOSITY_GRID@@UBEABUShaderParamInfo_t@@H@Z 10003b60 f i debug_radiosity_grid.obj
 0001:00002b90       ?OnDrawElements@CShader@DEBUG_RADIOSITY_GRID@@UAEXPAPAVIMaterialVar@@PAVIShaderShadow@@PAVIShaderDynamicAPI@@W4VertexCompressionType_t@@PAPAVCBasePerMaterialContextData@@@Z 10003b90 f i debug_radiosity_grid.obj
 0001:00002c30       ?GetFlags@CShader@DEBUG_SHADOW@@UBEHXZ 10003c30 f i debug_shadow.obj
 0001:00002c40       ?GetName@CShader@DEBUG_SHADOW@@UBEPBDXZ 10003c40 f i debug_shadow.obj
 0001:00002c50       ?GetParamCount@CShader@DEBUG_SHADOW@@UBEHXZ 10003c50 f i debug_shadow.obj
 0001:00002c60       ?GetParamInfo@CShader@DEBUG_SHADOW@@UBEABUShaderParamInfo_t@@H@Z 10003c60 f i debug_shadow.obj
 0001:00002c90       ?OnDrawElements@CShader@DEBUG_SHADOW@@UAEXPAPAVIMaterialVar@@PAVIShaderShadow@@PAVIShaderDynamicAPI@@W4VertexCompressionType_t@@PAPAVCBasePerMaterialContextData@@@Z 10003c90 f i debug_shadow.obj
 0001:00002f00       ??0CShaderParam@DEFERRED_BRUSH@@QAE@PBDW4ShaderParamType_t@@00H@Z 10003f00 f i deferred_brush.obj
 0001:00002fa0       ??1CDeferredPerMaterialContextData@@UAE@XZ 10003fa0 f i deferred_brush.obj
 0001:00002ff0       ??_GCBasePerMaterialContextData@@UAEPAXI@Z 10003ff0 f i deferred_brush.obj
 0001:00002ff0       ??_ECBasePerMaterialContextData@@UAEPAXI@Z 10003ff0 f i deferred_brush.obj
 0001:00003020       ??_ECDeferredPerMaterialContextData@@UAEPAXI@Z 10004020 f i deferred_brush.obj
 0001:00003020       ??_GCDeferredPerMaterialContextData@@UAEPAXI@Z 10004020 f i deferred_brush.obj
 0001:00003050       ?GetFallbackShader@CShader@DEFERRED_BRUSH@@UBEPBDPAPAVIMaterialVar@@@Z 10004050 f i deferred_brush.obj
 0001:000030d0       ?GetFlags@CShader@DEFERRED_BRUSH@@UBEHXZ 100040d0 f i deferred_brush.obj
 0001:000030e0       ?GetName@CShader@DEFERRED_BRUSH@@UBEPBDXZ 100040e0 f i deferred_brush.obj
 0001:000030f0       ?GetParamCount@CShader@DEFERRED_BRUSH@@UBEHXZ 100040f0 f i deferred_brush.obj
 0001:00003100       ?GetParamInfo@CShader@DEFERRED_BRUSH@@UBEABUShaderParamInfo_t@@H@Z 10004100 f i deferred_brush.obj
 0001:00003130       ?OnDrawElements@CShader@DEFERRED_BRUSH@@UAEXPAPAVIMaterialVar@@PAVIShaderShadow@@PAVIShaderDynamicAPI@@W4VertexCompressionType_t@@PAPAVCBasePerMaterialContextData@@@Z 10004130 f i deferred_brush.obj
 0001:00003300       ?OnInitShaderInstance@CShader@DEFERRED_BRUSH@@UAEXPAPAVIMaterialVar@@PAVIShaderInit@@PBD@Z 10004300 f i deferred_brush.obj
 0001:000033f0       ?OnInitShaderParams@CShader@DEFERRED_BRUSH@@UAEXPAPAVIMaterialVar@@PBD@Z 100043f0 f i deferred_brush.obj
 0001:00003520       ?SetupParmsComposite@CShader@DEFERRED_BRUSH@@QAEXAAUdefParms_composite@@@Z 10004520 f i deferred_brush.obj
 0001:00003600       ?SetupParmsGBuffer@CShader@DEFERRED_BRUSH@@QAEXAAUdefParms_gBuffer@@@Z 10004600 f i deferred_brush.obj
 0001:000036a0       ??0CShaderParam@DEFERRED_DECALMODULATE@@QAE@PBDW4ShaderParamType_t@@00H@Z 100046a0 f i deferred_decalModulate.obj
 0001:00003740       ??0decalmodulate_vs30_Dynamic_Index@@QAE@PAVIShaderDynamicAPI@@@Z 10004740 f i deferred_decalModulate.obj
 0001:00003790       ?GetFlags@CShader@DEFERRED_DECALMODULATE@@UBEHXZ 10004790 f i deferred_decalModulate.obj
 0001:000037a0       ?GetName@CShader@DEFERRED_DECALMODULATE@@UBEPBDXZ 100047a0 f i deferred_decalModulate.obj
 0001:000037b0       ?GetParamCount@CShader@DEFERRED_DECALMODULATE@@UBEHXZ 100047b0 f i deferred_decalModulate.obj
 0001:000037c0       ?GetParamInfo@CShader@DEFERRED_DECALMODULATE@@UBEABUShaderParamInfo_t@@H@Z 100047c0 f i deferred_decalModulate.obj
 0001:000037f0       ?OnDrawElements@CShader@DEFERRED_DECALMODULATE@@UAEXPAPAVIMaterialVar@@PAVIShaderShadow@@PAVIShaderDynamicAPI@@W4VertexCompressionType_t@@PAPAVCBasePerMaterialContextData@@@Z 100047f0 f i deferred_decalModulate.obj
 0001:00003de0       ?OnInitShaderInstance@CShader@DEFERRED_DECALMODULATE@@UAEXPAPAVIMaterialVar@@PAVIShaderInit@@PBD@Z 10004de0 f i deferred_decalModulate.obj
 0001:00003df0       ?OnInitShaderParams@CShader@DEFERRED_DECALMODULATE@@UAEXPAPAVIMaterialVar@@PBD@Z 10004df0 f i deferred_decalModulate.obj
 0001:00003e90       ??0CShaderParam@DEFERRED_MODEL@@QAE@PBDW4ShaderParamType_t@@00H@Z 10004e90 f i deferred_model.obj
 0001:00003f30       ?GetFallbackShader@CShader@DEFERRED_MODEL@@UBEPBDPAPAVIMaterialVar@@@Z 10004f30 f i deferred_model.obj
 0001:00003f70       ?GetFlags@CShader@DEFERRED_MODEL@@UBEHXZ 10004f70 f i deferred_model.obj
 0001:00003f80       ?GetName@CShader@DEFERRED_MODEL@@UBEPBDXZ 10004f80 f i deferred_model.obj
 0001:00003f90       ?GetParamCount@CShader@DEFERRED_MODEL@@UBEHXZ 10004f90 f i deferred_model.obj
 0001:00003fa0       ?GetParamInfo@CShader@DEFERRED_MODEL@@UBEABUShaderParamInfo_t@@H@Z 10004fa0 f i deferred_model.obj
 0001:00003fd0       ?OnDrawElements@CShader@DEFERRED_MODEL@@UAEXPAPAVIMaterialVar@@PAVIShaderShadow@@PAVIShaderDynamicAPI@@W4VertexCompressionType_t@@PAPAVCBasePerMaterialContextData@@@Z 10004fd0 f i deferred_model.obj
 0001:000041a0       ?OnInitShaderInstance@CShader@DEFERRED_MODEL@@UAEXPAPAVIMaterialVar@@PAVIShaderInit@@PBD@Z 100051a0 f i deferred_model.obj
 0001:00004290       ?OnInitShaderParams@CShader@DEFERRED_MODEL@@UAEXPAPAVIMaterialVar@@PBD@Z 10005290 f i deferred_model.obj
 0001:000043c0       ?SetupParmsComposite@CShader@DEFERRED_MODEL@@QAEXAAUdefParms_composite@@@Z 100053c0 f i deferred_model.obj
 0001:00004470       ?GetTexcoordSettings@@YAX_N0AAHPAPAH@Z 10005470 f   deferred_utility.obj
 0001:000044b0       ??0composite_ps30_Static_Index@@QAE@PAVIShaderShadow@@PAPAVIMaterialVar@@@Z 100054b0 f i defpass_composite.obj
 0001:00004530       ?DrawPassComposite@@YAXABUdefParms_composite@@PAVCBaseVSShader@@PAPAVIMaterialVar@@PAVIShaderShadow@@PAVIShaderDynamicAPI@@W4VertexCompressionType_t@@PAVCDeferredPerMaterialContextData@@@Z 10005530 f   defpass_composite.obj
 0001:00005d70       ?GetIndex@composite_ps30_Static_Index@@QAEHXZ 10006d70 f i defpass_composite.obj
 0001:00005de0       ?InitParmsComposite@@YAXABUdefParms_composite@@PAVCBaseVSShader@@PAPAVIMaterialVar@@@Z 10006de0 f   defpass_composite.obj
 0001:00006090       ?InitPassComposite@@YAXABUdefParms_composite@@PAVCBaseVSShader@@PAPAVIMaterialVar@@@Z 10007090 f   defpass_composite.obj
 0001:000061f0       ?SetCommands@CDeferredPerMaterialContextData@@QAEXW4DefStage_t@1@PAE@Z 100071f0 f i defpass_composite.obj
 0001:00006280       ?SetVertexShaderTextureTransform@?$CCommandBufferBuilder@V?$CFixedCommandStorageBuffer@$0CAA@@@@@QAEXHH@Z 10007280 f i defpass_composite.obj
 0001:00006340       ?DrawPassGBuffer@@YAXABUdefParms_gBuffer@@PAVCBaseVSShader@@PAPAVIMaterialVar@@PAVIShaderShadow@@PAVIShaderDynamicAPI@@W4VertexCompressionType_t@@PAVCDeferredPerMaterialContextData@@@Z 10007340 f   defpass_gbuffer.obj
 0001:000074d0       ?InitParmsGBuffer@@YAXABUdefParms_gBuffer@@PAVCBaseVSShader@@PAPAVIMaterialVar@@@Z 100084d0 f   defpass_gbuffer.obj
 0001:00007580       ?InitPassGBuffer@@YAXABUdefParms_gBuffer@@PAVCBaseVSShader@@PAPAVIMaterialVar@@@Z 10008580 f   defpass_gbuffer.obj
 0001:000076c0       ?DrawPassShadowPass@@YAXABUdefParms_shadow@@PAVCBaseVSShader@@PAPAVIMaterialVar@@PAVIShaderShadow@@PAVIShaderDynamicAPI@@W4VertexCompressionType_t@@PAVCDeferredPerMaterialContextData@@@Z 100086c0 f   defpass_shadow.obj
 0001:00008050       ?InitParmsShadowPass@@YAXABUdefParms_shadow@@PAVCBaseVSShader@@PAPAVIMaterialVar@@@Z 10009050 f   defpass_shadow.obj
 0001:000080b0       ?InitPassShadowPass@@YAXABUdefParms_shadow@@PAVCBaseVSShader@@PAPAVIMaterialVar@@@Z 100090b0 f   defpass_shadow.obj
 0001:00008150       ??0CDeferredExtension@@QAE@XZ 10009150 f   IDeferredExt.obj
 0001:000082c0       ??0lightData_Global_t@@QAE@XZ 100092c0 f i IDeferredExt.obj
 0001:00008340       ??4shadowData_ortho_t@@QAEAAU0@ABU0@@Z 10009340 f i IDeferredExt.obj
 0001:000083b0       ??_GIBaseInterface@@UAEPAXI@Z 100093b0 f i IDeferredExt.obj
 0001:000083b0       ??_GCDeferredExtension@@UAEPAXI@Z 100093b0 f i IDeferredExt.obj
 0001:000083b0       ??_ECDeferredExtension@@UAEPAXI@Z 100093b0 f i IDeferredExt.obj
 0001:000083b0       ??_EIBaseInterface@@UAEPAXI@Z 100093b0 f i IDeferredExt.obj
 0001:000083e0       ?CommitFrustumDeltas@CDeferredExtension@@UAEXABVVMatrix@@@Z 100093e0 f   IDeferredExt.obj
 0001:000083f0       ?CommitLightData_Common@CDeferredExtension@@UAEPAMPAMHHHHH@Z 100093f0 f   IDeferredExt.obj
 0001:00008440       ?CommitLightData_Global@CDeferredExtension@@UAEXABUlightData_Global_t@@@Z 10009440 f   IDeferredExt.obj
 0001:00008450       ?CommitOrigin@CDeferredExtension@@UAEXABVVector@@@Z 10009450 f   IDeferredExt.obj
 0001:00008470       ?CommitRadiosityData@CDeferredExtension@@UAEXABUradiosityData_t@@@Z 10009470 f   IDeferredExt.obj
 0001:000084b0       ?CommitShadowData_General@CDeferredExtension@@UAEXABUshadowData_general_t@@@Z 100094b0 f   IDeferredExt.obj
 0001:000084d0       ?CommitShadowData_Ortho@CDeferredExtension@@UAEXABHABUshadowData_ortho_t@@@Z 100094d0 f   IDeferredExt.obj
 0001:00008500       ?CommitShadowData_Proj@CDeferredExtension@@UAEXABHABUshadowData_proj_t@@@Z 10009500 f   IDeferredExt.obj
 0001:00008590       ?CommitTexture_CascadedDepth@CDeferredExtension@@UAEXABHPAVITexture@@@Z 10009590 f   IDeferredExt.obj
 0001:000085b0       ?CommitTexture_Cookie@CDeferredExtension@@UAEXABHPAVITexture@@@Z 100095b0 f   IDeferredExt.obj
 0001:000085d0       ?CommitTexture_DualParaboloidDepth@CDeferredExtension@@UAEXABHPAVITexture@@@Z 100095d0 f   IDeferredExt.obj
 0001:000085f0       ?CommitTexture_General@CDeferredExtension@@UAEXPAVITexture@@00@Z 100095f0 f   IDeferredExt.obj
 0001:00008620       ?CommitTexture_ProjectedDepth@CDeferredExtension@@UAEXABHPAVITexture@@@Z 10009620 f   IDeferredExt.obj
 0001:00008640       ?CommitTexture_Radiosity@CDeferredExtension@@UAEXPAVITexture@@000@Z 10009640 f   IDeferredExt.obj
 0001:00008670       ?CommitTexture_ShadowRadOutput_Ortho@CDeferredExtension@@UAEXPAVITexture@@0@Z 10009670 f   IDeferredExt.obj
 0001:00008690       ?CommitTexture_VolumePrePass@CDeferredExtension@@UAEXPAVITexture@@@Z 10009690 f   IDeferredExt.obj
 0001:000086a0       ?CommitViewForward@CDeferredExtension@@UAEXABVVector@@@Z 100096a0 f   IDeferredExt.obj
 0001:000086c0       ?CommitVolumeData@CDeferredExtension@@UAEXABUvolumeData_t@@@Z 100096c0 f   IDeferredExt.obj
 0001:000086e0       ?CommitZDists@CDeferredExtension@@UAEXABM0@Z 100096e0 f   IDeferredExt.obj
 0001:00008700       ?CommitZScale@CDeferredExtension@@UAEXABM@Z 10009700 f   IDeferredExt.obj
 0001:00008710       ?EnableDeferredLighting@CDeferredExtension@@UAEXXZ 10009710 f   IDeferredExt.obj
 0001:00008720       ?IsDeferredLightingEnabled@CDeferredExtension@@QAE_NXZ 10009720 f   IDeferredExt.obj
 0001:00008730       ?IsRadiosityEnabled@CDeferredExtension@@QAE_NXZ 10009730 f   IDeferredExt.obj
 0001:00008770       ??0lightData_Global_t@@QAE@ABU0@@Z 10009770 f i lighting_global.obj
 0001:00008770       ??4lightData_Global_t@@QAEAAU0@ABU0@@Z 10009770 f i IDeferredExt.obj
 0001:00008800       ?GetFallbackShader@CShader@SCREENSPACE_COMBINE@@UBEPBDPAPAVIMaterialVar@@@Z 10009800 f i screenspace_combine.obj
 0001:00008800       ?GetFallbackShader@CShader@RADIOSITY_PROPAGATE@@UBEPBDPAPAVIMaterialVar@@@Z 10009800 f i radiosity_propagate.obj
 0001:00008800       ?GetFallbackShader@CShader@VOLUME_BLEND@@UBEPBDPAPAVIMaterialVar@@@Z 10009800 f i volume_blend.obj
 0001:00008800       ?GetFallbackShader@CShader@LIGHTING_WORLD@@UBEPBDPAPAVIMaterialVar@@@Z 10009800 f i lighting_world.obj
 0001:00008800       ?GetFallbackShader@CShader@SCREENSPACE_SHADING@@UBEPBDPAPAVIMaterialVar@@@Z 10009800 f i screenspace_shading.obj
 0001:00008800       ?GetFallbackShader@CShader@LIGHTING_VOLUME@@UBEPBDPAPAVIMaterialVar@@@Z 10009800 f i lighting_volume.obj
 0001:00008800       ?GetFallbackShader@CShader@VOLUME_PREPASS@@UBEPBDPAPAVIMaterialVar@@@Z 10009800 f i volume_prepass.obj
 0001:00008800       ?GetFallbackShader@CShader@DEFERRED_DECALMODULATE@@UBEPBDPAPAVIMaterialVar@@@Z 10009800 f i deferred_decalModulate.obj
 0001:00008800       ?GetFallbackShader@CShader@DEBUG_RADIOSITY_GRID@@UBEPBDPAPAVIMaterialVar@@@Z 10009800 f i debug_radiosity_grid.obj
 0001:00008800       ?GetFallbackShader@CShader@DEBUG_SHADOW@@UBEPBDPAPAVIMaterialVar@@@Z 10009800 f i debug_shadow.obj
 0001:00008800       ?GetFallbackShader@CShader@DEBUG_LIGHTING_CTRL@@UBEPBDPAPAVIMaterialVar@@@Z 10009800 f i debug_lightingctrl.obj
 0001:00008800       ?GetFallbackShader@CShader@LIGHTING_GLOBAL@@UBEPBDPAPAVIMaterialVar@@@Z 10009800 f i lighting_global.obj
 0001:00008800       ?GetFallbackShader@CBaseShader@@UBEPBDPAPAVIMaterialVar@@@Z 10009800 f i blur.obj
 0001:00008800       ?GetFallbackShader@CShader@RADIOSITY_GLOBAL@@UBEPBDPAPAVIMaterialVar@@@Z 10009800 f i radiosity_global.obj
 0001:00008800       ?GetFallbackShader@CShader@RADIOSITY_BLEND@@UBEPBDPAPAVIMaterialVar@@@Z 10009800 f i radiosity_blend.obj
 0001:00008800       ?GetFallbackShader@CShader@GAUSSIAN_BLUR_6@@UBEPBDPAPAVIMaterialVar@@@Z 10009800 f i blur.obj
 0001:00008810       ?GetFlags@CShader@LIGHTING_GLOBAL@@UBEHXZ 10009810 f i lighting_global.obj
 0001:00008820       ?GetName@CShader@LIGHTING_GLOBAL@@UBEPBDXZ 10009820 f i lighting_global.obj
 0001:00008830       ?GetParamCount@CShader@LIGHTING_GLOBAL@@UBEHXZ 10009830 f i lighting_global.obj
 0001:00008840       ?GetParamInfo@CShader@LIGHTING_GLOBAL@@UBEABUShaderParamInfo_t@@H@Z 10009840 f i lighting_global.obj
 0001:00008870       ?OnDrawElements@CShader@LIGHTING_GLOBAL@@UAEXPAPAVIMaterialVar@@PAVIShaderShadow@@PAVIShaderDynamicAPI@@W4VertexCompressionType_t@@PAPAVCBasePerMaterialContextData@@@Z 10009870 f i lighting_global.obj
 0001:00008bf0       ?OnInitShaderParams@CShader@DEBUG_LIGHTING_CTRL@@UAEXPAPAVIMaterialVar@@PBD@Z 10009bf0 f i debug_lightingctrl.obj
 0001:00008bf0       ?OnInitShaderParams@CShader@SCREENSPACE_COMBINE@@UAEXPAPAVIMaterialVar@@PBD@Z 10009bf0 f i screenspace_combine.obj
 0001:00008bf0       ?OnInitShaderParams@CShader@DEBUG_SHADOW@@UAEXPAPAVIMaterialVar@@PBD@Z 10009bf0 f i debug_shadow.obj
 0001:00008bf0       ?OnInitShaderParams@CShader@RADIOSITY_BLEND@@UAEXPAPAVIMaterialVar@@PBD@Z 10009bf0 f i radiosity_blend.obj
 0001:00008bf0       ?OnInitShaderParams@CShader@LIGHTING_GLOBAL@@UAEXPAPAVIMaterialVar@@PBD@Z 10009bf0 f i lighting_global.obj
 0001:00008bf0       ?OnInitShaderParams@CShader@VOLUME_BLEND@@UAEXPAPAVIMaterialVar@@PBD@Z 10009bf0 f i volume_blend.obj
 0001:00008bf0       ?OnInitShaderParams@CShader@DEBUG_RADIOSITY_GRID@@UAEXPAPAVIMaterialVar@@PBD@Z 10009bf0 f i debug_radiosity_grid.obj
 0001:00008bf0       ?OnInitShaderParams@CShader@RADIOSITY_PROPAGATE@@UAEXPAPAVIMaterialVar@@PBD@Z 10009bf0 f i radiosity_propagate.obj
 0001:00008bf0       ?OnInitShaderParams@CShader@RADIOSITY_GLOBAL@@UAEXPAPAVIMaterialVar@@PBD@Z 10009bf0 f i radiosity_global.obj
 0001:00008bf0       ?OnInitShaderParams@CShader@VOLUME_PREPASS@@UAEXPAPAVIMaterialVar@@PBD@Z 10009bf0 f i volume_prepass.obj
 0001:00008bf0       ?OnInitShaderParams@CBaseShader@@UAEXPAPAVIMaterialVar@@PBD@Z 10009bf0 f i blur.obj
 0001:00008bf0       ?OnInitShaderParams@CShader@GAUSSIAN_BLUR_6@@UAEXPAPAVIMaterialVar@@PBD@Z 10009bf0 f i blur.obj
 0001:00008bf0       ?OnInitShaderParams@CShader@SCREENSPACE_SHADING@@UAEXPAPAVIMaterialVar@@PBD@Z 10009bf0 f i screenspace_shading.obj
 0001:00008c00       ?DrawPassLightPass@@YAXABUlightPassParms@@PAVCBaseVSShader@@PAPAVIMaterialVar@@PAVIShaderShadow@@PAVIShaderDynamicAPI@@W4VertexCompressionType_t@@@Z 10009c00 f   lighting_pass_basic.obj
 0001:00009160       ?DrawPassLightPassVolum@@YAXABUlightPassParms@@PAVCBaseVSShader@@PAPAVIMaterialVar@@PAVIShaderShadow@@PAVIShaderDynamicAPI@@W4VertexCompressionType_t@@@Z 1000a160 f   lighting_pass_volum.obj
 0001:00009570       ?InitParmsLightPassVolum@@YAXABUlightPassParms@@PAVCBaseVSShader@@PAPAVIMaterialVar@@@Z 1000a570 f   lighting_pass_volum.obj
 0001:00009570       ?InitParmsLightPass@@YAXABUlightPassParms@@PAVCBaseVSShader@@PAPAVIMaterialVar@@@Z 1000a570 f   lighting_pass_basic.obj
 0001:000095a0       ?InitPassLightPass@@YAXABUlightPassParms@@PAVCBaseVSShader@@PAPAVIMaterialVar@@@Z 1000a5a0 f   lighting_pass_basic.obj
 0001:000095a0       ?InitPassLightPassVolum@@YAXABUlightPassParms@@PAVCBaseVSShader@@PAPAVIMaterialVar@@@Z 1000a5a0 f   lighting_pass_volum.obj
 0001:000095b0       ??0CShaderParam@LIGHTING_WORLD@@QAE@PBDW4ShaderParamType_t@@00H@Z 1000a5b0 f i lighting_world.obj
 0001:00009650       ?GetFlags@CShader@LIGHTING_WORLD@@UBEHXZ 1000a650 f i lighting_world.obj
 0001:00009660       ?GetName@CShader@LIGHTING_WORLD@@UBEPBDXZ 1000a660 f i lighting_world.obj
 0001:00009670       ?GetParamCount@CShader@LIGHTING_WORLD@@UBEHXZ 1000a670 f i lighting_world.obj
 0001:00009680       ?GetParamInfo@CShader@LIGHTING_WORLD@@UBEABUShaderParamInfo_t@@H@Z 1000a680 f i lighting_world.obj
 0001:000096b0       ?OnDrawElements@CShader@LIGHTING_WORLD@@UAEXPAPAVIMaterialVar@@PAVIShaderShadow@@PAVIShaderDynamicAPI@@W4VertexCompressionType_t@@PAPAVCBasePerMaterialContextData@@@Z 1000a6b0 f i lighting_world.obj
 0001:00009700       ?OnInitShaderInstance@CShader@LIGHTING_WORLD@@UAEXPAPAVIMaterialVar@@PAVIShaderInit@@PBD@Z 1000a700 f i lighting_world.obj
 0001:00009740       ?OnInitShaderParams@CShader@LIGHTING_WORLD@@UAEXPAPAVIMaterialVar@@PBD@Z 1000a740 f i lighting_world.obj
 0001:00009780       ??0CShaderParam@LIGHTING_VOLUME@@QAE@PBDW4ShaderParamType_t@@00H@Z 1000a780 f i lighting_volume.obj
 0001:00009820       ?GetFlags@CShader@LIGHTING_VOLUME@@UBEHXZ 1000a820 f i lighting_volume.obj
 0001:00009830       ?GetName@CShader@LIGHTING_VOLUME@@UBEPBDXZ 1000a830 f i lighting_volume.obj
 0001:00009840       ?GetParamCount@CShader@LIGHTING_VOLUME@@UBEHXZ 1000a840 f i lighting_volume.obj
 0001:00009850       ?GetParamInfo@CShader@LIGHTING_VOLUME@@UBEABUShaderParamInfo_t@@H@Z 1000a850 f i lighting_volume.obj
 0001:00009880       ?OnDrawElements@CShader@LIGHTING_VOLUME@@UAEXPAPAVIMaterialVar@@PAVIShaderShadow@@PAVIShaderDynamicAPI@@W4VertexCompressionType_t@@PAPAVCBasePerMaterialContextData@@@Z 1000a880 f i lighting_volume.obj
 0001:000098d0       ?OnInitShaderInstance@CShader@LIGHTING_VOLUME@@UAEXPAPAVIMaterialVar@@PAVIShaderInit@@PBD@Z 1000a8d0 f i lighting_volume.obj
 0001:00009910       ?OnInitShaderParams@CShader@LIGHTING_VOLUME@@UAEXPAPAVIMaterialVar@@PBD@Z 1000a910 f i lighting_volume.obj
 0001:00009950       ?GetFlags@CShader@RADIOSITY_BLEND@@UBEHXZ 1000a950 f i radiosity_blend.obj
 0001:00009960       ?GetName@CShader@RADIOSITY_BLEND@@UBEPBDXZ 1000a960 f i radiosity_blend.obj
 0001:00009970       ?GetParamCount@CShader@RADIOSITY_BLEND@@UBEHXZ 1000a970 f i radiosity_blend.obj
 0001:00009980       ?GetParamInfo@CShader@RADIOSITY_BLEND@@UBEABUShaderParamInfo_t@@H@Z 1000a980 f i radiosity_blend.obj
 0001:000099b0       ?OnDrawElements@CShader@RADIOSITY_BLEND@@UAEXPAPAVIMaterialVar@@PAVIShaderShadow@@PAVIShaderDynamicAPI@@W4VertexCompressionType_t@@PAPAVCBasePerMaterialContextData@@@Z 1000a9b0 f i radiosity_blend.obj
 0001:00009ba0       ?OnInitShaderInstance@CShader@VOLUME_PREPASS@@UAEXPAPAVIMaterialVar@@PAVIShaderInit@@PBD@Z 1000aba0 f i volume_prepass.obj
 0001:00009ba0       ?OnInitShaderInstance@CShader@DEBUG_RADIOSITY_GRID@@UAEXPAPAVIMaterialVar@@PAVIShaderInit@@PBD@Z 1000aba0 f i debug_radiosity_grid.obj
 0001:00009ba0       ?OnInitShaderInstance@CShader@DEBUG_SHADOW@@UAEXPAPAVIMaterialVar@@PAVIShaderInit@@PBD@Z 1000aba0 f i debug_shadow.obj
 0001:00009ba0       ?OnInitShaderInstance@CShader@LIGHTING_GLOBAL@@UAEXPAPAVIMaterialVar@@PAVIShaderInit@@PBD@Z 1000aba0 f i lighting_global.obj
 0001:00009ba0       ?OnInitShaderInstance@CShader@RADIOSITY_GLOBAL@@UAEXPAPAVIMaterialVar@@PAVIShaderInit@@PBD@Z 1000aba0 f i radiosity_global.obj
 0001:00009ba0       ?OnInitShaderInstance@CShader@DEBUG_LIGHTING_CTRL@@UAEXPAPAVIMaterialVar@@PAVIShaderInit@@PBD@Z 1000aba0 f i debug_lightingctrl.obj
 0001:00009ba0       ?OnInitShaderInstance@CShader@RADIOSITY_BLEND@@UAEXPAPAVIMaterialVar@@PAVIShaderInit@@PBD@Z 1000aba0 f i radiosity_blend.obj
 0001:00009ba0       ?OnInitShaderInstance@CShader@SCREENSPACE_SHADING@@UAEXPAPAVIMaterialVar@@PAVIShaderInit@@PBD@Z 1000aba0 f i screenspace_shading.obj
 0001:00009ba0       ?OnInitShaderInstance@CShader@SCREENSPACE_COMBINE@@UAEXPAPAVIMaterialVar@@PAVIShaderInit@@PBD@Z 1000aba0 f i screenspace_combine.obj
 0001:00009bb0       ?GetFlags@CShader@RADIOSITY_GLOBAL@@UBEHXZ 1000abb0 f i radiosity_global.obj
 0001:00009bc0       ?GetName@CShader@RADIOSITY_GLOBAL@@UBEPBDXZ 1000abc0 f i radiosity_global.obj
 0001:00009bd0       ?GetParamCount@CShader@RADIOSITY_GLOBAL@@UBEHXZ 1000abd0 f i radiosity_global.obj
 0001:00009be0       ?GetParamInfo@CShader@RADIOSITY_GLOBAL@@UBEABUShaderParamInfo_t@@H@Z 1000abe0 f i radiosity_global.obj
 0001:00009c10       ?OnDrawElements@CShader@RADIOSITY_GLOBAL@@UAEXPAPAVIMaterialVar@@PAVIShaderShadow@@PAVIShaderDynamicAPI@@W4VertexCompressionType_t@@PAPAVCBasePerMaterialContextData@@@Z 1000ac10 f i radiosity_global.obj
 0001:00009df0       ??0CShaderParam@RADIOSITY_PROPAGATE@@QAE@PBDW4ShaderParamType_t@@00H@Z 1000adf0 f i radiosity_propagate.obj
 0001:00009e90       ?GetFlags@CShader@RADIOSITY_PROPAGATE@@UBEHXZ 1000ae90 f i radiosity_propagate.obj
 0001:00009ea0       ?GetName@CShader@RADIOSITY_PROPAGATE@@UBEPBDXZ 1000aea0 f i radiosity_propagate.obj
 0001:00009eb0       ?GetParamCount@CShader@RADIOSITY_PROPAGATE@@UBEHXZ 1000aeb0 f i radiosity_propagate.obj
 0001:00009ec0       ?GetParamInfo@CShader@RADIOSITY_PROPAGATE@@UBEABUShaderParamInfo_t@@H@Z 1000aec0 f i radiosity_propagate.obj
 0001:00009ef0       ?OnDrawElements@CShader@RADIOSITY_PROPAGATE@@UAEXPAPAVIMaterialVar@@PAVIShaderShadow@@PAVIShaderDynamicAPI@@W4VertexCompressionType_t@@PAPAVCBasePerMaterialContextData@@@Z 1000aef0 f i radiosity_propagate.obj
 0001:0000a000       ?OnInitShaderInstance@CShader@RADIOSITY_PROPAGATE@@UAEXPAPAVIMaterialVar@@PAVIShaderInit@@PBD@Z 1000b000 f i radiosity_propagate.obj
 0001:0000a050       ?GetFlags@CShader@SCREENSPACE_COMBINE@@UBEHXZ 1000b050 f i screenspace_combine.obj
 0001:0000a060       ?GetName@CShader@SCREENSPACE_COMBINE@@UBEPBDXZ 1000b060 f i screenspace_combine.obj
 0001:0000a070       ?GetParamCount@CShader@SCREENSPACE_COMBINE@@UBEHXZ 1000b070 f i screenspace_combine.obj
 0001:0000a080       ?GetParamInfo@CShader@SCREENSPACE_COMBINE@@UBEABUShaderParamInfo_t@@H@Z 1000b080 f i screenspace_combine.obj
 0001:0000a0b0       ?OnDrawElements@CShader@SCREENSPACE_COMBINE@@UAEXPAPAVIMaterialVar@@PAVIShaderShadow@@PAVIShaderDynamicAPI@@W4VertexCompressionType_t@@PAPAVCBasePerMaterialContextData@@@Z 1000b0b0 f i screenspace_combine.obj
 0001:0000a150       ?GetFlags@CShader@SCREENSPACE_SHADING@@UBEHXZ 1000b150 f i screenspace_shading.obj
 0001:0000a160       ?GetName@CShader@SCREENSPACE_SHADING@@UBEPBDXZ 1000b160 f i screenspace_shading.obj
 0001:0000a170       ?GetParamCount@CShader@SCREENSPACE_SHADING@@UBEHXZ 1000b170 f i screenspace_shading.obj
 0001:0000a180       ?GetParamInfo@CShader@SCREENSPACE_SHADING@@UBEABUShaderParamInfo_t@@H@Z 1000b180 f i screenspace_shading.obj
 0001:0000a1b0       ?OnDrawElements@CShader@SCREENSPACE_SHADING@@UAEXPAPAVIMaterialVar@@PAVIShaderShadow@@PAVIShaderDynamicAPI@@W4VertexCompressionType_t@@PAPAVCBasePerMaterialContextData@@@Z 1000b1b0 f i screenspace_shading.obj
 0001:0000a460       ?GetFlags@CShader@VOLUME_BLEND@@UBEHXZ 1000b460 f i volume_blend.obj
 0001:0000a470       ?GetName@CShader@VOLUME_BLEND@@UBEPBDXZ 1000b470 f i volume_blend.obj
 0001:0000a480       ?GetParamCount@CShader@VOLUME_BLEND@@UBEHXZ 1000b480 f i volume_blend.obj
 0001:0000a490       ?GetParamInfo@CShader@VOLUME_BLEND@@UBEABUShaderParamInfo_t@@H@Z 1000b490 f i volume_blend.obj
 0001:0000a4c0       ?OnDrawElements@CShader@VOLUME_BLEND@@UAEXPAPAVIMaterialVar@@PAVIShaderShadow@@PAVIShaderDynamicAPI@@W4VertexCompressionType_t@@PAPAVCBasePerMaterialContextData@@@Z 1000b4c0 f i volume_blend.obj
 0001:0000a570       ?GetFlags@CShader@VOLUME_PREPASS@@UBEHXZ 1000b570 f i volume_prepass.obj
 0001:0000a580       ?GetName@CShader@VOLUME_PREPASS@@UBEPBDXZ 1000b580 f i volume_prepass.obj
 0001:0000a590       ?GetParamCount@CShader@VOLUME_PREPASS@@UBEHXZ 1000b590 f i volume_prepass.obj
 0001:0000a5a0       ?GetParamInfo@CShader@VOLUME_PREPASS@@UBEABUShaderParamInfo_t@@H@Z 1000b5a0 f i volume_prepass.obj
 0001:0000a5d0       ?OnDrawElements@CShader@VOLUME_PREPASS@@UAEXPAPAVIMaterialVar@@PAVIShaderShadow@@PAVIShaderDynamicAPI@@W4VertexCompressionType_t@@PAPAVCBasePerMaterialContextData@@@Z 1000b5d0 f i volume_prepass.obj
 0001:0000a6e0       ??0CBaseShader@@QAE@XZ     1000b6e0 f   shaderlib:BaseShader.obj
 0001:0000a700       ??_GCBasePerInstanceContextData@@UAEPAXI@Z 1000b700 f i shaderlib:BaseShader.obj
 0001:0000a700       ??_ECBasePerInstanceContextData@@UAEPAXI@Z 1000b700 f i shaderlib:BaseShader.obj
 0001:0000a730       ??_GCPerInstanceContextData@@UAEPAXI@Z 1000b730 f i shaderlib:BaseShader.obj
 0001:0000a730       ??_ECPerInstanceContextData@@UAEPAXI@Z 1000b730 f i shaderlib:BaseShader.obj
 0001:0000a770       ?BindTexture@CBaseShader@@QAEXW4Sampler_t@@HH@Z 1000b770 f   shaderlib:BaseShader.obj
 0001:0000a7c0       ?BindTexture@CBaseShader@@QAEXW4Sampler_t@@PAVITexture@@H@Z 1000b7c0 f   shaderlib:BaseShader.obj
 0001:0000a7d0       ?ComputeModulationFlags@CBaseShader@@UAEHPAPAVIMaterialVar@@PAVIShaderDynamicAPI@@@Z 1000b7d0 f   shaderlib:BaseShader.obj
 0001:0000a8a0       ?DefaultFog@CBaseShader@@QAEXXZ 1000b8a0 f   shaderlib:BaseShader.obj
 0001:0000a900       ?Draw@CBaseShader@@QAEX_N@Z 1000b900 f   shaderlib:BaseShader.obj
 0001:0000a9e0       ?DrawElements@CBaseShader@@UAEXPAPAVIMaterialVar@@HPAVIShaderShadow@@PAVIShaderDynamicAPI@@W4VertexCompressionType_t@@PAPAVCBasePerMaterialContextData@@PAPAVCBasePerInstanceContextData@@@Z 1000b9e0 f   shaderlib:BaseShader.obj
 0001:0000aa80       ?EnableAlphaBlending@CBaseShader@@QAEXW4ShaderBlendFactor_t@@0@Z 1000ba80 f   shaderlib:BaseShader.obj
 0001:0000aac0       ?FogToGrey@CBaseShader@@QAEXXZ 1000bac0 f   shaderlib:BaseShader.obj
 0001:0000ab00       ?GetParamCount@CBaseShader@@UBEHXZ 1000bb00 f   shaderlib:BaseShader.obj
 0001:0000ab10       ?GetParamInfo@CBaseShader@@UBEABUShaderParamInfo_t@@H@Z 1000bb10 f   shaderlib:BaseShader.obj
 0001:0000ab30       ?GetShaderAPITextureBindHandle@CBaseShader@@QAEHHHH@Z 1000bb30 f   shaderlib:BaseShader.obj
 0001:0000ab80       ?InitShaderInstance@CBaseShader@@UAEXPAPAVIMaterialVar@@PAVIShaderInit@@PBD2@Z 1000bb80 f   shaderlib:BaseShader.obj
 0001:0000abd0       ?InitShaderParams@CBaseShader@@UAEXPAPAVIMaterialVar@@PBD@Z 1000bbd0 f   shaderlib:BaseShader.obj
 0001:0000ac00       ?IsTranslucent@CBaseShader@@UBE_NPAPAVIMaterialVar@@@Z 1000bc00 f   shaderlib:BaseShader.obj
 0001:0000ac20       ?LoadBumpMap@CBaseShader@@QAEXH@Z 1000bc20 f   shaderlib:BaseShader.obj
 0001:0000ac70       ?LoadCubeMap@CBaseShader@@QAEXH@Z 1000bc70 f   shaderlib:BaseShader.obj
 0001:0000acc0       ?LoadTexture@CBaseShader@@QAEXH@Z 1000bcc0 f   shaderlib:BaseShader.obj
 0001:0000ad00       ?NeedsFullFrameBufferTexture@CBaseShader@@UBE_NPAPAVIMaterialVar@@_N@Z 1000bd00 f   shaderlib:BaseShader.obj
 0001:0000ad20       ?NeedsPowerOfTwoFrameBufferTexture@CBaseShader@@UBE_NPAPAVIMaterialVar@@_N@Z 1000bd20 f   shaderlib:BaseShader.obj
 0001:0000ad40       ?PI_EndCommandBuffer@CBaseShader@@QAEXXZ 1000bd40 f   shaderlib:BaseShader.obj
 0001:0000ae50       ?SetInitialShadowState@CBaseShader@@QAEXXZ 1000be50 f   shaderlib:BaseShader.obj
 0001:0000af10       ??0CShaderDLL@@QAE@XZ      1000bf10 f   shaderlib:ShaderDLL.obj
 0001:0000af80       ?Connect@CShaderDLL@@UAE_NP6APAXPBDPAH@Z@Z 1000bf80 f   shaderlib:ShaderDLL.obj
 0001:0000afc0       ?Connect@CShaderDLL@@UAE_NP6APAXPBDPAH@Z_N@Z 1000bfc0 f   shaderlib:ShaderDLL.obj
 0001:0000b040       ?Disconnect@CShaderDLL@@UAEXXZ 1000c040 f   shaderlib:ShaderDLL.obj
 0001:0000b050       ?Disconnect@CShaderDLL@@UAEX_N@Z 1000c050 f   shaderlib:ShaderDLL.obj
 0001:0000b090       ?GetShader@CShaderDLL@@UAEPAVIShader@@H@Z 1000c090 f   shaderlib:ShaderDLL.obj
 0001:0000b0b0       ?GetShaderDLL@@YAPAVIShaderDLL@@XZ 1000c0b0 f   shaderlib:ShaderDLL.obj
 0001:0000b0f0       ?GetShaderDLLInternal@@YAPAVIShaderDLLInternal@@XZ 1000c0f0 f   shaderlib:ShaderDLL.obj
 0001:0000b130       ?Grow@?$CUtlMemory@PAVIShader@@H@@QAEXH@Z 1000c130 f i shaderlib:ShaderDLL.obj
 0001:0000b130       ?Grow@?$CUtlMemory@PAVCShaderParam@DEFERRED_MODEL@@H@@QAEXH@Z 1000c130 f i deferred_model.obj
 0001:0000b130       ?Grow@?$CUtlMemory@PAVCShaderParam@RADIOSITY_PROPAGATE@@H@@QAEXH@Z 1000c130 f i radiosity_propagate.obj
 0001:0000b130       ?Grow@?$CUtlMemory@PAVCShaderParam@LIGHTING_VOLUME@@H@@QAEXH@Z 1000c130 f i lighting_volume.obj
 0001:0000b130       ?Grow@?$CUtlMemory@PAVCShaderParam@LIGHTING_WORLD@@H@@QAEXH@Z 1000c130 f i lighting_world.obj
 0001:0000b130       ?Grow@?$CUtlMemory@PAVCShaderParam@DEFERRED_BRUSH@@H@@QAEXH@Z 1000c130 f i deferred_brush.obj
 0001:0000b130       ?Grow@?$CUtlMemory@PAVCShaderParam@DEFERRED_DECALMODULATE@@H@@QAEXH@Z 1000c130 f i deferred_decalModulate.obj
 0001:0000b130       ?Grow@?$CUtlMemory@PAVCShaderParam@GAUSSIAN_BLUR_6@@H@@QAEXH@Z 1000c130 f i blur.obj
 0001:0000b1d0       ?InsertShader@CShaderDLL@@UAEXPAVIShader@@@Z 1000c1d0 f   shaderlib:ShaderDLL.obj
 0001:0000b230       ?InitShaderLibCVars@@YAXP6APAXPBDPAH@Z@Z 1000c230 f   shaderlib:shaderlib_cvar.obj
 0001:0000b250       ?RegisterConCommandBase@CShaderLibConVarAccessor@@UAE_NPAVConCommandBase@@@Z 1000c250 f i shaderlib:shaderlib_cvar.obj
 0001:0000b2a1       ___onexitinit              1000c2a1 f   LIBCMT:onexit.obj
 0001:0000b2d0       __onexit                   1000c2d0 f   LIBCMT:onexit.obj
 0001:0000b3cc       _atexit                    1000c3cc f   LIBCMT:onexit.obj
 0001:0000b3f0       _fmod                      1000c3f0 f   LIBCMT:87fmod.obj
 0001:0000b3fa       __CIfmod                   1000c3fa f   LIBCMT:87fmod.obj
 0001:0000b412       __fpmath                   1000c412 f   LIBCMT:fpinit.obj
 0001:0000b429       __cfltcvt_init             1000c429 f   LIBCMT:fpinit.obj
 0001:0000b489       __purecall                 1000c489 f   LIBCMT:purevirt.obj
 0001:0000b4ab       ??1type_info@@UAE@XZ       1000c4ab f   LIBCMT:typinfo.obj
 0001:0000b4b9       ??_Etype_info@@UAEPAXI@Z   1000c4b9 f i LIBCMT:typinfo.obj
 0001:0000b4b9       ??_Gtype_info@@UAEPAXI@Z   1000c4b9 f i LIBCMT:typinfo.obj
 0001:0000b4d8       __get_printf_count_output  1000c4d8 f   LIBCMT:printf.obj
 0001:0000b4ed       _printf                    1000c4ed f   LIBCMT:printf.obj
 0001:0000b59c       ??0bad_alloc@std@@QAE@ABV01@@Z 1000c59c f i LIBCMT:new.obj
 0001:0000b5b7       ??1bad_alloc@std@@UAE@XZ   1000c5b7 f i LIBCMT:new.obj
 0001:0000b5c2       ??2@YAPAXI@Z               1000c5c2 f   LIBCMT:new.obj
 0001:0000b613       ??_Gbad_alloc@std@@UAEPAXI@Z 1000c613 f i LIBCMT:new.obj
 0001:0000b613       ??_Ebad_alloc@std@@UAEPAXI@Z 1000c613 f i LIBCMT:new.obj
 0001:0000b638       ??3@YAXPAX@Z               1000c638 f   LIBCMT:delete.obj
 0001:0000b640       _memcpy                    1000c640 f   LIBCMT:memcpy.obj
 0001:0000bc84       __CRT_INIT@12              1000cc84 f   LIBCMT:dllcrt0.obj
 0001:0000bdf6       __DllMainCRTStartup@12     1000cdf6 f   LIBCMT:dllcrt0.obj
 0001:0000bf27       ___DllXcptFilter           1000cf27 f   LIBCMT:dllcrt0.obj
 0001:0000bf4c       _sscanf                    1000cf4c f   LIBCMT:sscanf.obj
 0001:0000bfdd       ??0_LocaleUpdate@@QAE@PAUlocaleinfo_struct@@@Z 1000cfdd f i LIBCMT:atof.obj
 0001:0000c065       __atof_l                   1000d065 f   LIBCMT:atof.obj
 0001:0000c103       _atof                      1000d103 f   LIBCMT:atof.obj
 0001:0000c114       __vsnprintf                1000d114 f   LIBCMT:vsnprint.obj
 0001:0000c12f       __vsnprintf_l              1000d12f f   LIBCMT:vsnprint.obj
 0001:0000c1e0       __chkstk                   1000d1e0 f   LIBCMT:chkstk.obj
 0001:0000c1e0       __alloca_probe             1000d1e0 f   LIBCMT:chkstk.obj
 0001:0000c210       _strchr                    1000d210 f   LIBCMT:strchr.obj
 0001:0000c27e       ___from_strstr_to_strchr   1000d27e     LIBCMT:strchr.obj
 0001:0000c340       __alloca_probe_16          1000d340 f   LIBCMT:alloca16.obj
 0001:0000c356       __alloca_probe_8           1000d356     LIBCMT:alloca16.obj
 0001:0000c370       _strstr                    1000d370 f   LIBCMT:strstr.obj
 0001:0000c5d3       __tolower_l                1000d5d3 f   LIBCMT:tolower.obj
 0001:0000c716       _tolower                   1000d716 f   LIBCMT:tolower.obj
 0001:0000c750       __allmul                   1000d750 f   LIBCMT:llmul.obj
 0001:0000c790       _strncat                   1000d790 f   LIBCMT:strncat.obj
 0001:0000c8d0       _memset                    1000d8d0 f   LIBCMT:memset.obj
 0001:0000c960       _memmove                   1000d960 f   LIBCMT:memmove.obj
 0001:0000cfb0       _strncpy                   1000dfb0 f   LIBCMT:strncpy.obj
 0001:0000d0e0       __allrem                   1000e0e0 f   LIBCMT:llrem.obj
 0001:0000d1a0       __alldiv                   1000e1a0 f   LIBCMT:lldiv.obj
 0001:0000d250       _floor                     1000e250 f   LIBCMT:floor_pentium4.obj
 0001:0000d290       __floor_pentium4           1000e290 f   LIBCMT:floor_pentium4.obj
 0001:0000d380       _pow                       1000e380 f   LIBCMT:pow.obj
 0001:0000d3c0       __CIpow                    1000e3c0 f   LIBCMT:pow.obj
 0001:0000d3fb       __CIpow_default            1000e3fb f   LIBCMT:pow.obj
 0001:0000d414       __pow_default              1000e414     LIBCMT:pow.obj
 0001:0000d60a       ___libm_sse2_pow           1000e60a f   LIBCMT:pow_sse2.obj
 0001:0000e090       _acos                      1000f090 f   LIBCMT:acos.obj
 0001:0000e0d0       __CIacos                   1000f0d0 f   LIBCMT:acos.obj
 0001:0000e10b       __CIacos_default           1000f10b f   LIBCMT:acos.obj
 0001:0000e11f       __acos_default             1000f11f     LIBCMT:acos.obj
 0001:0000e1d6       ___libm_sse2_sin           1000f1d6 f   LIBCMT:sin_sse2.obj
 0001:0000e390       _asin                      1000f390 f   LIBCMT:asin.obj
 0001:0000e3d0       __CIasin                   1000f3d0 f   LIBCMT:asin.obj
 0001:0000e40b       __CIasin_default           1000f40b f   LIBCMT:asin.obj
 0001:0000e41f       __asin_default             1000f41f     LIBCMT:asin.obj
 0001:0000e4d6       ___crtCorExitProcess       1000f4d6 f   LIBCMT:crt0dat.obj
 0001:0000e50a       ___crtExitProcess          1000f50a f   LIBCMT:crt0dat.obj
 0001:0000e520       ___freeCrtMemory           1000f520 f   LIBCMT:crt0dat.obj
 0001:0000e62d       __amsg_exit                1000f62d f   LIBCMT:crt0dat.obj
 0001:0000e649       __cexit                    1000f649 f   LIBCMT:crt0dat.obj
 0001:0000e658       __cinit                    1000f658 f   LIBCMT:crt0dat.obj
 0001:0000e6dc       __exit                     1000f6dc f   LIBCMT:crt0dat.obj
 0001:0000e6f0       __init_pointers            1000f6f0 f   LIBCMT:crt0dat.obj
 0001:0000e75e       __initterm_e               1000f75e f   LIBCMT:crt0dat.obj
 0001:0000e780       __lockexit                 1000f780 f   LIBCMT:crt0dat.obj
 0001:0000e789       __unlockexit               1000f789 f   LIBCMT:crt0dat.obj
 0001:0000e8c1       __msize                    1000f8c1 f   LIBCMT:msize.obj
 0001:0000e8f2       __calloc_crt               1000f8f2 f   LIBCMT:crtheap.obj
 0001:0000e93a       __malloc_crt               1000f93a f   LIBCMT:crtheap.obj
 0001:0000e981       __realloc_crt              1000f981 f   LIBCMT:crtheap.obj
 0001:0000e9cb       __recalloc_crt             1000f9cb f   LIBCMT:crtheap.obj
 0001:0000ea20       __SEH_prolog4              1000fa20 f   LIBCMT:sehprolg4.obj
 0001:0000ea65       __SEH_epilog4              1000fa65 f   LIBCMT:sehprolg4.obj
 0001:0000ea80       __except_handler4          1000fa80 f   LIBCMT:chandler4.obj
 0001:0000ec20       __CIsqrt                   1000fc20 f   LIBCMT:sqrt.obj
 0001:0000ec34       _sqrt                      1000fc34     LIBCMT:sqrt.obj
 0001:0000ecda       __decomp                   1000fcda f   LIBCMT:util.obj
 0001:0000edac       __set_exp                  1000fdac f   LIBCMT:util.obj
 0001:0000eddb       __sptype                   1000fddb f   LIBCMT:util.obj
 0001:0000ee36       __errcode                  1000fe36 f   LIBCMT:fpexcept.obj
 0001:0000ee68       __except1                  1000fe68 f   LIBCMT:fpexcept.obj
 0001:0000ef30       __handle_exc               1000ff30 f   LIBCMT:fpexcept.obj
 0001:0000f10e       __handle_qnan1             1001010e f   LIBCMT:fpexcept.obj
 0001:0000f15e       __raise_exc                1001015e f   LIBCMT:fpexcept.obj
 0001:0000f17f       __raise_exc_ex             1001017f f   LIBCMT:fpexcept.obj
 0001:0000f464       __set_errno_from_matherr   10010464 f   LIBCMT:fpexcept.obj
 0001:0000f491       __umatherr                 10010491 f   LIBCMT:fpexcept.obj
 0001:0000f531       ___set_fpsr_sse2           10010531 f   LIBCMT:fpctrl.obj
 0001:0000f5a7       __clrfp                    100105a7 f   LIBCMT:fpctrl.obj
 0001:0000f5b8       __ctrlfp                   100105b8 f   LIBCMT:fpctrl.obj
 0001:0000f5e3       __set_statfp               100105e3 f   LIBCMT:fpctrl.obj
 0001:0000f63b       __statfp                   1001063b f   LIBCMT:fpctrl.obj
 0001:0000f650       __cintrindisp2             10010650 f   LIBCMT:87cdisp.obj
 0001:0000f68e       __cintrindisp1             1001068e f   LIBCMT:87cdisp.obj
 0001:0000f6cb       __ctrandisp2               100106cb f   LIBCMT:87cdisp.obj
 0001:0000f85a       __ctrandisp1               1001085a f   LIBCMT:87cdisp.obj
 0001:0000f88d       __fload                    1001088d f   LIBCMT:87cdisp.obj
 0001:0000f8d0       __trandisp1                100108d0 f   LIBCMT:87disp.obj
 0001:0000f937       __trandisp2                10010937 f   LIBCMT:87disp.obj
 0001:0000f9c3       __rttospopde               100109c3     LIBCMT:87disp.obj
 0001:0000f9c8       __rttospop                 100109c8     LIBCMT:87disp.obj
 0001:0000f9ca       __rtnospop                 100109ca     LIBCMT:87disp.obj
 0001:0000f9cc       __rttosnpop                100109cc     LIBCMT:87disp.obj
 0001:0000f9cd       __rtnospopde               100109cd     LIBCMT:87disp.obj
 0001:0000f9d4       __rtzeropop                100109d4     LIBCMT:87disp.obj
 0001:0000f9d6       __rtzeronpop               100109d6     LIBCMT:87disp.obj
 0001:0000f9db       __rtonepop                 100109db     LIBCMT:87disp.obj
 0001:0000f9dd       __rtonenpop                100109dd     LIBCMT:87disp.obj
 0001:0000f9e2       __tosnan1                  100109e2     LIBCMT:87disp.obj
 0001:0000fa0d       __nosnan2                  10010a0d     LIBCMT:87disp.obj
 0001:0000fa0f       __tosnan2                  10010a0f     LIBCMT:87disp.obj
 0001:0000fa37       __nan2                     10010a37     LIBCMT:87disp.obj
 0001:0000fa76       __rtindfpop                10010a76     LIBCMT:87disp.obj
 0001:0000fa78       __rtindfnpop               10010a78     LIBCMT:87disp.obj
 0001:0000fa89       __rttosnpopde              10010a89     LIBCMT:87disp.obj
 0001:0000fa93       __rtchsifneg               10010a93     LIBCMT:87disp.obj
 0001:0000fa9a       __cfltcvt                  10010a9a f   LIBCMT:cvt.obj
 0001:0000fabb       __cfltcvt_l                10010abb f   LIBCMT:cvt.obj
 0001:0000fb41       __cftoa_l                  10010b41 f   LIBCMT:cvt.obj
 0001:0000fe9d       __cftoe                    10010e9d f   LIBCMT:cvt.obj
 0001:0001000c       __cftoe_l                  1001100c f   LIBCMT:cvt.obj
 0001:000101c6       __cftof_l                  100111c6 f   LIBCMT:cvt.obj
 0001:00010287       __cftog_l                  10011287 f   LIBCMT:cvt.obj
 0001:00010386       __cropzeros                10011386 f   LIBCMT:cvt.obj
 0001:00010397       __cropzeros_l              10011397 f   LIBCMT:cvt.obj
 0001:00010417       __fassign                  10011417 f   LIBCMT:cvt.obj
 0001:0001042f       __fassign_l                1001142f f   LIBCMT:cvt.obj
 0001:00010471       __forcdecpt                10011471 f   LIBCMT:cvt.obj
 0001:00010482       __forcdecpt_l              10011482 f   LIBCMT:cvt.obj
 0001:000104f6       __positive                 100114f6 f   LIBCMT:cvt.obj
 0001:00010538       __setdefaultprecision      10011538 f   LIBCMT:fp8.obj
 0001:0001055f       __initp_misc_cfltcvt_tab   1001155f f   LIBCMT:cmiscdat.obj
 0001:0001057e       __set_abort_behavior       1001157e f   LIBCMT:abort.obj
 0001:0001059d       _abort                     1001159d f   LIBCMT:abort.obj
 0001:000105e0       __initp_misc_purevirt      100115e0 f   LIBCMT:inithelp.obj
 0001:000105f0       _strcmp                    100115f0 f   LIBCMT:strcmp.obj
 0001:0001067c       ?_Type_info_dtor@type_info@@CAXPAV1@@Z 1001167c f   LIBCMT:typname.obj
 0001:000106ed       __call_reportfault         100116ed f   LIBCMT:invarg.obj
 0001:00010812       __initp_misc_invarg        10011812 f   LIBCMT:invarg.obj
 0001:0001081f       __invalid_parameter        1001181f f   LIBCMT:invarg.obj
 0001:0001084a       __invalid_parameter_noinfo 1001184a f   LIBCMT:invarg.obj
 0001:0001085a       __invoke_watson            1001185a f   LIBCMT:invarg.obj
 0001:00010885       ___initstdio               10011885 f   LIBCMT:_file.obj
 0001:000108f8       ___endstdio                100118f8 f   LIBCMT:_file.obj
 0001:0001091f       ___iob_func                1001191f f   LIBCMT:_file.obj
 0001:00010925       __lock_file                10011925 f   LIBCMT:_file.obj
 0001:00010964       __lock_file2               10011964 f   LIBCMT:_file.obj
 0001:00010994       __unlock_file              10011994 f   LIBCMT:_file.obj
 0001:000109ce       __unlock_file2             100119ce f   LIBCMT:_file.obj
 0001:000109fb       __ftbuf                    100119fb f   LIBCMT:_sftbuf.obj
 0001:00010a2c       __stbuf                    10011a2c f   LIBCMT:_sftbuf.obj
 0001:00010ad2       __output_l                 10011ad2 f   LIBCMT:output.obj
 0001:0001173e       ___doserrno                1001273e f   LIBCMT:dosmap.obj
 0001:00011751       __dosmaperr                10012751 f   LIBCMT:dosmap.obj
 0001:00011772       __errno                    10012772 f   LIBCMT:dosmap.obj
 0001:00011785       __get_errno_from_oserr     10012785 f   LIBCMT:dosmap.obj
 0001:000117c6       _malloc                    100127c6 f   LIBCMT:malloc.obj
 0001:00011858       ??0exception@std@@QAE@ABQBDH@Z 10012858 f   LIBCMT:stdexcpt.obj
 0001:00011873       ??0exception@std@@QAE@ABV01@@Z 10012873 f   LIBCMT:stdexcpt.obj
 0001:00011896       ??1exception@std@@UAE@XZ   10012896 f   LIBCMT:stdexcpt.obj
 0001:000118a1       ??4exception@std@@QAEAAV01@ABV01@@Z 100128a1 f   LIBCMT:stdexcpt.obj
 0001:000118d4       ??_Eexception@std@@UAEPAXI@Z 100128d4 f i LIBCMT:stdexcpt.obj
 0001:000118d4       ??_Gexception@std@@UAEPAXI@Z 100128d4 f i LIBCMT:stdexcpt.obj
 0001:000118f9       ?_Copy_str@exception@std@@AAEXPBD@Z 100128f9 f   LIBCMT:stdexcpt.obj
 0001:00011937       ?_Tidy@exception@std@@AAEXXZ 10012937 f   LIBCMT:stdexcpt.obj
 0001:00011953       ?what@exception@std@@UBEPBDXZ 10012953 f   LIBCMT:stdexcpt.obj
 0001:00011960       __callnewh                 10012960 f   LIBCMT:handler.obj
 0001:00011986       __initp_heap_handler       10012986 f   LIBCMT:handler.obj
 0001:00011993       __CxxThrowException@8      10012993 f   LIBCMT:throw.obj
 0001:000119f6       _free                      100129f6 f   LIBCMT:free.obj
 0001:00011a2e       ___isa_available_init      10012a2e f   LIBCMT:cpu_disp.obj
 0001:00011ba7       __XcptFilter               10012ba7 f   LIBCMT:winxfltr.obj
 0001:00011d02       ___CppXcptFilter           10012d02 f   LIBCMT:winxfltr.obj
 0001:00011d20       __freefls@4                10012d20 f   LIBCMT:tidtable.obj
 0001:00011e55       __freeptd                  10012e55 f   LIBCMT:tidtable.obj
 0001:00011e8b       __getptd                   10012e8b f   LIBCMT:tidtable.obj
 0001:00011ea3       __getptd_noexit            10012ea3 f   LIBCMT:tidtable.obj
 0001:00011f12       __initptd                  10012f12 f   LIBCMT:tidtable.obj
 0001:00011fc5       __mtinit                   10012fc5 f   LIBCMT:tidtable.obj
 0001:0001203b       __mtterm                   1001303b f   LIBCMT:tidtable.obj
 0001:00012058       __heap_init                10013058 f   LIBCMT:heapinit.obj
 0001:0001206d       __heap_term                1001306d f   LIBCMT:heapinit.obj
 0001:00012075       __ioinit                   10013075 f   LIBCMT:ioinit.obj
 0001:00012329       __ioterm                   10013329 f   LIBCMT:ioinit.obj
 0001:0001237b       __setargv                  1001337b f   LIBCMT:stdargv.obj
 0001:000125aa       __setenvp                  100135aa f   LIBCMT:stdenvp.obj
 0001:0001268b       ___security_init_cookie    1001368b f   LIBCMT:gs_support.obj
 0001:00012727       _DllMain@12                10013727 f   LIBCMT:dllmain.obj
 0001:0001272d       ___crtGetEnvironmentStringsA 1001372d f   LIBCMT:a_env.obj
 0001:000127ba       ___crtFlsAlloc             100137ba f   LIBCMT:winapisupp.obj
 0001:000127d8       ___crtFlsFree              100137d8 f   LIBCMT:winapisupp.obj
 0001:000127f7       ___crtFlsGetValue          100137f7 f   LIBCMT:winapisupp.obj
 0001:00012816       ___crtFlsSetValue          10013816 f   LIBCMT:winapisupp.obj
 0001:00012838       ___crtInitializeCriticalSectionEx 10013838 f   LIBCMT:winapisupp.obj
 0001:00012866       ___crtIsPackagedApp        10013866 f   LIBCMT:winapisupp.obj
 0001:000128a6       ___crtLoadWinApiPointers   100138a6 f   LIBCMT:winapisupp.obj
 0001:00012b31       ___crtSleep                10013b31 f   LIBCMT:winapisupp.obj
 0001:00012b3f       ___crtTerminateProcess     10013b3f f   LIBCMT:winapisupp.obj
 0001:00012b54       ___crtUnhandledException   10013b54 f   LIBCMT:winapisupp.obj
 0001:00012b6a       __RTC_Initialize           10013b6a f   LIBCMT:initsect.obj
 0001:00012b8a       __RTC_Terminate            10013b8a f   LIBCMT:initsect.obj
 0001:00012bb0       _strlen                    10013bb0 f   LIBCMT:strlen.obj
 0001:00012cdd       __input_l                  10013cdd f   LIBCMT:input.obj
 0001:00013e5a       __fltin2                   10014e5a f   LIBCMT:cfin.obj
 0001:00013f01       ___strgtold12_l            10014f01 f   LIBCMT:strgtold.obj
 0001:000146a9       ___addlocaleref            100156a9 f   LIBCMT:localref.obj
 0001:0001473e       ___freetlocinfo            1001573e f   LIBCMT:localref.obj
 0001:00014898       ___removelocaleref         10015898 f   LIBCMT:localref.obj
 0001:00014938       ___updatetlocinfo          10015938 f   LIBCMT:localref.obj
 0001:000149b8       __updatetlocinfoEx_nolock  100159b8 f   LIBCMT:localref.obj
 0001:00014a03       ___initmbctable            10015a03 f   LIBCMT:mbctype.obj
 0001:00014cba       ___updatetmbcinfo          10015cba f   LIBCMT:mbctype.obj
 0001:00014d60       __setmbcp                  10015d60 f   LIBCMT:mbctype.obj
 0001:00014f08       __setmbcp_nolock           10015f08 f   LIBCMT:mbctype.obj
 0001:000150f3       __isctype_l                100160f3 f   LIBCMT:isctype.obj
 0001:000151a4       @__security_check_cookie@4 100161a4 f   LIBCMT:secchk.obj
 0001:000151b3       __flsbuf                   100161b3 f   LIBCMT:_flsbuf.obj
 0001:00015302       __isleadbyte_l             10016302 f i LIBCMT:_wctype.obj
 0001:0001533c       _isleadbyte                1001633c f i LIBCMT:_wctype.obj
 0001:00015551       ___crtLCMapStringA         10016551 f   LIBCMT:a_map.obj
 0001:00015597       __freea                    10016597 f i LIBCMT:a_map.obj
 0001:000155b5       __locterm                  100165b5 f   LIBCMT:wsetloca.obj
 0001:00015607       __VEC_memset               10016607 f   LIBCMT:p4_memset.obj
 0001:000156cf       ___crt_atoflt_l            100166cf f   LIBCMT:atodbl.obj
 0001:00015773       __atodbl_l                 10016773 f   LIBCMT:atodbl.obj
 0001:00015801       __atoflt_l                 10016801 f   LIBCMT:atodbl.obj
 0001:00015820       __aulldvrm                 10016820 f   LIBCMT:ulldvrm.obj
 0001:000158c0       ___libm_error_support      100168c0 f   LIBCMT:libm_error.obj
 0001:00015ba8       __sse2_mathfcns_init       10016ba8 f   LIBCMT:mathfcns.obj
 0001:00015bb7       __floor_default            10016bb7 f   LIBCMT:floor.obj
 0001:00015c90       __CIpow_pentium4           10016c90 f   LIBCMT:pow_pentium4.obj
 0001:00015ca9       __pow_pentium4             10016ca9     LIBCMT:pow_pentium4.obj
 0001:00016801       __fFEXP                    10017801     LIBCMT:87tran.obj
 0001:00016858       __rtinfpopse               10017858     LIBCMT:87tran.obj
 0001:0001685a       __rtinfnpopse              1001785a     LIBCMT:87tran.obj
 0001:0001686a       __fFLN                     1001786a     LIBCMT:87tran.obj
 0001:0001691f       __rtinfpop                 1001791f     LIBCMT:87tran.obj
 0001:00016921       __rtinfnpop                10017921     LIBCMT:87tran.obj
 0001:0001693e       __ffexpm1                  1001793e     LIBCMT:87tran.obj
 0001:000169f0       __startTwoArgErrorHandling 100179f0 f   LIBCMT:genexcep.obj
 0001:00016a07       __startOneArgErrorHandling 10017a07 f   LIBCMT:genexcep.obj
 0001:00016a50       __twoToTOS                 10017a50 f   LIBCMT:common.obj
 0001:00016a65       __load_CW                  10017a65 f   LIBCMT:common.obj
 0001:00016a7c       __convertTOStoQNaN         10017a7c f   LIBCMT:common.obj
 0001:00016a95       __fload_withFB             10017a95 f   LIBCMT:common.obj
 0001:00016ad8       __checkTOS_withFB          10017ad8 f   LIBCMT:common.obj
 0001:00016aee       __fast_exit                10017aee f   LIBCMT:common.obj
 0001:00016afb       __math_exit                10017afb f   LIBCMT:common.obj
 0001:00016b25       __check_overflow_exit      10017b25 f   LIBCMT:common.obj
 0001:00016b39       __check_range_exit         10017b39 f   LIBCMT:common.obj
 0001:00016bdc       __d_inttype                10017bdc f   LIBCMT:powhlp.obj
 0001:00016c44       __powhlp                   10017c44 f   LIBCMT:powhlp.obj
 0001:00016d80       __CIacos_pentium4          10017d80 f   LIBCMT:acos_pentium4.obj
 0001:00016d98       __acos_pentium4            10017d98     LIBCMT:acos_pentium4.obj
 0001:000172e0       _cos                       100182e0 f   LIBCMT:cos.obj
 0001:00017320       __CIcos                    10018320 f   LIBCMT:cos.obj
 0001:0001735b       __CIcos_default            1001835b f   LIBCMT:cos.obj
 0001:0001736f       __cos_default              1001836f     LIBCMT:cos.obj
 0001:00017410       _sin                       10018410 f   LIBCMT:sin.obj
 0001:00017450       __CIsin                    10018450 f   LIBCMT:sin.obj
 0001:0001748b       __CIsin_default            1001848b f   LIBCMT:sin.obj
 0001:0001749f       __sin_default              1001849f     LIBCMT:sin.obj
 0001:00017540       _tan                       10018540 f   LIBCMT:tan.obj
 0001:00017580       __CItan                    10018580 f   LIBCMT:tan.obj
 0001:000175bb       __CItan_default            100185bb f   LIBCMT:tan.obj
 0001:000175cf       __tan_default              100185cf     LIBCMT:tan.obj
 0001:00017670       __CIasin_pentium4          10018670 f   LIBCMT:asin_pentium4.obj
 0001:00017688       __asin_pentium4            10018688     LIBCMT:asin_pentium4.obj
 0001:00017bf0       __lock                     10018bf0 f   LIBCMT:mlock.obj
 0001:00017c24       __mtdeletelocks            10018c24 f   LIBCMT:mlock.obj
 0001:00017c78       __mtinitlocknum            10018c78 f   LIBCMT:mlock.obj
 0001:00017d21       __mtinitlocks              10018d21 f   LIBCMT:mlock.obj
 0001:00017d5a       __unlock                   10018d5a f   LIBCMT:mlock.obj
 0001:00017d6f       __FF_MSGBANNER             10018d6f f   LIBCMT:crt0msg.obj
 0001:00017da8       __GET_RTERRMSG             10018da8 f   LIBCMT:crt0msg.obj
 0001:00017dcc       __NMSG_WRITE               10018dcc f   LIBCMT:crt0msg.obj
 0001:00017f90       __FindPESection            10018f90 f   LIBCMT:pesect.obj
 0001:00017ff0       __IsNonwritableInCurrentImage 10018ff0 f   LIBCMT:pesect.obj
 0001:000180b0       __ValidateImageBase        100190b0 f   LIBCMT:pesect.obj
 0001:000180e1       ?terminate@@YAXXZ          100190e1 f   LIBCMT:hooks.obj
 0001:00018115       __initp_eh_hooks           10019115 f   LIBCMT:hooks.obj
 0001:00018126       ___get_sigabrt             10019126 f   LIBCMT:winsig.obj
 0001:00018133       __initp_misc_winsig        10019133 f   LIBCMT:winsig.obj
 0001:0001814f       _raise                     1001914f f   LIBCMT:winsig.obj
 0001:00018344       __initp_misc_rand_s        10019344 f   LIBCMT:rand_s.obj
 0001:00018351       _realloc                   10019351 f   LIBCMT:realloc.obj
 0001:000183fc       __recalloc                 100193fc f   LIBCMT:recalloc.obj
 0001:00018465       __calloc_impl              10019465 f   LIBCMT:calloc_impl.obj
 0001:000184e0       __local_unwind4            100194e0 f   LIBCMT:exsup4.obj
 0001:000185b6       __seh_longjmp_unwind4@4    100195b6 f   LIBCMT:exsup4.obj
 0001:000185d2       @_EH4_CallFilterFunc@8     100195d2 f   LIBCMT:exsup4.obj
 0001:000185e9       @_EH4_TransferToHandler@8  100195e9 f   LIBCMT:exsup4.obj
 0001:00018602       @_EH4_GlobalUnwind2@8      10019602 f   LIBCMT:exsup4.obj
 0001:0001861b       @_EH4_LocalUnwind@16       1001961b f   LIBCMT:exsup4.obj
 0001:00018632       __87except                 10019632 f   LIBCMT:87except.obj
 0001:0001873b       __isdigit_l                1001973b f i LIBCMT:_ctype.obj
 0001:0001878d       __isspace_l                1001978d f i LIBCMT:_ctype.obj
 0001:000187df       __isxdigit_l               100197df f i LIBCMT:_ctype.obj
 0001:00018837       _isdigit                   10019837 f i LIBCMT:_ctype.obj
 0001:00018862       _isspace                   10019862 f i LIBCMT:_ctype.obj
 0001:0001888d       _isxdigit                  1001988d f i LIBCMT:_ctype.obj
 0001:000188ba       _strcpy_s                  100198ba f   LIBCMT:strcpy_s.obj
 0001:00018910       _strrchr                   10019910 f   LIBCMT:strrchr.obj
 0001:00018a47       __fptostr                  10019a47 f   LIBCMT:_fptostr.obj
 0001:00018af7       ___dtold                   10019af7 f   LIBCMT:cfout.obj
 0001:00018bbf       __fltout2                  10019bbf f   LIBCMT:cfout.obj
 0001:00018c50       __alldvrm                  10019c50 f   LIBCMT:lldvrm.obj
 0001:00018d30       __aullshr                  10019d30 f   LIBCMT:ullshr.obj
 0001:00018d4f       __controlfp_s              10019d4f f   LIBCMT:contrlfp.obj
 0001:00018dac       __fptrap                   10019dac f   LIBCMT:crt0fp.obj
 0001:00018db5       _GetTableIndexFromLocaleName 10019db5 f   LIBCMT:winapinls.obj
 0001:00018e03       ___crtDownlevelLocaleNameToLCID 10019e03 f   LIBCMT:winapinls.obj
 0001:00018e2d       ___crtLCMapStringEx        10019e2d f   LIBCMT:winapinls.obj
 0001:00018e79       ___wcsnicmp_ascii          10019e79 f   LIBCMT:winapinls.obj
 0001:00018ee7       __crt_debugger_hook        10019ee7 f   LIBCMT:dbghook.obj
 0001:00018eef       __fcloseall                10019eef f   LIBCMT:closeall.obj
 0001:00018f8c       __fflush_nolock            10019f8c f   LIBCMT:fflush.obj
 0001:00018fd2       __flush                    10019fd2 f   LIBCMT:fflush.obj
 0001:00019036       __flushall                 1001a036 f   LIBCMT:fflush.obj
 0001:00019123       __fileno                   1001a123 f   LIBCMT:fileno.obj
 0001:00019147       __isatty                   1001a147 f   LIBCMT:isatty.obj
 0001:0001919b       __wctomb_s_l               1001a19b f   LIBCMT:wctomb.obj
 0001:000192bf       _wctomb_s                  1001a2bf f   LIBCMT:wctomb.obj
 0001:00019334       __ismbblead                1001a334 f   LIBCMT:ismbbyte.obj
 0001:0001934a       __filbuf                   1001a34a f   LIBCMT:_filbuf.obj
 0001:0001946b       __ungetc_nolock            1001a46b f   LIBCMT:ungetc.obj
 0001:0001954b       __mbtowc_l                 1001a54b f   LIBCMT:mbtowc.obj
 0001:00019640       _mbtowc                    1001a640 f   LIBCMT:mbtowc.obj
 0001:00019658       __ld12tod                  1001a658 f   LIBCMT:intrncvt.obj
 0001:00019bca       __ld12tof                  1001abca f   LIBCMT:intrncvt.obj
 0001:0001a13c       ___mtold12                 1001b13c f   LIBCMT:mantold.obj
 0001:0001a31c       ___free_lconv_mon          1001b31c f   LIBCMT:initmon.obj
 0001:0001a418       ___free_lconv_num          1001b418 f   LIBCMT:initnum.obj
 0001:0001a47f       ___free_lc_time            1001b47f f   LIBCMT:inittime.obj
 0001:0001a8f7       ___crtGetStringTypeA       1001b8f7 f   LIBCMT:a_str.obj
 0001:0001a937       ___raise_securityfailure   1001b937 f   LIBCMT:gs_report.obj
 0001:0001a974       ___report_gsfailure        1001b974 f   LIBCMT:gs_report.obj
 0001:0001aa6f       __write                    1001ba6f f   LIBCMT:write.obj
 0001:0001ab5e       __write_nolock             1001bb5e f   LIBCMT:write.obj
 0001:0001b3c3       __lseeki64                 1001c3c3 f   LIBCMT:lseeki64.obj
 0001:0001b4bf       __lseeki64_nolock          1001c4bf f   LIBCMT:lseeki64.obj
 0001:0001b532       __getbuf                   1001c532 f   LIBCMT:_getbuf.obj
 0001:0001b578       _wcscat_s                  1001c578 f   LIBCMT:wcscat_s.obj
 0001:0001b5e4       _wcscpy_s                  1001c5e4 f   LIBCMT:wcscpy_s.obj
 0001:0001b640       _wcslen                    1001c640 f   LIBCMT:wcslen.obj
 0001:0001b659       _wcsncpy_s                 1001c659 f   LIBCMT:wcsncpy_s.obj
 0001:0001b717       __frnd                     1001c717 f   LIBCMT:frnd.obj
 0001:0001b72b       __fpclass                  1001c72b f   LIBCMT:ieeemisc.obj
 0001:0001b7d0       __CIcos_pentium4           1001c7d0 f   LIBCMT:cos_pentium4.obj
 0001:0001b7e8       __cos_pentium4             1001c7e8     LIBCMT:cos_pentium4.obj
 0001:0001b980       __CIsin_pentium4           1001c980 f   LIBCMT:sin_pentium4.obj
 0001:0001b998       __sin_pentium4             1001c998     LIBCMT:sin_pentium4.obj
 0001:0001bb50       __CItan_pentium4           1001cb50 f   LIBCMT:tan_pentium4.obj
 0001:0001bb68       __tan_pentium4             1001cb68     LIBCMT:tan_pentium4.obj
 0001:0001bdb0       __set_error_mode           1001cdb0 f   LIBCMT:errmode.obj
 0001:0001bdf0       ___crtMessageBoxW          1001cdf0 f   LIBCMT:crtmboxw.obj
 0001:0001bfe0       __global_unwind2           1001cfe0 f   LIBCMT:exsup.obj
 0001:0001c045       __local_unwind2            1001d045 f   LIBCMT:exsup.obj
 0001:0001c0c9       __abnormal_termination     1001d0c9 f   LIBCMT:exsup.obj
 0001:0001c0ec       __NLG_Notify1              1001d0ec f   LIBCMT:exsup.obj
 0001:0001c0f5       __NLG_Notify               1001d0f5 f   LIBCMT:exsup.obj
 0001:0001c10c       __NLG_Dispatch             1001d10c     LIBCMT:exsup.obj
 0001:0001c10c       __NLG_Dispatch2            1001d10c     LIBCMT:exsup.obj
 0001:0001c114       __NLG_Call                 1001d114 f   LIBCMT:exsup.obj
 0001:0001c116       __NLG_Return2              1001d116     LIBCMT:exsup.obj
 0001:0001c117       _$I10_OUTPUT               1001d117 f   LIBCMT:x10fout.obj
 0001:0001cb94       __control87                1001db94 f i LIBCMT:ieee87.obj
 0001:0001cf2d       __fclose_nolock            1001df2d f   LIBCMT:fclose.obj
 0001:0001cf99       _fclose                    1001df99 f   LIBCMT:fclose.obj
 0001:0001d010       __commit                   1001e010 f   LIBCMT:commit.obj
 0001:0001d0f9       __read                     1001e0f9 f   LIBCMT:read.obj
 0001:0001d20d       __read_nolock              1001e20d f   LIBCMT:read.obj
 0001:0001d99e       ___lock_fhandle            1001e99e f   LIBCMT:osfinfo.obj
 0001:0001da2c       __free_osfhnd              1001ea2c f   LIBCMT:osfinfo.obj
 0001:0001dab2       __get_osfhandle            1001eab2 f   LIBCMT:osfinfo.obj
 0001:0001db19       __unlock_fhandle           1001eb19 f   LIBCMT:osfinfo.obj
 0001:0001db3f       __putwch_nolock            1001eb3f f   LIBCMT:putwch.obj
 0001:0001db82       __close                    1001eb82 f   LIBCMT:close.obj
 0001:0001dc5d       __close_nolock             1001ec5d f   LIBCMT:close.obj
 0001:0001dcf7       __freebuf                  1001ecf7 f   LIBCMT:_freebuf.obj
 0001:0001dd27       ___termconout              1001ed27 f   LIBCMT:initcon.obj
 0001:0001dd3e       ___initconout              1001ed3e f   LIBCMT:initcon.obj
 0001:0001dd5e       _IsProcessorFeaturePresent@4 1001ed5e f   kernel32:KERNEL32.dll
 0001:0001dd64       _RtlUnwind@16              1001ed64 f   kernel32:KERNEL32.dll
 0002:00000000       __imp__MultiByteToWideChar@24 10020000     kernel32:KERNEL32.dll
 0002:00000004       __imp__WideCharToMultiByte@32 10020004     kernel32:KERNEL32.dll
 0002:00000008       __imp__GetProcAddress@8    10020008     kernel32:KERNEL32.dll
 0002:0000000c       __imp__GetCurrentProcessId@0 1002000c     kernel32:KERNEL32.dll
 0002:00000010       __imp__CloseHandle@4       10020010     kernel32:KERNEL32.dll
 0002:00000014       __imp__WriteConsoleW@20    10020014     kernel32:KERNEL32.dll
 0002:00000018       __imp__SetStdHandle@8      10020018     kernel32:KERNEL32.dll
 0002:0000001c       __imp__ReadConsoleW@20     1002001c     kernel32:KERNEL32.dll
 0002:00000020       __imp__ReadFile@20         10020020     kernel32:KERNEL32.dll
 0002:00000024       __imp__FlushFileBuffers@4  10020024     kernel32:KERNEL32.dll
 0002:00000028       __imp__OutputDebugStringW@4 10020028     kernel32:KERNEL32.dll
 0002:0000002c       __imp__SetFilePointerEx@20 1002002c     kernel32:KERNEL32.dll
 0002:00000030       __imp__GetConsoleMode@8    10020030     kernel32:KERNEL32.dll
 0002:00000034       __imp__GetConsoleCP@0      10020034     kernel32:KERNEL32.dll
 0002:00000038       __imp__GetStringTypeW@16   10020038     kernel32:KERNEL32.dll
 0002:0000003c       __imp__LCMapStringW@24     1002003c     kernel32:KERNEL32.dll
 0002:00000040       __imp__EncodePointer@4     10020040     kernel32:KERNEL32.dll
 0002:00000044       __imp__DecodePointer@4     10020044     kernel32:KERNEL32.dll
 0002:00000048       __imp__GetCommandLineA@0   10020048     kernel32:KERNEL32.dll
 0002:0000004c       __imp__GetCurrentThreadId@0 1002004c     kernel32:KERNEL32.dll
 0002:00000050       __imp__GetLastError@0      10020050     kernel32:KERNEL32.dll
 0002:00000054       __imp__ExitProcess@4       10020054     kernel32:KERNEL32.dll
 0002:00000058       __imp__GetModuleHandleExW@12 10020058     kernel32:KERNEL32.dll
 0002:0000005c       __imp__HeapSize@12         1002005c     kernel32:KERNEL32.dll
 0002:00000060       __imp__RaiseException@16   10020060     kernel32:KERNEL32.dll
 0002:00000064       __imp__IsProcessorFeaturePresent@4 10020064     kernel32:KERNEL32.dll
 0002:00000068       __imp__IsDebuggerPresent@0 10020068     kernel32:KERNEL32.dll
 0002:0000006c       __imp__EnterCriticalSection@4 1002006c     kernel32:KERNEL32.dll
 0002:00000070       __imp__LeaveCriticalSection@4 10020070     kernel32:KERNEL32.dll
 0002:00000074       __imp__HeapAlloc@12        10020074     kernel32:KERNEL32.dll
 0002:00000078       __imp__HeapFree@12         10020078     kernel32:KERNEL32.dll
 0002:0000007c       __imp__SetLastError@4      1002007c     kernel32:KERNEL32.dll
 0002:00000080       __imp__GetProcessHeap@0    10020080     kernel32:KERNEL32.dll
 0002:00000084       __imp__GetStdHandle@4      10020084     kernel32:KERNEL32.dll
 0002:00000088       __imp__GetFileType@4       10020088     kernel32:KERNEL32.dll
 0002:0000008c       __imp__DeleteCriticalSection@4 1002008c     kernel32:KERNEL32.dll
 0002:00000090       __imp__GetStartupInfoW@4   10020090     kernel32:KERNEL32.dll
 0002:00000094       __imp__GetModuleFileNameA@12 10020094     kernel32:KERNEL32.dll
 0002:00000098       __imp__QueryPerformanceCounter@4 10020098     kernel32:KERNEL32.dll
 0002:0000009c       __imp__GetSystemTimeAsFileTime@4 1002009c     kernel32:KERNEL32.dll
 0002:000000a0       __imp__GetEnvironmentStringsW@0 100200a0     kernel32:KERNEL32.dll
 0002:000000a4       __imp__FreeEnvironmentStringsW@4 100200a4     kernel32:KERNEL32.dll
 0002:000000a8       __imp__UnhandledExceptionFilter@4 100200a8     kernel32:KERNEL32.dll
 0002:000000ac       __imp__SetUnhandledExceptionFilter@4 100200ac     kernel32:KERNEL32.dll
 0002:000000b0       __imp__InitializeCriticalSectionAndSpinCount@8 100200b0     kernel32:KERNEL32.dll
 0002:000000b4       __imp__Sleep@4             100200b4     kernel32:KERNEL32.dll
 0002:000000b8       __imp__GetCurrentProcess@0 100200b8     kernel32:KERNEL32.dll
 0002:000000bc       __imp__TerminateProcess@8  100200bc     kernel32:KERNEL32.dll
 0002:000000c0       __imp__TlsAlloc@0          100200c0     kernel32:KERNEL32.dll
 0002:000000c4       __imp__TlsGetValue@4       100200c4     kernel32:KERNEL32.dll
 0002:000000c8       __imp__TlsSetValue@8       100200c8     kernel32:KERNEL32.dll
 0002:000000cc       __imp__TlsFree@4           100200cc     kernel32:KERNEL32.dll
 0002:000000d0       __imp__GetModuleHandleW@4  100200d0     kernel32:KERNEL32.dll
 0002:000000d4       __imp__IsValidCodePage@4   100200d4     kernel32:KERNEL32.dll
 0002:000000d8       __imp__GetACP@0            100200d8     kernel32:KERNEL32.dll
 0002:000000dc       __imp__GetOEMCP@0          100200dc     kernel32:KERNEL32.dll
 0002:000000e0       __imp__GetCPInfo@8         100200e0     kernel32:KERNEL32.dll
 0002:000000e4       __imp__WriteFile@20        100200e4     kernel32:KERNEL32.dll
 0002:000000e8       __imp__GetModuleFileNameW@12 100200e8     kernel32:KERNEL32.dll
 0002:000000ec       __imp__LoadLibraryExW@12   100200ec     kernel32:KERNEL32.dll
 0002:000000f0       __imp__HeapReAlloc@16      100200f0     kernel32:KERNEL32.dll
 0002:000000f4       __imp__RtlUnwind@16        100200f4     kernel32:KERNEL32.dll
 0002:000000f8       __imp__CreateFileW@28      100200f8     kernel32:KERNEL32.dll
 0002:000000fc       \177KERNEL32_NULL_THUNK_DATA 100200fc     kernel32:KERNEL32.dll
 0002:00000100       __imp__GetCPUInformation   10020100     tier0:tier0.dll
 0002:00000104       __imp___AssertValidReadPtr 10020104     tier0:tier0.dll
 0002:00000108       __imp___AssertValidWritePtr 10020108     tier0:tier0.dll
 0002:0000010c       __imp__Error               1002010c     tier0:tier0.dll
 0002:00000110       __imp__AssertValidStringPtr 10020110     tier0:tier0.dll
 0002:00000114       __imp__Warning             10020114     tier0:tier0.dll
 0002:00000118       __imp__g_pMemAlloc         10020118     tier0:tier0.dll
 0002:0000011c       \177tier0_NULL_THUNK_DATA  1002011c     tier0:tier0.dll
 0002:00000120       ___xc_a                    10020120     LIBCMT:crt0init.obj
 0002:000002d8       ___xc_z                    100202d8     LIBCMT:crt0init.obj
 0002:000002dc       ___xi_a                    100202dc     LIBCMT:crt0init.obj
 0002:000002f4       ___xi_z                    100202f4     LIBCMT:crt0init.obj
 0002:000002f8       ___xp_a                    100202f8     LIBCMT:crt0init.obj
 0002:00000308       ___xp_z                    10020308     LIBCMT:crt0init.obj
 0002:0000030c       ___xt_a                    1002030c     LIBCMT:crt0init.obj
 0002:00000310       ___xt_z                    10020310     LIBCMT:crt0init.obj
 0002:00000380       ??_C@_01GBGANLPD@0?$AA@    10020380     BaseVSShader.obj
 0002:00000384       ??_C@_0P@EDPJKOMO@mat_fullbright?$AA@ 10020384     BaseVSShader.obj
 0002:00000394       __real@3f000000            10020394     BaseVSShader.obj
 0002:00000398       __real@3f800000            10020398     BaseVSShader.obj
 0002:0000039c       __real@40000000            1002039c     BaseVSShader.obj
 0002:000003a0       __xmm@0000000000000000000000003f800000 100203a0     BaseVSShader.obj
 0002:000003b0       __xmm@00000000000000003f80000000000000 100203b0     BaseVSShader.obj
 0002:000003c0       ??_C@_00CNPNBAHC@?$AA@     100203c0     blur.obj
 0002:000003c4       ??_C@_0BA@HNOAMPCF@GAUSSIAN_BLUR_6?$AA@ 100203c4     blur.obj
 0002:000003d8       ??_C@_0M@NCINKPCJ@$ISVERTICAL?$AA@ 100203d8     blur.obj
 0002:000003e8       ??_7CShader@GAUSSIAN_BLUR_6@@6B@ 100203e8     blur.obj
 0002:00000424       ??_C@_0BB@DDHMNDHA@screenspace_vs30?$AA@ 10020424     blur.obj
 0002:00000438       ??_C@_0BE@CMFBLPFG@gaussianblur_6_ps30?$AA@ 10020438     blur.obj
 0002:0000044c       __real@40800000            1002044c     blur.obj
 0002:00000450       ??_C@_0BE@GDIKMFPM@DEBUG_LIGHTING_CTRL?$AA@ 10020450     debug_lightingctrl.obj
 0002:0000046c       ??_7CShader@DEBUG_LIGHTING_CTRL@@6B@ 1002046c     debug_lightingctrl.obj
 0002:000004a8       ??_C@_0BC@DEGIJMBN@USEWORLDTRANSFORM?$AA@ 100204a8     debug_lightingctrl.obj
 0002:000004bc       ??_C@_0BN@JCCCKFAK@?6?5?5?5VS?5stat?5var?5?$CFs?5?$DN?5?$CFd?5?$CI?$CFs?$CJ?$AA@ 100204bc     debug_lightingctrl.obj
 0002:000004dc       ??_C@_0N@FJBEEMCH@SENDWORLDPOS?$AA@ 100204dc     debug_lightingctrl.obj
 0002:000004ec       ??_C@_0BC@PMEMINIB@defconstruct_vs30?$AA@ 100204ec     debug_lightingctrl.obj
 0002:00000500       ??_C@_0BJ@OOFDLNIL@debug_lighting_ctrl_ps30?$AA@ 10020500     debug_lightingctrl.obj
 0002:0000051c       ??_C@_0BF@IBBLNGJC@DEBUG_RADIOSITY_GRID?$AA@ 1002051c     debug_radiosity_grid.obj
 0002:0000053c       ??_7CShader@DEBUG_RADIOSITY_GRID@@6B@ 1002053c     debug_radiosity_grid.obj
 0002:00000578       ??_C@_0BK@JHMFPPLN@debug_radiosity_grid_vs30?$AA@ 10020578     debug_radiosity_grid.obj
 0002:00000594       ??_C@_0BK@BIIFAKBN@debug_radiosity_grid_ps30?$AA@ 10020594     debug_radiosity_grid.obj
 0002:000005b0       ??_C@_0N@MMHMCEPA@DEBUG_SHADOW?$AA@ 100205b0     debug_shadow.obj
 0002:000005c8       ??_7CShader@DEBUG_SHADOW@@6B@ 100205c8     debug_shadow.obj
 0002:00000604       ??_C@_0BI@LHFNJANB@debug_shadow_ortho_ps30?$AA@ 10020604     debug_shadow.obj
 0002:0000061c       ??_C@_0P@MDKPEJCF@DEFERRED_BRUSH?$AA@ 1002061c     deferred_brush.obj
 0002:00000634       ??_7CBasePerMaterialContextData@@6B@ 10020634     deferred_brush.obj
 0002:0000063c       ??_7CDeferredPerMaterialContextData@@6B@ 1002063c     deferred_brush.obj
 0002:00000640       ??_C@_08PFPGNHEE@$BUMPMAP?$AA@ 10020640     deferred_brush.obj
 0002:0000064c       ??_C@_07GDNPHCDH@$SSBUMP?$AA@ 1002064c     deferred_brush.obj
 0002:00000654       ??_C@_08PFJMIPHP@$LITFACE?$AA@ 10020654     deferred_brush.obj
 0002:00000660       ??_C@_0N@BOPHEENG@$PHONG_SCALE?$AA@ 10020660     deferred_brush.obj
 0002:00000670       ??_C@_0L@EGCKKDOJ@$PHONG_EXP?$AA@ 10020670     deferred_brush.obj
 0002:0000067c       ??_C@_0M@DEOACEAO@$PHONG_EXP2?$AA@ 1002067c     deferred_brush.obj
 0002:00000688       ??_C@_0L@JAGJBDPJ@$PHONG_MAP?$AA@ 10020688     deferred_brush.obj
 0002:00000694       ??_C@_0P@NHJMNLLE@$PHONG_FRESNEL?$AA@ 10020694     deferred_brush.obj
 0002:000006a4       ??_C@_0P@KPGJKCOD@$FRESNELRANGES?$AA@ 100206a4     deferred_brush.obj
 0002:000006b4       ??_C@_0BE@GEDBJHGM@$ALPHATESTREFERENCE?$AA@ 100206b4     deferred_brush.obj
 0002:000006c8       ??_C@_06FABHMPLJ@envmap?$AA@ 100206c8     deferred_brush.obj
 0002:000006d0       ??_C@_0BK@PAPJFBHL@shadertest?1shadertest_env?$AA@ 100206d0     deferred_brush.obj
 0002:000006ec       ??_C@_07NBEOHNNA@$ENVMAP?$AA@ 100206ec     deferred_brush.obj
 0002:000006f4       ??_C@_0M@NEOBNNPM@envmap?5tint?$AA@ 100206f4     deferred_brush.obj
 0002:00000700       ??_C@_07INOGPGGA@?$FL1?51?51?$FN?$AA@ 10020700     deferred_brush.obj
 0002:00000708       ??_C@_0M@GKAPIEHF@$ENVMAPTINT?$AA@ 10020708     deferred_brush.obj
 0002:00000714       ??_C@_0CG@CIFJOHKP@contrast?50?5?$DN?$DN?5normal?51?5?$DN?$DN?5color?$CK@ 10020714     deferred_brush.obj
 0002:0000073c       ??_C@_03MDAFIFFL@0?40?$AA@ 1002073c     deferred_brush.obj
 0002:00000740       ??_C@_0BA@EPLKPKAO@$ENVMAPCONTRAST?$AA@ 10020740     deferred_brush.obj
 0002:00000750       ??_C@_0CG@MHHCDKGK@saturation?50?5?$DN?$DN?5greyscale?51?5?$DN?$DN?5n@ 10020750     deferred_brush.obj
 0002:00000778       ??_C@_03HLLJOCDO@1?40?$AA@ 10020778     deferred_brush.obj
 0002:0000077c       ??_C@_0BC@IDPPLOBL@$ENVMAPSATURATION?$AA@ 1002077c     deferred_brush.obj
 0002:00000790       ??_C@_0M@KFABDOFN@envmap?5mask?$AA@ 10020790     deferred_brush.obj
 0002:0000079c       ??_C@_0BO@JLAFIMAN@shadertest?1shadertest_envmask?$AA@ 1002079c     deferred_brush.obj
 0002:000007bc       ??_C@_0M@BLOPGHNE@$ENVMAPMASK?$AA@ 100207bc     deferred_brush.obj
 0002:000007c8       ??_C@_0BH@DBOPOPED@Self?9illumination?5tint?$AA@ 100207c8     deferred_brush.obj
 0002:000007e0       ??_C@_0P@LDIFNAJJ@$SELFILLUMTINT?$AA@ 100207e0     deferred_brush.obj
 0002:000007f0       ??_C@_0DM@OEILIDHN@defines?5that?5self?5illum?5value?5co@ 100207f0     deferred_brush.obj
 0002:0000082c       ??_C@_0BM@EFKJOJDH@$SELFILLUM_ENVMAPMASK_ALPHA?$AA@ 1002082c     deferred_brush.obj
 0002:00000848       ??_C@_0BD@LKKACLAB@Self?5illum?5fresnel?$AA@ 10020848     deferred_brush.obj
 0002:0000085c       ??_C@_0BC@DMNOIDOB@$SELFILLUMFRESNEL?$AA@ 1002085c     deferred_brush.obj
 0002:00000870       ??_C@_0EL@ILCJJFMK@If?5we?5bind?5a?5texture?5here?0?5it?5ov@ 10020870     deferred_brush.obj
 0002:000008bc       ??_C@_0BH@JAMKOLPG@shadertest?1BaseTexture?$AA@ 100208bc     deferred_brush.obj
 0002:000008d4       ??_C@_0P@MCGFDDDI@$SELFILLUMMASK?$AA@ 100208d4     deferred_brush.obj
 0002:000008e4       ??_C@_0O@NGGEHEEP@$BASETEXTURE2?$AA@ 100208e4     deferred_brush.obj
 0002:000008f4       ??_C@_09JMDECHCP@$BUMPMAP2?$AA@ 100208f4     deferred_brush.obj
 0002:00000900       ??_C@_0N@GMNFKNNL@$ENVMAPMASK2?$AA@ 10020900     deferred_brush.obj
 0002:00000910       ??_C@_0DA@LMGJHLKK@texture?5to?5use?5r?1g?5channels?5for?5@ 10020910     deferred_brush.obj
 0002:00000940       ??_C@_0BG@IMDJIJHP@$BLENDMODULATETEXTURE?$AA@ 10020940     deferred_brush.obj
 0002:00000958       ??_C@_0CJ@COBOOGPN@$blendmodulatetexture?5texcoord?5t@ 10020958     deferred_brush.obj
 0002:00000984       ??_C@_0CO@CGOPOACG@center?5?45?5?45?5scale?51?51?5rotate?50?5@ 10020984     deferred_brush.obj
 0002:000009b4       ??_C@_0BE@FNNNKFKP@$BLENDMASKTRANSFORM?$AA@ 100209b4     deferred_brush.obj
 0002:000009c8       ??_C@_0M@HIONGBJN@$MULTIBLEND?$AA@ 100209c8     deferred_brush.obj
 0002:000009d4       ??_C@_0O@MPHPEFAO@$BASETEXTURE3?$AA@ 100209d4     deferred_brush.obj
 0002:000009e4       ??_C@_0O@IADONDMJ@$BASETEXTURE4?$AA@ 100209e4     deferred_brush.obj
 0002:000009f4       ??_C@_09IFCPBGGO@$BUMPMAP3?$AA@ 100209f4     deferred_brush.obj
 0002:00000a00       ??_C@_09MKGOIAKJ@$BUMPMAP4?$AA@ 10020a00     deferred_brush.obj
 0002:00000a0c       ??_C@_0BH@CNEGABFF@$BLENDMODULATETEXTURE2?$AA@ 10020a0c     deferred_brush.obj
 0002:00000a24       ??_C@_0BH@DEFNDABE@$BLENDMODULATETEXTURE3?$AA@ 10020a24     deferred_brush.obj
 0002:00000a3c       ??_C@_0BF@KLEEDHKN@$BLENDMASKTRANSFORM2?$AA@ 10020a3c     deferred_brush.obj
 0002:00000a54       ??_C@_0BF@LCFPAGOM@$BLENDMASKTRANSFORM3?$AA@ 10020a54     deferred_brush.obj
 0002:00000a70       ??_7CShader@DEFERRED_BRUSH@@6B@ 10020a70     deferred_brush.obj
 0002:00000aac       ??_C@_0L@EENFMOFI@MultiBlend?$AA@ 10020aac     deferred_brush.obj
 0002:00000ab8       ??_C@_0BD@FHIKDCGP@LightmappedGeneric?$AA@ 10020ab8     deferred_brush.obj
 0002:00000ad0       ??_C@_0BH@GAGPFIPD@DEFERRED_DECALMODULATE?$AA@ 10020ad0     deferred_decalModulate.obj
 0002:00000ae8       ??_C@_0BL@IOBOMOOF@exponent?5to?5tweak?5fog?5fade?$AA@ 10020ae8     deferred_decalModulate.obj
 0002:00000b04       ??_C@_03KHGJEAFP@0?44?$AA@ 10020b04     deferred_decalModulate.obj
 0002:00000b08       ??_C@_0N@EFADPCHG@$FOGEXPONENT?$AA@ 10020b08     deferred_decalModulate.obj
 0002:00000b18       ??_C@_0BI@KDHAFPHD@scale?5to?5tweak?5fog?5fade?$AA@ 10020b18     deferred_decalModulate.obj
 0002:00000b30       ??_C@_09MEDFHNGE@$FOGSCALE?$AA@ 10020b30     deferred_decalModulate.obj
 0002:00000b40       ??_7CShader@DEFERRED_DECALMODULATE@@6B@ 10020b40     deferred_decalModulate.obj
 0002:00000b7c       ??_C@_0BA@JNFKMELP@bHasVertexAlpha?$AA@ 10020b7c     deferred_decalModulate.obj
 0002:00000b8c       ??_C@_0M@GCINPLHD@VERTEXCOLOR?$AA@ 10020b8c     deferred_decalModulate.obj
 0002:00000b98       ??_C@_0BK@OMHDPHIH@nLightingPreviewMode?5?$CB?$DN?50?$AA@ 10020b98     deferred_decalModulate.obj
 0002:00000bb4       ??_C@_0BB@HDAGCPJB@LIGHTING_PREVIEW?$AA@ 10020bb4     deferred_decalModulate.obj
 0002:00000bc8       ??_C@_0BD@NJAEIHLO@decalmodulate_vs20?$AA@ 10020bc8     deferred_decalModulate.obj
 0002:00000bdc       ??_C@_0M@BGIKJPJI@VERTEXALPHA?$AA@ 10020bdc     deferred_decalModulate.obj
 0002:00000be8       ??_C@_0BN@PJPJMJKM@?6?5?5?5PS?5stat?5var?5?$CFs?5?$DN?5?$CFd?5?$CI?$CFs?$CJ?$AA@ 10020be8     deferred_decalModulate.obj
 0002:00000c08       ??_C@_0BE@KNJCHADE@decalmodulate_ps20b?$AA@ 10020c08     deferred_decalModulate.obj
 0002:00000c1c       ??_C@_0BD@FGEEHCBO@decalmodulate_ps20?$AA@ 10020c1c     deferred_decalModulate.obj
 0002:00000c30       ??_C@_0BD@NIMGONIJ@decalmodulate_vs30?$AA@ 10020c30     deferred_decalModulate.obj
 0002:00000c44       ??_C@_0BD@FHIGBICJ@decalmodulate_ps30?$AA@ 10020c44     deferred_decalModulate.obj
 0002:00000c58       ??_C@_08GPMJLHI@SKINNING?$AA@ 10020c58     deferred_decalModulate.obj
 0002:00000c64       ??_C@_0BN@DNGAPFLJ@?6?5?5?5VS?5dyn?5?5var?5?$CFs?5?$DN?5?$CFd?5?$CI?$CFs?$CJ?$AA@ 10020c64     deferred_decalModulate.obj
 0002:00000c84       ??_C@_0BH@HMAIIFCO@?$CIint?$CJvertexCompression?$AA@ 10020c84     deferred_decalModulate.obj
 0002:00000c9c       ??_C@_0BB@MGGDMHKK@COMPRESSED_VERTS?$AA@ 10020c9c     deferred_decalModulate.obj
 0002:00000cb0       ??_C@_0CF@CFOAJJEH@pShaderAPI?9?$DOGetCurrentNumBones?$CI?$CJ@ 10020cb0     deferred_decalModulate.obj
 0002:00000cd8       ??_C@_0P@DOOLICPP@DEFERRED_MODEL?$AA@ 10020cd8     deferred_model.obj
 0002:00000cec       ??_C@_03LOHCHBBO@0?45?$AA@ 10020cec     deferred_model.obj
 0002:00000cf0       ??_C@_0P@EPJMFIJC@$ENVMAPFRESNEL?$AA@ 10020cf0     deferred_model.obj
 0002:00000d00       ??_C@_0BF@BFOOEHP@enables?5rim?5lighting?$AA@ 10020d00     deferred_model.obj
 0002:00000d18       ??_C@_09JOINEECP@$RIMLIGHT?$AA@ 10020d18     deferred_model.obj
 0002:00000d24       ??_C@_0BI@ILNFICKJ@Exponent?5for?5rim?5lights?$AA@ 10020d24     deferred_model.obj
 0002:00000d3c       ??_C@_03EMGHBCAM@4?40?$AA@ 10020d3c     deferred_model.obj
 0002:00000d40       ??_C@_0BC@HMMNDGGP@$RIMLIGHTEXPONENT?$AA@ 10020d40     deferred_model.obj
 0002:00000d54       ??_C@_0BO@LCOBGEOD@Albedo?5influence?5on?5rim?5light?$AA@ 10020d54     deferred_model.obj
 0002:00000d74       ??_C@_0BF@LAABNIJ@$RIMLIGHTALBEDOSCALE?$AA@ 10020d74     deferred_model.obj
 0002:00000d8c       ??_C@_0BE@GGCGFFDO@Tint?5for?5rim?5lights?$AA@ 10020d8c     deferred_model.obj
 0002:00000da0       ??_C@_0O@JJAEIEBH@$RIMLIGHTTINT?$AA@ 10020da0     deferred_model.obj
 0002:00000db0       ??_C@_0BP@EMFNPGAG@Modulate?5rimlight?5by?5lighting?4?$AA@ 10020db0     deferred_model.obj
 0002:00000dd0       ??_C@_0BM@IAGOGHJF@$RIMLIGHT_MODULATE_BY_LIGHT?$AA@ 10020dd0     deferred_model.obj
 0002:00000df0       ??_7CShader@DEFERRED_MODEL@@6B@ 10020df0     deferred_model.obj
 0002:00000e2c       ??_C@_0BB@HPMBPLJH@VertexlitGeneric?$AA@ 10020e2c     deferred_model.obj
 0002:00000e44       ??_C@_0BO@DKKIBBEF@deferred_radiosity_multiplier?$AA@ 10020e44     deferred_utility.obj
 0002:00000e68       ??_C@_0BC@JCABGPGD@building_cubemaps?$AA@ 10020e68     defpass_composite.obj
 0002:00000e7c       ??_C@_06OFAOMJFH@bModel?$AA@ 10020e7c     defpass_composite.obj
 0002:00000e84       ??_C@_05BJLDAIDO@MODEL?$AA@ 10020e84     defpass_composite.obj
 0002:00000e8c       ??_C@_0BE@OGAIPAIL@bModel?5?$CG?$CG?5bFastVTex?$AA@ 10020e8c     defpass_composite.obj
 0002:00000ea0       ??_C@_0O@KCDELFFA@MORPHING_VTEX?$AA@ 10020ea0     defpass_composite.obj
 0002:00000eb0       ??_C@_0BD@GMHLPBIM@bModel?5?$CG?$CG?5bIsDecal?$AA@ 10020eb0     defpass_composite.obj
 0002:00000ec4       ??_C@_05OONCNBDC@DECAL?$AA@ 10020ec4     defpass_composite.obj
 0002:00000ecc       ??_C@_0N@IMMHBBHK@bWorldEyeVec?$AA@ 10020ecc     defpass_composite.obj
 0002:00000edc       ??_C@_06IMFBPHMK@EYEVEC?$AA@ 10020edc     defpass_composite.obj
 0002:00000ee4       ??_C@_0BJ@OHFMDHGJ@bAlbedo2?5?$CG?$CG?5?$CBbMultiBlend?$AA@ 10020ee4     defpass_composite.obj
 0002:00000f00       ??_C@_0N@NMGDLMMJ@BASETEXTURE2?$AA@ 10020f00     defpass_composite.obj
 0002:00000f10       ??_C@_0P@IIIOCPJL@bBlendmodulate?$AA@ 10020f10     defpass_composite.obj
 0002:00000f20       ??_C@_0O@HJHMIDOE@BLENDMODULATE?$AA@ 10020f20     defpass_composite.obj
 0002:00000f30       ??_C@_0M@JAOOELEM@bMultiBlend?$AA@ 10020f30     defpass_composite.obj
 0002:00000f3c       ??_C@_0L@HDIIPGJJ@MULTIBLEND?$AA@ 10020f3c     defpass_composite.obj
 0002:00000f48       ??_C@_0P@BIBOIJDO@composite_vs30?$AA@ 10020f48     defpass_composite.obj
 0002:00000f58       ??_C@_0L@JNAABLOM@bAlphatest?$AA@ 10020f58     defpass_composite.obj
 0002:00000f64       ??_C@_09GCBJNDKI@ALPHATEST?$AA@ 10020f64     defpass_composite.obj
 0002:00000f70       ??_C@_0N@EDMFBFLF@bTranslucent?$AA@ 10020f70     defpass_composite.obj
 0002:00000f80       ??_C@_0M@OPKGEIGN@TRANSLUCENT?$AA@ 10020f80     defpass_composite.obj
 0002:00000f8c       ??_C@_0P@DMFEFHHD@bGBufferNormal?$AA@ 10020f8c     defpass_composite.obj
 0002:00000f9c       ??_C@_0L@EEAEHAGJ@READNORMAL?$AA@ 10020f9c     defpass_composite.obj
 0002:00000fa8       ??_C@_07COLCFACD@bNoCull?$AA@ 10020fa8     defpass_composite.obj
 0002:00000fb0       ??_C@_06EOGFDPLI@NOCULL?$AA@ 10020fb0     defpass_composite.obj
 0002:00000fb8       ??_C@_07PFCKFBPE@bEnvmap?$AA@ 10020fb8     defpass_composite.obj
 0002:00000fc0       ??_C@_06FEDMBBGL@ENVMAP?$AA@ 10020fc0     defpass_composite.obj
 0002:00000fc8       ??_C@_0M@DFIBGHDH@bEnvmapMask?$AA@ 10020fc8     defpass_composite.obj
 0002:00000fd4       ??_C@_0L@BAIKPANA@ENVMAPMASK?$AA@ 10020fd4     defpass_composite.obj
 0002:00000fe0       ??_C@_0P@EDMJLHGG@bEnvmapFresnel?$AA@ 10020fe0     defpass_composite.obj
 0002:00000ff0       ??_C@_0O@ELENHJEP@ENVMAPFRESNEL?$AA@ 10020ff0     defpass_composite.obj
 0002:00001000       ??_C@_0O@HOMAPJKF@bPhongFresnel?$AA@ 10021000     defpass_composite.obj
 0002:00001010       ??_C@_0N@JKJGIGOK@PHONGFRESNEL?$AA@ 10021010     defpass_composite.obj
 0002:00001020       ??_C@_09PHNIIKHK@bRimLight?$AA@ 10021020     defpass_composite.obj
 0002:0000102c       ??_C@_08NNLIJLFN@RIMLIGHT?$AA@ 1002102c     defpass_composite.obj
 0002:00001038       ??_C@_0BC@LLOCCKB@bRimLightModLight?$AA@ 10021038     defpass_composite.obj
 0002:0000104c       ??_C@_0BG@ELKKFHPE@RIMLIGHTMODULATELIGHT?$AA@ 1002104c     defpass_composite.obj
 0002:00001064       ??_C@_0L@DADJGCGD@bSelfIllum?$AA@ 10021064     defpass_composite.obj
 0002:00001070       ??_C@_09MIIMKPBB@SELFILLUM?$AA@ 10021070     defpass_composite.obj
 0002:0000107c       ??_C@_0P@LJNKJCEO@bSelfIllumMask?$AA@ 1002107c     defpass_composite.obj
 0002:0000108c       ??_C@_0P@KAOABHGG@SELFILLUM_MASK?$AA@ 1002108c     defpass_composite.obj
 0002:0000109c       ??_C@_0BL@HKGEMNFI@bSelfIllumMaskInEnvmapMask?$AA@ 1002109c     defpass_composite.obj
 0002:000010b8       ??_C@_0BH@MKPDKDLC@SELFILLUM_ENVMAP_ALPHA?$AA@ 100210b8     defpass_composite.obj
 0002:000010d0       ??_C@_0P@JHFOHMJO@composite_ps30?$AA@ 100210d0     defpass_composite.obj
 0002:000010e0       ??_C@_0CL@LECLDCNL@?$CIbModel?5?$CG?$CG?5?$CIint?$CJvertexCompressio@ 100210e0     defpass_composite.obj
 0002:0000110c       ??_C@_0DJ@BACNMNGE@?$CIbModel?5?$CG?$CG?5pShaderAPI?9?$DOGetCurren@ 1002110c     defpass_composite.obj
 0002:00001148       ??_C@_0DG@DBPIPLNG@?$CIbModel?5?$CG?$CG?5pShaderAPI?9?$DOIsHWMorph@ 10021148     defpass_composite.obj
 0002:00001180       ??_C@_08DFPBFCBO@MORPHING?$AA@ 10021180     defpass_composite.obj
 0002:0000118c       ??_C@_0BP@JLAOKCDG@pShaderAPI?9?$DOGetPixelFogCombo?$CI?$CJ?$AA@ 1002118c     defpass_composite.obj
 0002:000011ac       ??_C@_0N@DELELAG@PIXELFOGTYPE?$AA@ 100211ac     defpass_composite.obj
 0002:000011bc       ??_C@_0BN@FGLLJJBP@?6?5?5?5PS?5dyn?5?5var?5?$CFs?5?$DN?5?$CFd?5?$CI?$CFs?$CJ?$AA@ 100211bc     defpass_composite.obj
 0002:000011e0       ??_C@_08FMFFHDBL@bBumpmap?$AA@ 100211e0     defpass_gbuffer.obj
 0002:000011ec       ??_C@_0N@HLNNGIBF@TANGENTSPACE?$AA@ 100211ec     defpass_gbuffer.obj
 0002:000011fc       ??_C@_0BK@OFNOFHFF@bBumpmap2?5?$CG?$CG?5?$CBbMultiBlend?$AA@ 100211fc     defpass_gbuffer.obj
 0002:00001218       ??_C@_08NPABPIFN@BUMPMAP2?$AA@ 10021218     defpass_gbuffer.obj
 0002:00001224       ??_C@_0BA@IMBNLCIA@bMultiBlendBump?$AA@ 10021224     defpass_gbuffer.obj
 0002:00001234       ??_C@_0N@NDMAEHJM@gbuffer_vs30?$AA@ 10021234     defpass_gbuffer.obj
 0002:00001244       ??_C@_0BP@FMPBKNFI@bBumpmap?5?$DP?5bSSBump?5?$DP?52?5?3?51?5?3?50?$AA@ 10021244     defpass_gbuffer.obj
 0002:00001264       ??_C@_07KJMAMPCM@BUMPMAP?$AA@ 10021264     defpass_gbuffer.obj
 0002:0000126c       ??_C@_09HDEPLHPI@bPhongmap?$AA@ 1002126c     defpass_gbuffer.obj
 0002:00001278       ??_C@_08FOIDKDOJ@PHONGMAP?$AA@ 10021278     defpass_gbuffer.obj
 0002:00001284       ??_C@_0N@FMIALCDM@gbuffer_ps30?$AA@ 10021284     defpass_gbuffer.obj
 0002:00001294       __real@00000000            10021294     defpass_gbuffer.obj
 0002:00001298       __real@427c0000            10021298     defpass_gbuffer.obj
 0002:000012a0       ??_C@_0CI@JOPLEDJF@bMultiBlend?5?$DP?52?5?3?5bBaseTexture2?5@ 100212a0     defpass_shadow.obj
 0002:000012c8       ??_C@_0N@EEJKIHIP@MULTITEXTURE?$AA@ 100212c8     defpass_shadow.obj
 0002:000012d8       ??_C@_0BA@HDLPNBAE@shadowpass_vs30?$AA@ 100212d8     defpass_shadow.obj
 0002:000012e8       ??_C@_0BA@PMPPCEKE@shadowpass_ps30?$AA@ 100212e8     defpass_shadow.obj
 0002:000012f8       ??_C@_0L@NBJKIDAF@shadowMode?$AA@ 100212f8     defpass_shadow.obj
 0002:00001304       ??_C@_0M@CDNMIAMG@SHADOW_MODE?$AA@ 10021304     defpass_shadow.obj
 0002:00001310       ??_C@_0BA@DFFMPFDE@radiosityOutput?$AA@ 10021310     defpass_shadow.obj
 0002:00001320       ??_C@_09HDFEFAGB@RADIOSITY?$AA@ 10021320     defpass_shadow.obj
 0002:00001330       __xmm@bf800000bf800000bf800000bf800000 10021330     defpass_shadow.obj
 0002:00001348       ??_7IBaseInterface@@6B@    10021348     IDeferredExt.obj
 0002:00001350       ??_7CDeferredExtension@@6B@ 10021350     IDeferredExt.obj
 0002:000013a8       ??_C@_0BM@KPJOJDDC@DeferredExtensionVersion001?$AA@ 100213a8     IDeferredExt.obj
 0002:000013c4       ??_C@_0BK@EJIGOHLE@deferred_radiosity_enable?$AA@ 100213c4     IDeferredExt.obj
 0002:000013e0       ??_C@_0BA@POIJCFOD@LIGHTING_GLOBAL?$AA@ 100213e0     lighting_global.obj
 0002:000013f8       ??_7CShader@LIGHTING_GLOBAL@@6B@ 100213f8     lighting_global.obj
 0002:00001434       ??_C@_0BJ@DLCEIJI@lightingpass_global_ps30?$AA@ 10021434     lighting_global.obj
 0002:00001450       ??_C@_0N@OAGMLKIC@data?4bShadow?$AA@ 10021450     lighting_global.obj
 0002:00001460       ??_C@_0L@EALNICCI@HAS_SHADOW?$AA@ 10021460     lighting_global.obj
 0002:00001470       ??_C@_0BJ@KLGBGHDD@bWorldProjection?5?$DP?51?5?3?50?$AA@ 10021470     lighting_pass_basic.obj
 0002:0000148c       ??_C@_0BI@NHKHKNPC@lightingpass_point_ps30?$AA@ 1002148c     lighting_pass_basic.obj
 0002:000014a4       ??_C@_0BH@HGNBOMCE@lightingpass_spot_ps30?$AA@ 100214a4     lighting_pass_basic.obj
 0002:000014bc       ??_C@_0BE@HOABBPFG@iNumShadowedCookied?$AA@ 100214bc     lighting_pass_basic.obj
 0002:000014d0       ??_C@_0BE@LHLPNGMP@NUM_SHADOWED_COOKIE?$AA@ 100214d0     lighting_pass_basic.obj
 0002:000014e4       ??_C@_0N@FPKBGPCF@iNumShadowed?$AA@ 100214e4     lighting_pass_basic.obj
 0002:000014f4       ??_C@_0N@OPNECPKC@NUM_SHADOWED?$AA@ 100214f4     lighting_pass_basic.obj
 0002:00001504       ??_C@_0M@MMKMGIPP@iNumCookied?$AA@ 10021504     lighting_pass_basic.obj
 0002:00001510       ??_C@_0L@DLOPODK@NUM_COOKIE?$AA@ 10021510     lighting_pass_basic.obj
 0002:0000151c       ??_C@_0CC@POEBNEJ@pExt?9?$DOGetNumActiveLights_Simple?$CI@ 1002151c     lighting_pass_basic.obj
 0002:00001540       ??_C@_0L@EJCKMAPM@NUM_SIMPLE?$AA@ 10021540     lighting_pass_basic.obj
 0002:00001550       ??_C@_0BF@HIMDGEPN@volumpass_point_ps30?$AA@ 10021550     lighting_pass_volum.obj
 0002:00001568       ??_C@_0BE@BIADKPIN@volumpass_spot_ps30?$AA@ 10021568     lighting_pass_volum.obj
 0002:0000157c       ??_C@_0L@LALJHION@VOLUME_LOD?$AA@ 1002157c     lighting_pass_volum.obj
 0002:00001588       ??_C@_0P@PKMEJBLN@iVolumeSamples?$AA@ 10021588     lighting_pass_volum.obj
 0002:00001598       ??_C@_0P@FMCMGGJA@VOLUME_SAMPLES?$AA@ 10021598     lighting_pass_volum.obj
 0002:000015ac       ??_C@_0P@LDLILGGF@LIGHTING_WORLD?$AA@ 100215ac     lighting_world.obj
 0002:000015bc       ??_C@_0L@NANOGOM@$LIGHTTYPE?$AA@ 100215bc     lighting_world.obj
 0002:000015c8       ??_C@_0BB@MPDKFFBN@$WORLDPROJECTION?$AA@ 100215c8     lighting_world.obj
 0002:000015e0       ??_7CShader@LIGHTING_WORLD@@6B@ 100215e0     lighting_world.obj
 0002:00001620       ??_C@_0BA@OLACJHOM@LIGHTING_VOLUME?$AA@ 10021620     lighting_volume.obj
 0002:00001634       ??_7CShader@LIGHTING_VOLUME@@6B@ 10021634     lighting_volume.obj
 0002:00001670       ??_C@_0BA@KBLGFIHN@RADIOSITY_BLEND?$AA@ 10021670     radiosity_blend.obj
 0002:00001688       ??_7CShader@RADIOSITY_BLEND@@6B@ 10021688     radiosity_blend.obj
 0002:000016c4       ??_C@_0BF@LJJBJODB@radiosity_blend_ps30?$AA@ 100216c4     radiosity_blend.obj
 0002:000016dc       ??_C@_0BB@CGEMPBIF@RADIOSITY_GLOBAL?$AA@ 100216dc     radiosity_global.obj
 0002:000016f8       ??_7CShader@RADIOSITY_GLOBAL@@6B@ 100216f8     radiosity_global.obj
 0002:00001734       ??_C@_0BD@FGAKGPBP@radiosity_gen_vs30?$AA@ 10021734     radiosity_global.obj
 0002:00001748       ??_C@_0BK@ENGBDJMO@radiosity_gen_global_ps30?$AA@ 10021748     radiosity_global.obj
 0002:00001764       ??_C@_06GPFGCBFO@iIndex?$AA@ 10021764     radiosity_global.obj
 0002:0000176c       ??_C@_07JDMPGCJB@CASCADE?$AA@ 1002176c     radiosity_global.obj
 0002:00001774       ??_C@_0BE@HGMBLJPK@RADIOSITY_PROPAGATE?$AA@ 10021774     radiosity_propagate.obj
 0002:0000178c       ??_C@_0L@OKCAPPED@$NORMALMAP?$AA@ 1002178c     radiosity_propagate.obj
 0002:00001798       ??_C@_05MDALCGFN@$BLUR?$AA@ 10021798     radiosity_propagate.obj
 0002:000017a4       ??_7CShader@RADIOSITY_PROPAGATE@@6B@ 100217a4     radiosity_propagate.obj
 0002:000017e0       ??_C@_0BJ@PJPICDL@radiosity_propagate_vs30?$AA@ 100217e0     radiosity_propagate.obj
 0002:000017fc       ??_C@_0BB@BNBBIOGE@PARM_INT?$CI?5BLUR?5?$CJ?$AA@ 100217fc     radiosity_propagate.obj
 0002:00001810       ??_C@_04CINGDHMD@BLUR?$AA@ 10021810     radiosity_propagate.obj
 0002:00001818       ??_C@_0BJ@IANPHHJL@radiosity_propagate_ps30?$AA@ 10021818     radiosity_propagate.obj
 0002:00001834       ??_C@_0BE@NJBIAPFA@SCREENSPACE_COMBINE?$AA@ 10021834     screenspace_combine.obj
 0002:00001850       ??_7CShader@SCREENSPACE_COMBINE@@6B@ 10021850     screenspace_combine.obj
 0002:0000188c       ??_C@_0BJ@PDMNEMNG@screenspace_combine_ps30?$AA@ 1002188c     screenspace_combine.obj
 0002:000018a8       ??_C@_0BE@KKLAFHKM@SCREENSPACE_SHADING?$AA@ 100218a8     screenspace_shading.obj
 0002:000018c4       ??_7CShader@SCREENSPACE_SHADING@@6B@ 100218c4     screenspace_shading.obj
 0002:00001900       ??_C@_0BJ@KDMJPACK@screenspace_shading_ps30?$AA@ 10021900     screenspace_shading.obj
 0002:0000191c       ??_C@_0CP@OFFOBPMJ@GetDeferredExt?$CI?$CJ?9?$DOIsRadiosityEna@ 1002191c     screenspace_shading.obj
 0002:0000194c       ??_C@_0N@JOAJJCBI@VOLUME_BLEND?$AA@ 1002194c     volume_blend.obj
 0002:00001964       ??_7CShader@VOLUME_BLEND@@6B@ 10021964     volume_blend.obj
 0002:000019a0       ??_C@_0BC@MMNPPILI@volume_blend_ps30?$AA@ 100219a0     volume_blend.obj
 0002:000019b4       ??_C@_0P@ICAHGCFC@VOLUME_PREPASS?$AA@ 100219b4     volume_prepass.obj
 0002:000019cc       ??_7CShader@VOLUME_PREPASS@@6B@ 100219cc     volume_prepass.obj
 0002:00001a08       ??_C@_0BE@NCHOKODP@volume_prepass_vs30?$AA@ 10021a08     volume_prepass.obj
 0002:00001a1c       ??_C@_0BE@FNDOFLJP@volume_prepass_ps30?$AA@ 10021a1c     volume_prepass.obj
 0002:00001a30       ??_C@_08HDEJNBCC@ss_added?$AA@ 10021a30     tier1:convar.obj
 0002:00001a3c       ??_C@_02FCBLNKNB@ss?$AA@   10021a3c     tier1:convar.obj
 0002:00001a40       ??_C@_04CCHAHKJA@user?$AA@ 10021a40     tier1:convar.obj
 0002:00001a48       ??_C@_0BG@HMGMADBK@clientcmd_can_execute?$AA@ 10021a48     tier1:convar.obj
 0002:00001a60       ??_C@_0BD@OPIELDHG@server_can_execute?$AA@ 10021a60     tier1:convar.obj
 0002:00001a74       ??_C@_0L@ONNDKGKI@replicated?$AA@ 10021a74     tier1:convar.obj
 0002:00001a80       ??_C@_05GHKBAFPA@cheat?$AA@ 10021a80     tier1:convar.obj
 0002:00001a88       ??_C@_0N@JKDKMKHL@notconnected?$AA@ 10021a88     tier1:convar.obj
 0002:00001a98       ??_C@_0N@CDKFDNKI@singleplayer?$AA@ 10021a98     tier1:convar.obj
 0002:00001aa8       ??_C@_06LIGDCBBN@notify?$AA@ 10021aa8     tier1:convar.obj
 0002:00001ab0       ??_C@_07NEJBDDEA@archive?$AA@ 10021ab0     tier1:convar.obj
 0002:00001ab8       ??_C@_06DGDLPBAN@client?$AA@ 10021ab8     tier1:convar.obj
 0002:00001ac0       ??_C@_04MJNAPEEI@game?$AA@ 10021ac0     tier1:convar.obj
 0002:00001acc       ??_7ConCommandBase@@6B@    10021acc     tier1:convar.obj
 0002:00001b00       ??_7IConVar@@6B@           10021b00     tier1:convar.obj
 0002:00001b20       ??_C@_0M@EBMLABJH@?$CFi?5?$CFi?5?$CFi?5?$CFi?$AA@ 10021b20     tier1:convar.obj
 0002:00001b2c       ??_C@_02NJPGOMH@?$CFf?$AA@ 10021b2c     tier1:convar.obj
 0002:00001b30       __real@7f7fffff            10021b30     tier1:convar.obj
 0002:00001b34       ??_C@_0DC@BPEMDMOJ@Warning?3?5?5?$CFs?5?$DN?5?8?$CFs?8?5is?5infinite?0@ 10021b34     tier1:convar.obj
 0002:00001b68       ??_C@_02DPKJAMEF@?$CFd?$AA@ 10021b68     tier1:convar.obj
 0002:00001b70       ??_7CDefaultAccessor@@6B@  10021b70     tier1:convar.obj
 0002:00001b74       ??_C@_0DC@FCCBDICF@ConVarRef?5?$CFs?5doesn?8t?5point?5to?5an@ 10021b74     tier1:convar.obj
 0002:00001bac       ??_7ConVar@@6BIConVar@@@   10021bac     tier1:convar.obj
 0002:00001bd4       ??_7ConVar@@6BConCommandBase@@@ 10021bd4     tier1:convar.obj
 0002:00001c20       ??_C@_0DD@BMOCNE@ConVar?$CI?$CFs?$CJ?5defined?5with?5infinite@ 10021c20     tier1:convar.obj
 0002:00001c58       ??_7CEmptyConVar@@6BIConVar@@@ 10021c58     tier1:convar.obj
 0002:00001c7c       ??_7CEmptyConVar@@6BConCommandBase@@@ 10021c7c     tier1:convar.obj
 0002:00001cc8       __real@3ff0000000000000    10021cc8     tier1:strtools.obj
 0002:00001cd0       ??_C@_01JOAMLHOP@?9?$AA@   10021cd0     tier1:strtools.obj
 0002:00001cd4       ??_C@_0P@GHFPNOJB@bad?5allocation?$AA@ 10021cd4     tier1:interface.obj
 0002:00001ce4       ??_C@_01BJJEKLCA@?$CC?$AA@ 10021ce4     tier1:utlbuffer.obj
 0002:00001ce8       ??_C@_01GEODFPGF@?8?$AA@   10021ce8     tier1:utlbuffer.obj
 0002:00001cec       ??_C@_01OGPIMHDM@?$DP?$AA@ 10021cec     tier1:utlbuffer.obj
 0002:00001cf0       ??_C@_01KICIPPFI@?2?$AA@   10021cf0     tier1:utlbuffer.obj
 0002:00001cf4       ??_C@_01MCMALHOG@a?$AA@    10021cf4     tier1:utlbuffer.obj
 0002:00001cf8       ??_C@_01INIBCBCB@f?$AA@    10021cf8     tier1:utlbuffer.obj
 0002:00001cfc       ??_C@_01KDCPPGHE@r?$AA@    10021cfc     tier1:utlbuffer.obj
 0002:00001d00       ??_C@_01OJONOECF@b?$AA@    10021d00     tier1:utlbuffer.obj
 0002:00001d04       ??_C@_01MHEDDDHA@v?$AA@    10021d04     tier1:utlbuffer.obj
 0002:00001d08       ??_C@_01PFHFFBPC@t?$AA@    10021d08     tier1:utlbuffer.obj
 0002:00001d0c       ??_C@_01EFFIKLCJ@n?$AA@    10021d0c     tier1:utlbuffer.obj
 0002:00001d14       ??_7CUtlCharConversion@@6B@ 10021d14     tier1:utlbuffer.obj
 0002:00001d1c       ??_7CUtlNoEscConversion@@6B@ 10021d1c     tier1:utlbuffer.obj
 0002:00001d24       ??_7CUtlCStringConversion@@6B@ 10021d24     tier1:utlbuffer.obj
 0002:00001d28       ??_C@_0BD@DDBDNLPL@GameUISystemMgr001?$AA@ 10021d28     interfaces:interfaces.obj
 0002:00001d3c       ??_C@_0BD@LAPBEDAK@MATCHFRAMEWORK_001?$AA@ 10021d3c     interfaces:interfaces.obj
 0002:00001d50       ??_C@_0BH@KGEMLLBN@RenderSystemSurface001?$AA@ 10021d50     interfaces:interfaces.obj
 0002:00001d68       ??_C@_0BE@FAMOEOGE@WorldRendererMgr001?$AA@ 10021d68     interfaces:interfaces.obj
 0002:00001d7c       ??_C@_0BA@CCICIDEG@SceneSystem_001?$AA@ 10021d7c     interfaces:interfaces.obj
 0002:00001d8c       ??_C@_0BI@BHPBJDM@RenderHardwareConfig001?$AA@ 10021d8c     interfaces:interfaces.obj
 0002:00001da4       ??_C@_0BA@IKKMFFNE@RenderDevice001?$AA@ 10021da4     interfaces:interfaces.obj
 0002:00001db4       ??_C@_0O@GNEFFBLO@MeshSystem001?$AA@ 10021db4     interfaces:interfaces.obj
 0002:00001dc4       ??_C@_0BB@CFGCNABN@VSoundEmitter003?$AA@ 10021dc4     interfaces:interfaces.obj
 0002:00001dd8       ??_C@_0BF@PLKAEACL@VPhysicsCollision007?$AA@ 10021dd8     interfaces:interfaces.obj
 0002:00001df0       ??_C@_0BF@IHBOFOAB@VDmeMakeFileUtils001?$AA@ 10021df0     interfaces:interfaces.obj
 0002:00001e08       ??_C@_07JAELMMK@VBik001?$AA@ 10021e08     interfaces:interfaces.obj
 0002:00001e10       ??_C@_07LAKMEFHJ@VAvi001?$AA@ 10021e10     interfaces:interfaces.obj
 0002:00001e18       ??_C@_0M@FDOOFAJO@MDLCache004?$AA@ 10021e18     interfaces:interfaces.obj
 0002:00001e24       ??_C@_0O@JLMOFHOC@VDataCache003?$AA@ 10021e24     interfaces:interfaces.obj
 0002:00001e34       ??_C@_0BE@MBLMPAED@MatSystemSurface006?$AA@ 10021e34     interfaces:interfaces.obj
 0002:00001e48       ??_C@_0N@LHOFGHBG@Localize_001?$AA@ 10021e48     interfaces:interfaces.obj
 0002:00001e58       ??_C@_0P@PFJGPHGG@VGUI_System010?$AA@ 10021e58     interfaces:interfaces.obj
 0002:00001e68       ??_C@_0P@PACDEMCC@VGUI_Scheme010?$AA@ 10021e68     interfaces:interfaces.obj
 0002:00001e78       ??_C@_0BA@NFOMELFH@VGUI_Surface031?$AA@ 10021e78     interfaces:interfaces.obj
 0002:00001e88       ??_C@_0O@BLBEAEJG@VGUI_Panel009?$AA@ 10021e88     interfaces:interfaces.obj
 0002:00001e98       ??_C@_0O@KEFJEFH@VGUI_Input005?$AA@ 10021e98     interfaces:interfaces.obj
 0002:00001ea8       ??_C@_0O@KIENLDFE@VGUI_ivgui008?$AA@ 10021ea8     interfaces:interfaces.obj
 0002:00001eb8       ??_C@_0BB@PEKNOCJA@VStudioRender026?$AA@ 10021eb8     interfaces:interfaces.obj
 0002:00001ecc       ??_C@_0BD@GAPHACDN@VPrecacheSystem001?$AA@ 10021ecc     interfaces:interfaces.obj
 0002:00001ee0       ??_C@_0BK@BNADKAOO@VResourceAccessControl001?$AA@ 10021ee0     interfaces:interfaces.obj
 0002:00001efc       ??_C@_0BH@EDCMADAP@QueuedLoaderVersion001?$AA@ 10021efc     interfaces:interfaces.obj
 0002:00001f14       ??_C@_0L@JKJAFMO@VMDLLIB001?$AA@ 10021f14     interfaces:interfaces.obj
 0002:00001f20       ??_C@_06EDIJKDPN@VP4002?$AA@ 10021f20     interfaces:interfaces.obj
 0002:00001f28       ??_C@_0BK@BIOKFMO@COLORCORRECTION_VERSION_1?$AA@ 10021f28     interfaces:interfaces.obj
 0002:00001f44       ??_C@_0BC@LDFGJHOB@VBAllocTracker001?$AA@ 10021f44     interfaces:interfaces.obj
 0002:00001f58       ??_C@_0BE@PCBACOML@DebugTextureInfo001?$AA@ 10021f58     interfaces:interfaces.obj
 0002:00001f6c       ??_C@_0P@PEGJMBKP@SoundSystem001?$AA@ 10021f6c     interfaces:interfaces.obj
 0002:00001f7c       ??_C@_0CA@DFPNNCGF@MaterialSystemHardwareConfig013?$AA@ 10021f7c     interfaces:interfaces.obj
 0002:00001f9c       ??_C@_0BD@DFGGKAK@RenderDeviceMgr001?$AA@ 10021f9c     interfaces:interfaces.obj
 0002:00001fb0       ??_C@_0BI@OFANKHPJ@NetworkSystemVersion001?$AA@ 10021fb0     interfaces:interfaces.obj
 0002:00001fc8       ??_C@_0BL@PKFICKHM@InputStackSystemVersion001?$AA@ 10021fc8     interfaces:interfaces.obj
 0002:00001fe4       ??_C@_0BG@BKNMCPPE@InputSystemVersion001?$AA@ 10021fe4     interfaces:interfaces.obj
 0002:00001ffc       ??_C@_0BF@IJKDMCLN@VMaterialSystem2_001?$AA@ 10021ffc     interfaces:interfaces.obj
 0002:00002014       ??_C@_0BD@ECOBDDLG@VMaterialSystem080?$AA@ 10022014     interfaces:interfaces.obj
 0002:00002028       ??_C@_0BC@MGEMDEGG@ResourceSystem004?$AA@ 10022028     interfaces:interfaces.obj
 0002:0000203c       ??_C@_0BH@HAEACKAF@VNewAsyncFileSystem001?$AA@ 1002203c     interfaces:interfaces.obj
 0002:00002054       ??_C@_0P@PAEMGLHD@VFileSystem017?$AA@ 10022054     interfaces:interfaces.obj
 0002:00002064       ??_C@_0CE@KHAPOONI@Physics2?5Interface?5ResourceMgr?5v@ 10022064     interfaces:interfaces.obj
 0002:00002088       ??_C@_0CB@GAHAMLDC@Physics2?5Interface?5ActorMgr?5v0?41@ 10022088     interfaces:interfaces.obj
 0002:000020ac       ??_C@_0BI@BCGHDMHK@Physics2?5Interface?5v0?43?$AA@ 100220ac     interfaces:interfaces.obj
 0002:000020c4       ??_C@_0BB@OIAKPELP@VProcessUtils002?$AA@ 100220c4     interfaces:interfaces.obj
 0002:000020d8       ??_C@_0P@EAOECLCP@EventSystem001?$AA@ 100220d8     interfaces:interfaces.obj
 0002:000020e8       ??_C@_0P@DHJOKMPC@VEngineCvar007?$AA@ 100220e8     interfaces:interfaces.obj
 0002:000020f8       ??_C@_0EA@IJLIBNOB@APPSYSTEM?3?5In?5ConnectInterfaces?$CI@ 100220f8     interfaces:interfaces.obj
 0002:00002138       __real@40019999a0000000    10022138     mathlib:color_conversion.obj
 0002:00002140       __real@3fdd1745c0000000    10022140     mathlib:color_conversion.obj
 0002:00002148       __real@437f0000            10022148     mathlib:color_conversion.obj
 0002:00002150       __real@3f50000000000000    10022150     mathlib:color_conversion.obj
 0002:00002158       __real@3e800000            10022158     mathlib:color_conversion.obj
 0002:00002160       __real@406fe00000000000    10022160     mathlib:color_conversion.obj
 0002:00002168       __real@3fec000000000000    10022168     mathlib:color_conversion.obj
 0002:00002170       __real@3f50040100401004    10022170     mathlib:color_conversion.obj
 0002:00002178       __real@3b808081            10022178     mathlib:color_conversion.obj
 0002:00002180       __real@3fc0000000000000    10022180     mathlib:color_conversion.obj
 0002:00002188       __real@3fb3333333333333    10022188     mathlib:color_conversion.obj
 0002:00002190       __real@3d4ccccd            10022190     mathlib:color_conversion.obj
 0002:00002194       __real@3e000000            10022194     mathlib:color_conversion.obj
 0002:00002198       __real@40400000            10022198     mathlib:color_conversion.obj
 0002:000021a4       ?nanmask@@3HB              100221a4     mathlib:mathlib_base.obj
 0002:000021a8       __real@34000000            100221a8     mathlib:mathlib_base.obj
 0002:000021b0       __real@3f9921fb54442d18    100221b0     mathlib:mathlib_base.obj
 0002:000021b8       __real@3fe0000000000000    100221b8     mathlib:mathlib_base.obj
 0002:000021c0       ??_C@_0BL@KENLNLMD@SSE?5and?5SSE2?5are?5required?4?$AA@ 100221c0     mathlib:mathlib_base.obj
 0002:000021f0       ?Four_PointFives@@3T__m128@@B 100221f0     mathlib:sseconst.obj
 0002:00002200       ?Four_Zeros@@3T__m128@@B   10022200     mathlib:sseconst.obj
 0002:00002210       ?Four_Ones@@3T__m128@@B    10022210     mathlib:sseconst.obj
 0002:00002220       ?Four_Twos@@3T__m128@@B    10022220     mathlib:sseconst.obj
 0002:00002230       ?Four_Threes@@3T__m128@@B  10022230     mathlib:sseconst.obj
 0002:00002240       ?Four_Fours@@3T__m128@@B   10022240     mathlib:sseconst.obj
 0002:00002250       ?Four_Origin@@3T__m128@@B  10022250     mathlib:sseconst.obj
 0002:00002260       ?Four_NegativeOnes@@3T__m128@@B 10022260     mathlib:sseconst.obj
 0002:00002270       ?Four_2ToThe21s@@3T__m128@@B 10022270     mathlib:sseconst.obj
 0002:00002280       ?Four_2ToThe22s@@3T__m128@@B 10022280     mathlib:sseconst.obj
 0002:00002290       ?Four_2ToThe23s@@3T__m128@@B 10022290     mathlib:sseconst.obj
 0002:000022a0       ?Four_2ToThe24s@@3T__m128@@B 100222a0     mathlib:sseconst.obj
 0002:000022b0       ?Four_Thirds@@3T__m128@@B  100222b0     mathlib:sseconst.obj
 0002:000022c0       ?Four_TwoThirds@@3T__m128@@B 100222c0     mathlib:sseconst.obj
 0002:000022d0       ?Four_Point225s@@3T__m128@@B 100222d0     mathlib:sseconst.obj
 0002:000022e0       ?Four_Epsilons@@3T__m128@@B 100222e0     mathlib:sseconst.obj
 0002:000022f0       ?Four_FLT_MAX@@3T__m128@@B 100222f0     mathlib:sseconst.obj
 0002:00002300       ?Four_Negative_FLT_MAX@@3T__m128@@B 10022300     mathlib:sseconst.obj
 0002:00002310       ?g_SIMD_0123@@3T__m128@@B  10022310     mathlib:sseconst.obj
 0002:00002320       ?g_SIMD_clear_signmask@@3QBHB 10022320     mathlib:sseconst.obj
 0002:00002330       ?g_SIMD_signmask@@3QBHB    10022330     mathlib:sseconst.obj
 0002:00002340       ?g_SIMD_lsbmask@@3QBHB     10022340     mathlib:sseconst.obj
 0002:00002350       ?g_SIMD_clear_wmask@@3QBHB 10022350     mathlib:sseconst.obj
 0002:00002360       ?g_SIMD_AllOnesMask@@3QBHB 10022360     mathlib:sseconst.obj
 0002:00002370       ?g_SIMD_Low16BitsMask@@3QBHB 10022370     mathlib:sseconst.obj
 0002:00002380       ?g_SIMD_ComponentMask@@3QAY03$$CBHA 10022380     mathlib:sseconst.obj
 0002:000023c0       ?g_SIMD_SkipTailMask@@3QAY03$$CBHA 100223c0     mathlib:sseconst.obj
 0002:00002400       ?g_SIMD_EveryOtherMask@@3QBHB 10022400     mathlib:sseconst.obj
 0002:00002418       __real@41f0000000000000    10022418     mathlib:randsse.obj
 0002:00002420       __real@3ef0000000000000    10022420     mathlib:randsse.obj
 0002:00002428       ??_C@_06BBBOCMPD@$flags?$AA@ 10022428     shaderlib:BaseShader.obj
 0002:00002430       ??_C@_05GECEPKB@flags?$AA@ 10022430     shaderlib:BaseShader.obj
 0002:00002438       ??_C@_0P@ODJKAABP@$flags_defined?$AA@ 10022438     shaderlib:BaseShader.obj
 0002:00002448       ??_C@_0O@OHELCBMC@flags_defined?$AA@ 10022448     shaderlib:BaseShader.obj
 0002:00002458       ??_C@_07MJNFOJPL@$flags2?$AA@ 10022458     shaderlib:BaseShader.obj
 0002:00002460       ??_C@_06EMKHIFEA@flags2?$AA@ 10022460     shaderlib:BaseShader.obj
 0002:00002468       ??_C@_0BA@GAJLMDIE@$flags_defined2?$AA@ 10022468     shaderlib:BaseShader.obj
 0002:00002478       ??_C@_0P@JEJGAOCB@flags2_defined?$AA@ 10022478     shaderlib:BaseShader.obj
 0002:00002488       ??_C@_06ODBBHPLE@$color?$AA@ 10022488     shaderlib:BaseShader.obj
 0002:00002490       ??_C@_05PEENBMOG@color?$AA@ 10022490     shaderlib:BaseShader.obj
 0002:00002498       ??_C@_06JHBGBLFP@$alpha?$AA@ 10022498     shaderlib:BaseShader.obj
 0002:000024a0       ??_C@_05IAEKHIAN@alpha?$AA@ 100224a0     shaderlib:BaseShader.obj
 0002:000024a8       ??_C@_0N@NEFMJPPI@$basetexture?$AA@ 100224a8     shaderlib:BaseShader.obj
 0002:000024b8       ??_C@_0CE@NAOMCFML@Base?5Texture?5with?5lighting?5built@ 100224b8     shaderlib:BaseShader.obj
 0002:000024dc       ??_C@_06NPMBDFBB@$frame?$AA@ 100224dc     shaderlib:BaseShader.obj
 0002:000024e4       ??_C@_0BA@IPLPKCPL@Animation?5Frame?$AA@ 100224e4     shaderlib:BaseShader.obj
 0002:000024f4       ??_C@_0BG@CPMMPAAK@$basetexturetransform?$AA@ 100224f4     shaderlib:BaseShader.obj
 0002:0000250c       ??_C@_0CA@IPALKODP@Base?5Texture?5Texcoord?5Transform?$AA@ 1002250c     shaderlib:BaseShader.obj
 0002:0000252c       ??_C@_0BD@OEFGBNBD@$flashlighttexture?$AA@ 1002252c     shaderlib:BaseShader.obj
 0002:00002540       ??_C@_0CD@IJMMJMM@flashlight?5spotlight?5shape?5textu@ 10022540     shaderlib:BaseShader.obj
 0002:00002564       ??_C@_0BG@DCPCIEMH@effects?1flashlight001?$AA@ 10022564     shaderlib:BaseShader.obj
 0002:0000257c       ??_C@_0BI@FBLAAOOF@$flashlighttextureframe?$AA@ 1002257c     shaderlib:BaseShader.obj
 0002:00002594       ??_C@_0CA@FNHEODEF@Animation?5Frame?5for?5$flashlight?$AA@ 10022594     shaderlib:BaseShader.obj
 0002:000025b4       ??_C@_07CBJPDCJL@$color2?$AA@ 100225b4     shaderlib:BaseShader.obj
 0002:000025bc       ??_C@_06KEONFOCA@color2?$AA@ 100225bc     shaderlib:BaseShader.obj
 0002:000025c4       ??_C@_09DFNDCFLK@$srgbtint?$AA@ 100225c4     shaderlib:BaseShader.obj
 0002:000025d0       ??_C@_0DO@JEGLGEMI@tint?5value?5to?5be?5applied?5when?5ru@ 100225d0     shaderlib:BaseShader.obj
 0002:00002614       ??_7CBasePerInstanceContextData@@6B@ 10022614     shaderlib:BaseShader.obj
 0002:0000261c       ??_7CBaseShader@@6B@       1002261c     shaderlib:BaseShader.obj
 0002:0000265c       ??_7CPerInstanceContextData@@6B@ 1002265c     shaderlib:BaseShader.obj
 0002:00002664       ??_7IShaderDLL@@6B@        10022664     shaderlib:ShaderDLL.obj
 0002:0000266c       ??_7CShaderDLL@@6BIShaderDLLInternal@@@ 1002266c     shaderlib:ShaderDLL.obj
 0002:00002688       ??_7CShaderDLL@@6BIShaderDLL@@@ 10022688     shaderlib:ShaderDLL.obj
 0002:0000268c       ??_C@_0N@OBPFIHDD@ShaderDLL004?$AA@ 1002268c     shaderlib:ShaderDLL.obj
 0002:0000269c       ??_C@_0BJ@PPMLNMML@VMaterialSystemConfig004?$AA@ 1002269c     shaderlib:ShaderDLL.obj
 0002:000026b8       ??_C@_0BA@ICDFCBDO@ShaderSystem002?$AA@ 100226b8     shaderlib:ShaderDLL.obj
 0002:000026c8       __real@400ccccd            100226c8     shaderlib:ShaderDLL.obj
 0002:000026d0       ??_7CShaderLibConVarAccessor@@6B@ 100226d0     shaderlib:shaderlib_cvar.obj
 0002:000026e0       __OP_FMODjmptab            100226e0     LIBCMT:87fmod.obj
 0002:00002730       __FPinit                   10022730     LIBCMT:fpinit.obj
 0002:00002738       ??_7type_info@@6B@         10022738     LIBCMT:typinfo.obj
 0002:00002740       ??_7bad_alloc@std@@6B@     10022740     LIBCMT:new.obj
 0002:00002748       __pDefaultRawDllMain       10022748     LIBCMT:dllcrt0.obj
 0002:00002748       __pRawDllMain              10022748     LIBCMT:dllcrt0.obj
 0002:0000dbe8       ??_C@_1BI@BGOHAHKC@?$AAm?$AAs?$AAc?$AAo?$AAr?$AAe?$AAe?$AA?4?$AAd?$AAl?$AAl?$AA?$AA@ 1002dbe8     LIBCMT:crt0dat.obj
 0002:0000dc00       ??_C@_0P@MIGLKIOC@CorExitProcess?$AA@ 1002dc00     LIBCMT:crt0dat.obj
 0002:0000dc10       ??_C@_03KHJOGHMM@exp?$AA@  1002dc10     LIBCMT:fpexcept.obj
 0002:0000dc14       ??_C@_03JGHBODFD@pow?$AA@  1002dc14     LIBCMT:fpexcept.obj
 0002:0000dc18       ??_C@_03MGHMBJCF@log?$AA@  1002dc18     LIBCMT:fpexcept.obj
 0002:0000dc1c       ??_C@_05HGHHAHAP@log10?$AA@ 1002dc1c     LIBCMT:fpexcept.obj
 0002:0000dc24       ??_C@_04COOMCNPB@sinh?$AA@ 1002dc24     LIBCMT:fpexcept.obj
 0002:0000dc2c       ??_C@_04HPJJNFIM@cosh?$AA@ 1002dc2c     LIBCMT:fpexcept.obj
 0002:0000dc34       ??_C@_04FJHINJAO@tanh?$AA@ 1002dc34     LIBCMT:fpexcept.obj
 0002:0000dc3c       ??_C@_04FIHNOPOL@asin?$AA@ 1002dc3c     LIBCMT:fpexcept.obj
 0002:0000dc44       ??_C@_04PDIFKINK@acos?$AA@ 1002dc44     LIBCMT:fpexcept.obj
 0002:0000dc4c       ??_C@_04MLLJIGOK@atan?$AA@ 1002dc4c     LIBCMT:fpexcept.obj
 0002:0000dc54       ??_C@_05KNGEOGJB@atan2?$AA@ 1002dc54     LIBCMT:fpexcept.obj
 0002:0000dc5c       ??_C@_04EIAKFFMI@sqrt?$AA@ 1002dc5c     LIBCMT:fpexcept.obj
 0002:0000dc64       ??_C@_03BLEJJJBH@sin?$AA@  1002dc64     LIBCMT:fpexcept.obj
 0002:0000dc68       ??_C@_03LALBNOCG@cos?$AA@  1002dc68     LIBCMT:fpexcept.obj
 0002:0000dc6c       ??_C@_03IIINPABG@tan?$AA@  1002dc6c     LIBCMT:fpexcept.obj
 0002:0000dc70       ??_C@_04GFPJNGEK@ceil?$AA@ 1002dc70     LIBCMT:fpexcept.obj
 0002:0000dc78       ??_C@_05PBJFFIGL@floor?$AA@ 1002dc78     LIBCMT:fpexcept.obj
 0002:0000dc80       ??_C@_04ODHECPBC@fabs?$AA@ 1002dc80     LIBCMT:fpexcept.obj
 0002:0000dc88       ??_C@_04EHEDPDJG@modf?$AA@ 1002dc88     LIBCMT:fpexcept.obj
 0002:0000dc90       ??_C@_05CEJMAHNP@ldexp?$AA@ 1002dc90     LIBCMT:fpexcept.obj
 0002:0000dc98       ??_C@_05KBKMEMPO@_cabs?$AA@ 1002dc98     LIBCMT:fpexcept.obj
 0002:0000dca0       ??_C@_06MEIMCGCF@_hypot?$AA@ 1002dca0     LIBCMT:fpexcept.obj
 0002:0000dca8       ??_C@_04KEPJIHGP@fmod?$AA@ 1002dca8     LIBCMT:fpexcept.obj
 0002:0000dcb0       ??_C@_05GKKHEGJL@frexp?$AA@ 1002dcb0     LIBCMT:fpexcept.obj
 0002:0000dcb8       ??_C@_03MJLDFKDL@_y0?$AA@  1002dcb8     LIBCMT:fpexcept.obj
 0002:0000dcbc       ??_C@_03NAKIGLHK@_y1?$AA@  1002dcbc     LIBCMT:fpexcept.obj
 0002:0000dcc0       ??_C@_03ONILCKOB@_yn?$AA@  1002dcc0     LIBCMT:fpexcept.obj
 0002:0000dcc4       ??_C@_05JGDBENOH@_logb?$AA@ 1002dcc4     LIBCMT:fpexcept.obj
 0002:0000dccc       ??_C@_0L@KDOEJCKC@_nextafter?$AA@ 1002dccc     LIBCMT:fpexcept.obj
 0002:0000dd10       __indefinite               1002dd10     LIBCMT:87disp.obj
 0002:0000dd1a       __piby2                    1002dd1a     LIBCMT:87disp.obj
 0002:0000dd3c       ??_C@_05KLBDPFGC@e?$CL000?$AA@ 1002dd3c     LIBCMT:cvt.obj
 0002:0000dd44       ??_C@_06OJHGLDPL@?$CInull?$CJ?$AA@ 1002dd44     LIBCMT:output.obj
 0002:0000dd4c       ??_C@_1O@CEDCILHN@?$AA?$CI?$AAn?$AAu?$AAl?$AAl?$AA?$CJ?$AA?$AA@ 1002dd4c     LIBCMT:output.obj
 0002:0000dd60       ___lookuptable             1002dd60     LIBCMT:output.obj
 0002:0000ddc0       ??_7exception@std@@6B@     1002ddc0     LIBCMT:stdexcpt.obj
 0002:0000ddc8       ??_C@_0BC@EOODALEL@Unknown?5exception?$AA@ 1002ddc8     LIBCMT:stdexcpt.obj
 0002:0000de00       __XcptActTab               1002de00     LIBCMT:winxfltr.obj
 0002:0000de90       __XcptActTabCount          1002de90     LIBCMT:winxfltr.obj
 0002:0000de94       __XcptActTabSize           1002de94     LIBCMT:winxfltr.obj
 0002:0000de98       __First_FPE_Indx           1002de98     LIBCMT:winxfltr.obj
 0002:0000de9c       __Num_FPE                  1002de9c     LIBCMT:winxfltr.obj
 0002:0000dea0       ??_C@_1BK@MGMFAEKH@?$AAk?$AAe?$AAr?$AAn?$AAe?$AAl?$AA3?$AA2?$AA?4?$AAd?$AAl?$AAl?$AA?$AA@ 1002dea0     LIBCMT:winapisupp.obj
 0002:0000debc       ??_C@_08KNHFBNJ@FlsAlloc?$AA@ 1002debc     LIBCMT:winapisupp.obj
 0002:0000dec8       ??_C@_07PEJMOBNF@FlsFree?$AA@ 1002dec8     LIBCMT:winapisupp.obj
 0002:0000ded0       ??_C@_0M@GDNOONDI@FlsGetValue?$AA@ 1002ded0     LIBCMT:winapisupp.obj
 0002:0000dedc       ??_C@_0M@JCPCPOEF@FlsSetValue?$AA@ 1002dedc     LIBCMT:winapisupp.obj
 0002:0000dee8       ??_C@_0BM@HCFOFFN@InitializeCriticalSectionEx?$AA@ 1002dee8     LIBCMT:winapisupp.obj
 0002:0000df04       ??_C@_0P@DLHPPCNH@CreateEventExW?$AA@ 1002df04     LIBCMT:winapisupp.obj
 0002:0000df14       ??_C@_0BD@KIEEOEEH@CreateSemaphoreExW?$AA@ 1002df14     LIBCMT:winapisupp.obj
 0002:0000df28       ??_C@_0BI@BKLFFAPO@SetThreadStackGuarantee?$AA@ 1002df28     LIBCMT:winapisupp.obj
 0002:0000df40       ??_C@_0BG@OGFAJCKC@CreateThreadpoolTimer?$AA@ 1002df40     LIBCMT:winapisupp.obj
 0002:0000df58       ??_C@_0BD@LPLEMMDI@SetThreadpoolTimer?$AA@ 1002df58     LIBCMT:winapisupp.obj
 0002:0000df6c       ??_C@_0CA@FMNJENH@WaitForThreadpoolTimerCallbacks?$AA@ 1002df6c     LIBCMT:winapisupp.obj
 0002:0000df8c       ??_C@_0BF@DCFCCNOC@CloseThreadpoolTimer?$AA@ 1002df8c     LIBCMT:winapisupp.obj
 0002:0000dfa4       ??_C@_0BF@FLABGKKM@CreateThreadpoolWait?$AA@ 1002dfa4     LIBCMT:winapisupp.obj
 0002:0000dfbc       ??_C@_0BC@MGCOHNA@SetThreadpoolWait?$AA@ 1002dfbc     LIBCMT:winapisupp.obj
 0002:0000dfd0       ??_C@_0BE@OCIOMIMP@CloseThreadpoolWait?$AA@ 1002dfd0     LIBCMT:winapisupp.obj
 0002:0000dfe4       ??_C@_0BJ@LKGHFHBO@FlushProcessWriteBuffers?$AA@ 1002dfe4     LIBCMT:winapisupp.obj
 0002:0000e000       ??_C@_0BP@KALKKPMO@FreeLibraryWhenCallbackReturns?$AA@ 1002e000     LIBCMT:winapisupp.obj
 0002:0000e020       ??_C@_0BK@DFNBACLA@GetCurrentProcessorNumber?$AA@ 1002e020     LIBCMT:winapisupp.obj
 0002:0000e03c       ??_C@_0BP@KHGALBC@GetLogicalProcessorInformation?$AA@ 1002e03c     LIBCMT:winapisupp.obj
 0002:0000e05c       ??_C@_0BE@FKKLLFLM@CreateSymbolicLinkW?$AA@ 1002e05c     LIBCMT:winapisupp.obj
 0002:0000e070       ??_C@_0BJ@OHNKDLIJ@SetDefaultDllDirectories?$AA@ 1002e070     LIBCMT:winapisupp.obj
 0002:0000e08c       ??_C@_0BE@LJANKFHF@EnumSystemLocalesEx?$AA@ 1002e08c     LIBCMT:winapisupp.obj
 0002:0000e0a0       ??_C@_0BA@IHGNDAEB@CompareStringEx?$AA@ 1002e0a0     LIBCMT:winapisupp.obj
 0002:0000e0b0       ??_C@_0BA@EPCJIIPD@GetDateFormatEx?$AA@ 1002e0b0     LIBCMT:winapisupp.obj
 0002:0000e0c0       ??_C@_0BA@ONOKGCMP@GetLocaleInfoEx?$AA@ 1002e0c0     LIBCMT:winapisupp.obj
 0002:0000e0d0       ??_C@_0BA@CIJJKCJJ@GetTimeFormatEx?$AA@ 1002e0d0     LIBCMT:winapisupp.obj
 0002:0000e0e0       ??_C@_0BJ@PBCCBIPI@GetUserDefaultLocaleName?$AA@ 1002e0e0     LIBCMT:winapisupp.obj
 0002:0000e0fc       ??_C@_0BC@CELBKLLA@IsValidLocaleName?$AA@ 1002e0fc     LIBCMT:winapisupp.obj
 0002:0000e110       ??_C@_0O@KKBNKAPF@LCMapStringEx?$AA@ 1002e110     LIBCMT:winapisupp.obj
 0002:0000e120       ??_C@_0BE@JOGNEJCI@GetCurrentPackageId?$AA@ 1002e120     LIBCMT:winapisupp.obj
 0002:0000e134       ??_C@_0P@CDHHOHKP@GetTickCount64?$AA@ 1002e134     LIBCMT:winapisupp.obj
 0002:0000e144       ??_C@_0BO@KPCLFDJJ@GetFileInformationByHandleExW?$AA@ 1002e144     LIBCMT:winapisupp.obj
 0002:0000e164       ??_C@_0BM@MHIDLABK@SetFileInformationByHandleW?$AA@ 1002e164     LIBCMT:winapisupp.obj
 0002:0000e190       ??_C@_1M@HPNHIDJI@?$AAj?$AAa?$AA?9?$AAJ?$AAP?$AA?$AA@ 1002e190     LIBCMT:mbctype.obj
 0002:0000e19c       ??_C@_1M@BIBDDEMK@?$AAz?$AAh?$AA?9?$AAC?$AAN?$AA?$AA@ 1002e19c     LIBCMT:mbctype.obj
 0002:0000e1a8       ??_C@_1M@JLOOOEGK@?$AAk?$AAo?$AA?9?$AAK?$AAR?$AA?$AA@ 1002e1a8     LIBCMT:mbctype.obj
 0002:0000e1b4       ??_C@_1M@CLNBBOPM@?$AAz?$AAh?$AA?9?$AAT?$AAW?$AA?$AA@ 1002e1b4     LIBCMT:mbctype.obj
 0002:0000e1c0       ??_C@_03KOEHGMDN@Sun?$AA@  1002e1c0     LIBCMT:nlsdata.obj
 0002:0000e1c4       ??_C@_03PDAGKDH@Mon?$AA@   1002e1c4     LIBCMT:nlsdata.obj
 0002:0000e1c8       ??_C@_03NAGEINEP@Tue?$AA@  1002e1c8     LIBCMT:nlsdata.obj
 0002:0000e1cc       ??_C@_03MHOMLAJA@Wed?$AA@  1002e1cc     LIBCMT:nlsdata.obj
 0002:0000e1d0       ??_C@_03IOFIKPDN@Thu?$AA@  1002e1d0     LIBCMT:nlsdata.obj
 0002:0000e1d4       ??_C@_03IDIOELNC@Fri?$AA@  1002e1d4     LIBCMT:nlsdata.obj
 0002:0000e1d8       ??_C@_03FEFJNEK@Sat?$AA@   1002e1d8     LIBCMT:nlsdata.obj
 0002:0000e1dc       ??_C@_06OOPIFAJ@Sunday?$AA@ 1002e1dc     LIBCMT:nlsdata.obj
 0002:0000e1e4       ??_C@_06JLEDEDGH@Monday?$AA@ 1002e1e4     LIBCMT:nlsdata.obj
 0002:0000e1ec       ??_C@_07BAAGCFCM@Tuesday?$AA@ 1002e1ec     LIBCMT:nlsdata.obj
 0002:0000e1f4       ??_C@_09DLIGFAKA@Wednesday?$AA@ 1002e1f4     LIBCMT:nlsdata.obj
 0002:0000e200       ??_C@_08HACCIKIA@Thursday?$AA@ 1002e200     LIBCMT:nlsdata.obj
 0002:0000e20c       ??_C@_06JECMNKMI@Friday?$AA@ 1002e20c     LIBCMT:nlsdata.obj
 0002:0000e214       ??_C@_08INBOOONO@Saturday?$AA@ 1002e214     LIBCMT:nlsdata.obj
 0002:0000e220       ??_C@_03JIHJHPIE@Jan?$AA@  1002e220     LIBCMT:nlsdata.obj
 0002:0000e224       ??_C@_03HJBDCHOM@Feb?$AA@  1002e224     LIBCMT:nlsdata.obj
 0002:0000e228       ??_C@_03ODNJBKGA@Mar?$AA@  1002e228     LIBCMT:nlsdata.obj
 0002:0000e22c       ??_C@_03LEOLGMJP@Apr?$AA@  1002e22c     LIBCMT:nlsdata.obj
 0002:0000e230       ??_C@_03CNMDKL@May?$AA@    1002e230     LIBCMT:nlsdata.obj
 0002:0000e234       ??_C@_03IDFGHECI@Jun?$AA@  1002e234     LIBCMT:nlsdata.obj
 0002:0000e238       ??_C@_03LBGABGKK@Jul?$AA@  1002e238     LIBCMT:nlsdata.obj
 0002:0000e23c       ??_C@_03IFJFEIGA@Aug?$AA@  1002e23c     LIBCMT:nlsdata.obj
 0002:0000e240       ??_C@_03GGCAPAJC@Sep?$AA@  1002e240     LIBCMT:nlsdata.obj
 0002:0000e244       ??_C@_03BMAOKBAD@Oct?$AA@  1002e244     LIBCMT:nlsdata.obj
 0002:0000e248       ??_C@_03JPJOFNIA@Nov?$AA@  1002e248     LIBCMT:nlsdata.obj
 0002:0000e24c       ??_C@_03MKABNOCG@Dec?$AA@  1002e24c     LIBCMT:nlsdata.obj
 0002:0000e250       ??_C@_07CGJPFGJA@January?$AA@ 1002e250     LIBCMT:nlsdata.obj
 0002:0000e258       ??_C@_08GNJGEPFN@February?$AA@ 1002e258     LIBCMT:nlsdata.obj
 0002:0000e264       ??_C@_05HPCKOFNC@March?$AA@ 1002e264     LIBCMT:nlsdata.obj
 0002:0000e26c       ??_C@_05DMJDNLEJ@April?$AA@ 1002e26c     LIBCMT:nlsdata.obj
 0002:0000e274       ??_C@_04CNLMGBGM@June?$AA@ 1002e274     LIBCMT:nlsdata.obj
 0002:0000e27c       ??_C@_04MIEPOIFP@July?$AA@ 1002e27c     LIBCMT:nlsdata.obj
 0002:0000e284       ??_C@_06LBBHFDDG@August?$AA@ 1002e284     LIBCMT:nlsdata.obj
 0002:0000e28c       ??_C@_09BHHEALKD@September?$AA@ 1002e28c     LIBCMT:nlsdata.obj
 0002:0000e298       ??_C@_07JJNFCEND@October?$AA@ 1002e298     LIBCMT:nlsdata.obj
 0002:0000e2a0       ??_C@_08HCHEGEOA@November?$AA@ 1002e2a0     LIBCMT:nlsdata.obj
 0002:0000e2ac       ??_C@_08EDHMEBNP@December?$AA@ 1002e2ac     LIBCMT:nlsdata.obj
 0002:0000e2b8       ??_C@_02DEDBPAFC@AM?$AA@   1002e2b8     LIBCMT:nlsdata.obj
 0002:0000e2bc       ??_C@_02CJNFDJBF@PM?$AA@   1002e2bc     LIBCMT:nlsdata.obj
 0002:0000e2c0       ??_C@_08BPBNCDIB@MM?1dd?1yy?$AA@ 1002e2c0     LIBCMT:nlsdata.obj
 0002:0000e2cc       ??_C@_0BE@CKGJFCPC@dddd?0?5MMMM?5dd?0?5yyyy?$AA@ 1002e2cc     LIBCMT:nlsdata.obj
 0002:0000e2e0       ??_C@_08JCCMCCIL@HH?3mm?3ss?$AA@ 1002e2e0     LIBCMT:nlsdata.obj
 0002:0000e2ec       ??_C@_17MBGCMIPB@?$AAS?$AAu?$AAn?$AA?$AA@ 1002e2ec     LIBCMT:nlsdata.obj
 0002:0000e2f4       ??_C@_17KBOMKBF@?$AAM?$AAo?$AAn?$AA?$AA@ 1002e2f4     LIBCMT:nlsdata.obj
 0002:0000e2fc       ??_C@_17BMKGEGOJ@?$AAT?$AAu?$AAe?$AA?$AA@ 1002e2fc     LIBCMT:nlsdata.obj
 0002:0000e304       ??_C@_17CJEDCEPE@?$AAW?$AAe?$AAd?$AA?$AA@ 1002e304     LIBCMT:nlsdata.obj
 0002:0000e30c       ??_C@_17PDPHAADD@?$AAT?$AAh?$AAu?$AA?$AA@ 1002e30c     LIBCMT:nlsdata.obj
 0002:0000e314       ??_C@_17HFOLPPLP@?$AAF?$AAr?$AAi?$AA?$AA@ 1002e314     LIBCMT:nlsdata.obj
 0002:0000e31c       ??_C@_17GGIBDPIH@?$AAS?$AAa?$AAt?$AA?$AA@ 1002e31c     LIBCMT:nlsdata.obj
 0002:0000e324       ??_C@_1O@IHNHDHPB@?$AAS?$AAu?$AAn?$AAd?$AAa?$AAy?$AA?$AA@ 1002e324     LIBCMT:nlsdata.obj
 0002:0000e334       ??_C@_1O@MMNBFLIA@?$AAM?$AAo?$AAn?$AAd?$AAa?$AAy?$AA?$AA@ 1002e334     LIBCMT:nlsdata.obj
 0002:0000e344       ??_C@_1BA@ENFBFFEK@?$AAT?$AAu?$AAe?$AAs?$AAd?$AAa?$AAy?$AA?$AA@ 1002e344     LIBCMT:nlsdata.obj
 0002:0000e354       ??_C@_1BE@EBOGMDOH@?$AAW?$AAe?$AAd?$AAn?$AAe?$AAs?$AAd?$AAa?$AAy?$AA?$AA@ 1002e354     LIBCMT:nlsdata.obj
 0002:0000e368       ??_C@_1BC@HHMNLIHE@?$AAT?$AAh?$AAu?$AAr?$AAs?$AAd?$AAa?$AAy?$AA?$AA@ 1002e368     LIBCMT:nlsdata.obj
 0002:0000e37c       ??_C@_1O@PDICJHAG@?$AAF?$AAr?$AAi?$AAd?$AAa?$AAy?$AA?$AA@ 1002e37c     LIBCMT:nlsdata.obj
 0002:0000e38c       ??_C@_1BC@ENMNNPAJ@?$AAS?$AAa?$AAt?$AAu?$AAr?$AAd?$AAa?$AAy?$AA?$AA@ 1002e38c     LIBCMT:nlsdata.obj
 0002:0000e3a0       ??_C@_17DKNBKCHM@?$AAJ?$AAa?$AAn?$AA?$AA@ 1002e3a0     LIBCMT:nlsdata.obj
 0002:0000e3a8       ??_C@_17LMDJEKJN@?$AAF?$AAe?$AAb?$AA?$AA@ 1002e3a8     LIBCMT:nlsdata.obj
 0002:0000e3b0       ??_C@_17CKNLEDEC@?$AAM?$AAa?$AAr?$AA?$AA@ 1002e3b0     LIBCMT:nlsdata.obj
 0002:0000e3b8       ??_C@_17LFPOIHDD@?$AAA?$AAp?$AAr?$AA?$AA@ 1002e3b8     LIBCMT:nlsdata.obj
 0002:0000e3c0       ??_C@_17PNNKMEED@?$AAM?$AAa?$AAy?$AA?$AA@ 1002e3c0     LIBCMT:nlsdata.obj
 0002:0000e3c8       ??_C@_17KCJGOCPB@?$AAJ?$AAu?$AAn?$AA?$AA@ 1002e3c8     LIBCMT:nlsdata.obj
 0002:0000e3d0       ??_C@_17IJPCKHK@?$AAJ?$AAu?$AAl?$AA?$AA@ 1002e3d0     LIBCMT:nlsdata.obj
 0002:0000e3d8       ??_C@_17ICPELBCN@?$AAA?$AAu?$AAg?$AA?$AA@ 1002e3d8     LIBCMT:nlsdata.obj
 0002:0000e3e0       ??_C@_17HCHCOKMG@?$AAS?$AAe?$AAp?$AA?$AA@ 1002e3e0     LIBCMT:nlsdata.obj
 0002:0000e3e8       ??_C@_17FNLKOI@?$AAO?$AAc?$AAt?$AA?$AA@ 1002e3e8     LIBCMT:nlsdata.obj
 0002:0000e3f0       ??_C@_17BBDMLCIG@?$AAN?$AAo?$AAv?$AA?$AA@ 1002e3f0     LIBCMT:nlsdata.obj
 0002:0000e3f8       ??_C@_17EGKACKIF@?$AAD?$AAe?$AAc?$AA?$AA@ 1002e3f8     LIBCMT:nlsdata.obj
 0002:0000e400       ??_C@_1BA@EFMEIEBA@?$AAJ?$AAa?$AAn?$AAu?$AAa?$AAr?$AAy?$AA?$AA@ 1002e400     LIBCMT:nlsdata.obj
 0002:0000e410       ??_C@_1BC@JGDDFFAM@?$AAF?$AAe?$AAb?$AAr?$AAu?$AAa?$AAr?$AAy?$AA?$AA@ 1002e410     LIBCMT:nlsdata.obj
 0002:0000e424       ??_C@_1M@IKEENEDF@?$AAM?$AAa?$AAr?$AAc?$AAh?$AA?$AA@ 1002e424     LIBCMT:nlsdata.obj
 0002:0000e430       ??_C@_1M@GJNLMHFD@?$AAA?$AAp?$AAr?$AAi?$AAl?$AA?$AA@ 1002e430     LIBCMT:nlsdata.obj
 0002:0000e43c       ??_C@_19EPFLPGAP@?$AAJ?$AAu?$AAn?$AAe?$AA?$AA@ 1002e43c     LIBCMT:nlsdata.obj
 0002:0000e448       ??_C@_19BIFMLPCD@?$AAJ?$AAu?$AAl?$AAy?$AA?$AA@ 1002e448     LIBCMT:nlsdata.obj
 0002:0000e454       ??_C@_1O@PAHLKOAC@?$AAA?$AAu?$AAg?$AAu?$AAs?$AAt?$AA?$AA@ 1002e454     LIBCMT:nlsdata.obj
 0002:0000e464       ??_C@_1BE@DKAAMBJL@?$AAS?$AAe?$AAp?$AAt?$AAe?$AAm?$AAb?$AAe?$AAr?$AA?$AA@ 1002e464     LIBCMT:nlsdata.obj
 0002:0000e478       ??_C@_1BA@EPANDLNG@?$AAO?$AAc?$AAt?$AAo?$AAb?$AAe?$AAr?$AA?$AA@ 1002e478     LIBCMT:nlsdata.obj
 0002:0000e488       ??_C@_1BC@BGLIFPF@?$AAN?$AAo?$AAv?$AAe?$AAm?$AAb?$AAe?$AAr?$AA?$AA@ 1002e488     LIBCMT:nlsdata.obj
 0002:0000e49c       ??_C@_1BC@FEMKIFH@?$AAD?$AAe?$AAc?$AAe?$AAm?$AAb?$AAe?$AAr?$AA?$AA@ 1002e49c     LIBCMT:nlsdata.obj
 0002:0000e4b0       ??_C@_15ODEHAHHF@?$AAA?$AAM?$AA?$AA@ 1002e4b0     LIBCMT:nlsdata.obj
 0002:0000e4b8       ??_C@_15CLMNNGEL@?$AAP?$AAM?$AA?$AA@ 1002e4b8     LIBCMT:nlsdata.obj
 0002:0000e4c0       ??_C@_1BC@IEBCMHCM@?$AAM?$AAM?$AA?1?$AAd?$AAd?$AA?1?$AAy?$AAy?$AA?$AA@ 1002e4c0     LIBCMT:nlsdata.obj
 0002:0000e4d4       ??_C@_1CI@KNAKOEBC@?$AAd?$AAd?$AAd?$AAd?$AA?0?$AA?5?$AAM?$AAM?$AAM?$AAM?$AA?5?$AAd?$AAd?$AA?0?$AA?5?$AAy?$AAy?$AAy?$AAy?$AA?$AA@ 1002e4d4     LIBCMT:nlsdata.obj
 0002:0000e4fc       ??_C@_1BC@GDGBMEMK@?$AAH?$AAH?$AA?3?$AAm?$AAm?$AA?3?$AAs?$AAs?$AA?$AA@ 1002e4fc     LIBCMT:nlsdata.obj
 0002:0000e510       ??_C@_1M@BMHNFIME@?$AAe?$AAn?$AA?9?$AAU?$AAS?$AA?$AA@ 1002e510     LIBCMT:nlsdata.obj
 0002:0000e608       ??_C@_05EOHGHCHD@exp10?$AA@ 1002e608     LIBCMT:libm_error.obj
 0002:00011f50       __infinity                 10031f50     LIBCMT:87tran.obj
 0002:00011f5a       __minfinity                10031f5a     LIBCMT:87tran.obj
 0002:00011f64       __logemax                  10031f64     LIBCMT:87tran.obj
 0002:00011f8a       __OP_EXPjmptab             10031f8a     LIBCMT:87tran.obj
 0002:00011fb8       __DEFAULT_CW_in_mem        10031fb8     LIBCMT:common.obj
 0002:00011fba       __pi_by_2_to_61            10031fba     LIBCMT:common.obj
 0002:000150b8       ??_C@_1FK@PGACCAFB@?$AAR?$AA6?$AA0?$AA0?$AA2?$AA?$AN?$AA?6?$AA?9?$AA?5?$AAf?$AAl?$AAo?$AAa?$AAt?$AAi?$AAn?$AAg?$AA?5?$AAp?$AAo?$AAi?$AAn?$AAt?$AA?5?$AAs?$AAu?$AAp?$AAp?$AAo?$AAr?$AAt?$AA?5@ 100350b8     LIBCMT:crt0msg.obj
 0002:00015118       ??_C@_1FE@LLNEDJMD@?$AAR?$AA6?$AA0?$AA0?$AA8?$AA?$AN?$AA?6?$AA?9?$AA?5?$AAn?$AAo?$AAt?$AA?5?$AAe?$AAn?$AAo?$AAu?$AAg?$AAh?$AA?5?$AAs?$AAp?$AAa?$AAc?$AAe?$AA?5?$AAf?$AAo?$AAr?$AA?5?$AAa?$AAr@ 10035118     LIBCMT:crt0msg.obj
 0002:00015170       ??_C@_1FI@HONFMGBI@?$AAR?$AA6?$AA0?$AA0?$AA9?$AA?$AN?$AA?6?$AA?9?$AA?5?$AAn?$AAo?$AAt?$AA?5?$AAe?$AAn?$AAo?$AAu?$AAg?$AAh?$AA?5?$AAs?$AAp?$AAa?$AAc?$AAe?$AA?5?$AAf?$AAo?$AAr?$AA?5?$AAe?$AAn@ 10035170     LIBCMT:crt0msg.obj
 0002:000151c8       ??_C@_1EG@BEHAGFJD@?$AAR?$AA6?$AA0?$AA1?$AA0?$AA?$AN?$AA?6?$AA?9?$AA?5?$AAa?$AAb?$AAo?$AAr?$AAt?$AA?$CI?$AA?$CJ?$AA?5?$AAh?$AAa?$AAs?$AA?5?$AAb?$AAe?$AAe?$AAn?$AA?5?$AAc?$AAa?$AAl?$AAl?$AAe?$AAd@ 100351c8     LIBCMT:crt0msg.obj
 0002:00015210       ??_C@_1FI@LOGNIKDM@?$AAR?$AA6?$AA0?$AA1?$AA6?$AA?$AN?$AA?6?$AA?9?$AA?5?$AAn?$AAo?$AAt?$AA?5?$AAe?$AAn?$AAo?$AAu?$AAg?$AAh?$AA?5?$AAs?$AAp?$AAa?$AAc?$AAe?$AA?5?$AAf?$AAo?$AAr?$AA?5?$AAt?$AAh@ 10035210     LIBCMT:crt0msg.obj
 0002:00015268       ??_C@_1FK@BEOGODMC@?$AAR?$AA6?$AA0?$AA1?$AA7?$AA?$AN?$AA?6?$AA?9?$AA?5?$AAu?$AAn?$AAe?$AAx?$AAp?$AAe?$AAc?$AAt?$AAe?$AAd?$AA?5?$AAm?$AAu?$AAl?$AAt?$AAi?$AAt?$AAh?$AAr?$AAe?$AAa?$AAd?$AA?5@ 10035268     LIBCMT:crt0msg.obj
 0002:000152c8       ??_C@_1EC@JIBHAOPH@?$AAR?$AA6?$AA0?$AA1?$AA8?$AA?$AN?$AA?6?$AA?9?$AA?5?$AAu?$AAn?$AAe?$AAx?$AAp?$AAe?$AAc?$AAt?$AAe?$AAd?$AA?5?$AAh?$AAe?$AAa?$AAp?$AA?5?$AAe?$AAr?$AAr?$AAo?$AAr?$AA?$AN?$AA?6@ 100352c8     LIBCMT:crt0msg.obj
 0002:00015310       ??_C@_1FC@ECHBIFBC@?$AAR?$AA6?$AA0?$AA1?$AA9?$AA?$AN?$AA?6?$AA?9?$AA?5?$AAu?$AAn?$AAa?$AAb?$AAl?$AAe?$AA?5?$AAt?$AAo?$AA?5?$AAo?$AAp?$AAe?$AAn?$AA?5?$AAc?$AAo?$AAn?$AAs?$AAo?$AAl?$AAe?$AA?5@ 10035310     LIBCMT:crt0msg.obj
 0002:00015368       ??_C@_1GK@FHCKBEFA@?$AAR?$AA6?$AA0?$AA2?$AA4?$AA?$AN?$AA?6?$AA?9?$AA?5?$AAn?$AAo?$AAt?$AA?5?$AAe?$AAn?$AAo?$AAu?$AAg?$AAh?$AA?5?$AAs?$AAp?$AAa?$AAc?$AAe?$AA?5?$AAf?$AAo?$AAr?$AA?5?$AA_?$AAo@ 10035368     LIBCMT:crt0msg.obj
 0002:000153d8       ??_C@_1EM@MAADIHMB@?$AAR?$AA6?$AA0?$AA2?$AA5?$AA?$AN?$AA?6?$AA?9?$AA?5?$AAp?$AAu?$AAr?$AAe?$AA?5?$AAv?$AAi?$AAr?$AAt?$AAu?$AAa?$AAl?$AA?5?$AAf?$AAu?$AAn?$AAc?$AAt?$AAi?$AAo?$AAn?$AA?5?$AAc@ 100353d8     LIBCMT:crt0msg.obj
 0002:00015428       ??_C@_1GK@MCAAGJMO@?$AAR?$AA6?$AA0?$AA2?$AA6?$AA?$AN?$AA?6?$AA?9?$AA?5?$AAn?$AAo?$AAt?$AA?5?$AAe?$AAn?$AAo?$AAu?$AAg?$AAh?$AA?5?$AAs?$AAp?$AAa?$AAc?$AAe?$AA?5?$AAf?$AAo?$AAr?$AA?5?$AAs?$AAt@ 10035428     LIBCMT:crt0msg.obj
 0002:00015498       ??_C@_1GK@MFGOKLAG@?$AAR?$AA6?$AA0?$AA2?$AA7?$AA?$AN?$AA?6?$AA?9?$AA?5?$AAn?$AAo?$AAt?$AA?5?$AAe?$AAn?$AAo?$AAu?$AAg?$AAh?$AA?5?$AAs?$AAp?$AAa?$AAc?$AAe?$AA?5?$AAf?$AAo?$AAr?$AA?5?$AAl?$AAo@ 10035498     LIBCMT:crt0msg.obj
 0002:00015508       ??_C@_1EK@HHFLMAOL@?$AAR?$AA6?$AA0?$AA2?$AA8?$AA?$AN?$AA?6?$AA?9?$AA?5?$AAu?$AAn?$AAa?$AAb?$AAl?$AAe?$AA?5?$AAt?$AAo?$AA?5?$AAi?$AAn?$AAi?$AAt?$AAi?$AAa?$AAl?$AAi?$AAz?$AAe?$AA?5?$AAh?$AAe@ 10035508     LIBCMT:crt0msg.obj
 0002:00015554       ??_C@_1DO@BMFCDCD@?$AAR?$AA6?$AA0?$AA3?$AA0?$AA?$AN?$AA?6?$AA?9?$AA?5?$AAC?$AAR?$AAT?$AA?5?$AAn?$AAo?$AAt?$AA?5?$AAi?$AAn?$AAi?$AAt?$AAi?$AAa?$AAl?$AAi?$AAz?$AAe?$AAd?$AA?$AN?$AA?6?$AA?$AA@ 10035554     LIBCMT:crt0msg.obj
 0002:00015598       ??_C@_1MG@ENCOOIDF@?$AAR?$AA6?$AA0?$AA3?$AA1?$AA?$AN?$AA?6?$AA?9?$AA?5?$AAA?$AAt?$AAt?$AAe?$AAm?$AAp?$AAt?$AA?5?$AAt?$AAo?$AA?5?$AAi?$AAn?$AAi?$AAt?$AAi?$AAa?$AAl?$AAi?$AAz?$AAe?$AA?5?$AAt@ 10035598     LIBCMT:crt0msg.obj
 0002:00015660       ??_C@_1GG@GOPILAJP@?$AAR?$AA6?$AA0?$AA3?$AA2?$AA?$AN?$AA?6?$AA?9?$AA?5?$AAn?$AAo?$AAt?$AA?5?$AAe?$AAn?$AAo?$AAu?$AAg?$AAh?$AA?5?$AAs?$AAp?$AAa?$AAc?$AAe?$AA?5?$AAf?$AAo?$AAr?$AA?5?$AAl?$AAo@ 10035660     LIBCMT:crt0msg.obj
 0002:000156c8       ??_C@_1BOO@KGEDBGAJ@?$AAR?$AA6?$AA0?$AA3?$AA3?$AA?$AN?$AA?6?$AA?9?$AA?5?$AAA?$AAt?$AAt?$AAe?$AAm?$AAp?$AAt?$AA?5?$AAt?$AAo?$AA?5?$AAu?$AAs?$AAe?$AA?5?$AAM?$AAS?$AAI?$AAL?$AA?5?$AAc?$AAo?$AAd@ 100356c8     LIBCMT:crt0msg.obj
 0002:000158b8       ??_C@_1GG@MKFPEKFO@?$AAR?$AA6?$AA0?$AA3?$AA4?$AA?$AN?$AA?6?$AA?9?$AA?5?$AAi?$AAn?$AAc?$AAo?$AAn?$AAs?$AAi?$AAs?$AAt?$AAe?$AAn?$AAt?$AA?5?$AAo?$AAn?$AAe?$AAx?$AAi?$AAt?$AA?5?$AAb?$AAe?$AAg@ 100358b8     LIBCMT:crt0msg.obj
 0002:00015920       ??_C@_1BO@BFCDCGC@?$AAD?$AAO?$AAM?$AAA?$AAI?$AAN?$AA?5?$AAe?$AAr?$AAr?$AAo?$AAr?$AA?$AN?$AA?6?$AA?$AA@ 10035920     LIBCMT:crt0msg.obj
 0002:00015940       ??_C@_1BK@KMOMNAAI@?$AAS?$AAI?$AAN?$AAG?$AA?5?$AAe?$AAr?$AAr?$AAo?$AAr?$AA?$AN?$AA?6?$AA?$AA@ 10035940     LIBCMT:crt0msg.obj
 0002:0001595c       ??_C@_1BM@JBBEPPHI@?$AAT?$AAL?$AAO?$AAS?$AAS?$AA?5?$AAe?$AAr?$AAr?$AAo?$AAr?$AA?$AN?$AA?6?$AA?$AA@ 1003595c     LIBCMT:crt0msg.obj
 0002:00015978       ??_C@_15JNBOKNOG@?$AA?$AN?$AA?6?$AA?$AA@ 10035978     LIBCMT:crt0msg.obj
 0002:00015980       ??_C@_1BO@BKOMIGKJ@?$AAr?$AAu?$AAn?$AAt?$AAi?$AAm?$AAe?$AA?5?$AAe?$AAr?$AAr?$AAo?$AAr?$AA?5?$AA?$AA@ 10035980     LIBCMT:crt0msg.obj
 0002:000159a0       ??_C@_1DE@JNGNBFGO@?$AAR?$AAu?$AAn?$AAt?$AAi?$AAm?$AAe?$AA?5?$AAE?$AAr?$AAr?$AAo?$AAr?$AA?$CB?$AA?6?$AA?6?$AAP?$AAr?$AAo?$AAg?$AAr?$AAa?$AAm?$AA?3?$AA?5?$AA?$AA@ 100359a0     LIBCMT:crt0msg.obj
 0002:000159d4       ??_C@_1CO@EAEJAADC@?$AA?$DM?$AAp?$AAr?$AAo?$AAg?$AAr?$AAa?$AAm?$AA?5?$AAn?$AAa?$AAm?$AAe?$AA?5?$AAu?$AAn?$AAk?$AAn?$AAo?$AAw?$AAn?$AA?$DO?$AA?$AA@ 100359d4     LIBCMT:crt0msg.obj
 0002:00015a04       ??_C@_17LGKOMLJ@?$AA?4?$AA?4?$AA?4?$AA?$AA@ 10035a04     LIBCMT:crt0msg.obj
 0002:00015a0c       ??_C@_15IABLJNFO@?$AA?6?$AA?6?$AA?$AA@ 10035a0c     LIBCMT:crt0msg.obj
 0002:00015a18       ??_C@_1EK@MBDPDCGA@?$AAM?$AAi?$AAc?$AAr?$AAo?$AAs?$AAo?$AAf?$AAt?$AA?5?$AAV?$AAi?$AAs?$AAu?$AAa?$AAl?$AA?5?$AAC?$AA?$CL?$AA?$CL?$AA?5?$AAR?$AAu?$AAn?$AAt?$AAi?$AAm?$AAe?$AA?5?$AAL?$AAi?$AAb@ 10035a18     LIBCMT:crt0msg.obj
 0002:00015a68       _LcidToLocaleNameTable     10035a68     LIBCMT:winapinls.obj
 0002:00016188       _LocaleNameToIndexTable    10036188     LIBCMT:winapinls.obj
 0002:000168a8       ??_C@_15EMKDOKLE@?$AAa?$AAr?$AA?$AA@ 100368a8     LIBCMT:winapinls.obj
 0002:000168b0       ??_C@_15KNPADPLH@?$AAb?$AAg?$AA?$AA@ 100368b0     LIBCMT:winapinls.obj
 0002:000168b8       ??_C@_15EDMHLDMO@?$AAc?$AAa?$AA?$AA@ 100368b8     LIBCMT:winapinls.obj
 0002:000168c0       ??_C@_1O@BPEAJADD@?$AAz?$AAh?$AA?9?$AAC?$AAH?$AAS?$AA?$AA@ 100368c0     LIBCMT:winapinls.obj
 0002:000168d0       ??_C@_15LJNHCMNK@?$AAc?$AAs?$AA?$AA@ 100368d0     LIBCMT:winapinls.obj
 0002:000168d8       ??_C@_15FOMCIDHG@?$AAd?$AAa?$AA?$AA@ 100368d8     LIBCMT:winapinls.obj
 0002:000168e0       ??_C@_15NBKABECB@?$AAd?$AAe?$AA?$AA@ 100368e0     LIBCMT:winapinls.obj
 0002:000168e8       ??_C@_15GHPEIIAO@?$AAe?$AAl?$AA?$AA@ 100368e8     LIBCMT:winapinls.obj
 0002:000168f0       ??_C@_15MNPNEAIF@?$AAe?$AAn?$AA?$AA@ 100368f0     LIBCMT:winapinls.obj
 0002:000168f8       ??_C@_15GPIOMPMH@?$AAe?$AAs?$AA?$AA@ 100368f8     LIBCMT:winapinls.obj
 0002:00016900       ??_C@_15NGLOAKJC@?$AAf?$AAi?$AA?$AA@ 10036900     LIBCMT:winapinls.obj
 0002:00016908       ??_C@_15FBKGNKAM@?$AAf?$AAr?$AA?$AA@ 10036908     LIBCMT:winapinls.obj
 0002:00016910       ??_C@_15KGGCNEFK@?$AAh?$AAe?$AA?$AA@ 10036910     LIBCMT:winapinls.obj
 0002:00016918       ??_C@_15PGHLIDMF@?$AAh?$AAu?$AA?$AA@ 10036918     LIBCMT:winapinls.obj
 0002:00016920       ??_C@_15BIEMAPLM@?$AAi?$AAs?$AA?$AA@ 10036920     LIBCMT:winapinls.obj
 0002:00016928       ??_C@_15IFJLDHAF@?$AAi?$AAt?$AA?$AA@ 10036928     LIBCMT:winapinls.obj
 0002:00016930       ??_C@_15GEMIOCAG@?$AAj?$AAa?$AA?$AA@ 10036930     LIBCMT:winapinls.obj
 0002:00016938       ??_C@_15EPELEGJA@?$AAk?$AAo?$AA?$AA@ 10036938     LIBCMT:winapinls.obj
 0002:00016940       ??_C@_15NDDHIMN@?$AAn?$AAl?$AA?$AA@ 10036940     LIBCMT:winapinls.obj
 0002:00016948       ??_C@_15BPIGNHCD@?$AAn?$AAo?$AA?$AA@ 10036948     LIBCMT:winapinls.obj
 0002:00016950       ??_C@_15DEOPBLCG@?$AAp?$AAl?$AA?$AA@ 10036950     LIBCMT:winapinls.obj
 0002:00016958       ??_C@_15KBECGEFG@?$AAp?$AAt?$AA?$AA@ 10036958     LIBCMT:winapinls.obj
 0002:00016960       ??_C@_15GLJCBFMD@?$AAr?$AAo?$AA?$AA@ 10036960     LIBCMT:winapinls.obj
 0002:00016968       ??_C@_15FEDGKCDI@?$AAr?$AAu?$AA?$AA@ 10036968     LIBCMT:winapinls.obj
 0002:00016970       ??_C@_15GLKMLLHM@?$AAh?$AAr?$AA?$AA@ 10036970     LIBCMT:winapinls.obj
 0002:00016978       ??_C@_15CPKMFBDB@?$AAs?$AAk?$AA?$AA@ 10036978     LIBCMT:winapinls.obj
 0002:00016980       ??_C@_15BAAIOGMK@?$AAs?$AAq?$AA?$AA@ 10036980     LIBCMT:winapinls.obj
 0002:00016988       ??_C@_15INNPNOHD@?$AAs?$AAv?$AA?$AA@ 10036988     LIBCMT:winapinls.obj
 0002:00016990       ??_C@_15CABMMOGH@?$AAt?$AAh?$AA?$AA@ 10036990     LIBCMT:winapinls.obj
 0002:00016998       ??_C@_15BPLIHJJM@?$AAt?$AAr?$AA?$AA@ 10036998     LIBCMT:winapinls.obj
 0002:000169a0       ??_C@_15NEOEKKDJ@?$AAu?$AAr?$AA?$AA@ 100369a0     LIBCMT:winapinls.obj
 0002:000169a8       ??_C@_15NFICGAJK@?$AAi?$AAd?$AA?$AA@ 100369a8     LIBCMT:winapinls.obj
 0002:000169b0       ??_C@_15PJPFLCCM@?$AAu?$AAk?$AA?$AA@ 100369b0     LIBCMT:winapinls.obj
 0002:000169b8       ??_C@_15HPJPHDM@?$AAb?$AAe?$AA?$AA@ 100369b8     LIBCMT:winapinls.obj
 0002:000169c0       ??_C@_15LCHLGJII@?$AAs?$AAl?$AA?$AA@ 100369c0     LIBCMT:winapinls.obj
 0002:000169c8       ??_C@_15PCFJPHHO@?$AAe?$AAt?$AA?$AA@ 100369c8     LIBCMT:winapinls.obj
 0002:000169d0       ??_C@_15HPFPGODN@?$AAl?$AAv?$AA?$AA@ 100369d0     LIBCMT:winapinls.obj
 0002:000169d8       ??_C@_15NFFGKGLG@?$AAl?$AAt?$AA?$AA@ 100369d8     LIBCMT:winapinls.obj
 0002:000169e0       ??_C@_15BDAKCCHN@?$AAf?$AAa?$AA?$AA@ 100369e0     LIBCMT:winapinls.obj
 0002:000169e8       ??_C@_15NFGIAIAJ@?$AAv?$AAi?$AA?$AA@ 100369e8     LIBCMT:winapinls.obj
 0002:000169f0       ??_C@_15LMKNDMHN@?$AAh?$AAy?$AA?$AA@ 100369f0     LIBCMT:winapinls.obj
 0002:000169f8       ??_C@_15IJBHMCFL@?$AAa?$AAz?$AA?$AA@ 100369f8     LIBCMT:winapinls.obj
 0002:00016a00       ??_C@_15EKOFJABL@?$AAe?$AAu?$AA?$AA@ 10036a00     LIBCMT:winapinls.obj
 0002:00016a08       ??_C@_15BGHADCNK@?$AAm?$AAk?$AA?$AA@ 10036a08     LIBCMT:winapinls.obj
 0002:00016a10       ??_C@_15JDNICKHM@?$AAa?$AAf?$AA?$AA@ 10036a10     LIBCMT:winapinls.obj
 0002:00016a18       ??_C@_15KPJEDBKD@?$AAk?$AAa?$AA?$AA@ 10036a18     LIBCMT:winapinls.obj
 0002:00016a20       ??_C@_15PDNFFFEO@?$AAf?$AAo?$AA?$AA@ 10036a20     LIBCMT:winapinls.obj
 0002:00016a28       ??_C@_15OMLEGLOC@?$AAh?$AAi?$AA?$AA@ 10036a28     LIBCMT:winapinls.obj
 0002:00016a30       ??_C@_15IDNNENKK@?$AAm?$AAs?$AA?$AA@ 10036a30     LIBCMT:winapinls.obj
 0002:00016a38       ??_C@_15MACJNBMH@?$AAk?$AAk?$AA?$AA@ 10036a38     LIBCMT:winapinls.obj
 0002:00016a40       ??_C@_15DKDJEOND@?$AAk?$AAy?$AA?$AA@ 10036a40     LIBCMT:winapinls.obj
 0002:00016a48       ??_C@_15DFGDLJBG@?$AAs?$AAw?$AA?$AA@ 10036a48     LIBCMT:winapinls.obj
 0002:00016a50       ??_C@_15BBFAICNG@?$AAu?$AAz?$AA?$AA@ 10036a50     LIBCMT:winapinls.obj
 0002:00016a58       ??_C@_15DKNDCGEA@?$AAt?$AAt?$AA?$AA@ 10036a58     LIBCMT:winapinls.obj
 0002:00016a60       ??_C@_15MGIFMDPL@?$AAp?$AAa?$AA?$AA@ 10036a60     LIBCMT:winapinls.obj
 0002:00016a68       ??_C@_15HCNDBBA@?$AAg?$AAu?$AA?$AA@ 10036a68     LIBCMT:winapinls.obj
 0002:00016a70       ??_C@_15FNBEIBON@?$AAt?$AAa?$AA?$AA@ 10036a70     LIBCMT:winapinls.obj
 0002:00016a78       ??_C@_15NCHGBGLK@?$AAt?$AAe?$AA?$AA@ 10036a78     LIBCMT:winapinls.obj
 0002:00016a80       ??_C@_15PHPHCBPF@?$AAk?$AAn?$AA?$AA@ 10036a80     LIBCMT:winapinls.obj
 0002:00016a88       ??_C@_15DLGBCKMP@?$AAm?$AAr?$AA?$AA@ 10036a88     LIBCMT:winapinls.obj
 0002:00016a90       ??_C@_15EABBLBFF@?$AAs?$AAa?$AA?$AA@ 10036a90     LIBCMT:winapinls.obj
 0002:00016a98       ??_C@_15CBKOMCOI@?$AAm?$AAn?$AA?$AA@ 10036a98     LIBCMT:winapinls.obj
 0002:00016aa0       ??_C@_15CKDMCJAF@?$AAg?$AAl?$AA?$AA@ 10036aa0     LIBCMT:winapinls.obj
 0002:00016aa8       ??_C@_17CNJFBPG@?$AAk?$AAo?$AAk?$AA?$AA@ 10036aa8     LIBCMT:winapinls.obj
 0002:00016ab0       ??_C@_17FFBJICPL@?$AAs?$AAy?$AAr?$AA?$AA@ 10036ab0     LIBCMT:winapinls.obj
 0002:00016ab8       ??_C@_17KPNDCPAF@?$AAd?$AAi?$AAv?$AA?$AA@ 10036ab8     LIBCMT:winapinls.obj
 0002:00016ac0       ??_C@_11LOCGONAA@?$AA?$AA@ 10036ac0     LIBCMT:winapinls.obj
 0002:00016ac4       ??_C@_1M@OKAHONE@?$AAa?$AAr?$AA?9?$AAS?$AAA?$AA?$AA@ 10036ac4     LIBCMT:winapinls.obj
 0002:00016ad0       ??_C@_1M@FFFIGIGK@?$AAb?$AAg?$AA?9?$AAB?$AAG?$AA?$AA@ 10036ad0     LIBCMT:winapinls.obj
 0002:00016adc       ??_C@_1M@BJNKEDC@?$AAc?$AAa?$AA?9?$AAE?$AAS?$AA?$AA@ 10036adc     LIBCMT:winapinls.obj
 0002:00016ae8       ??_C@_1M@IJJHFJHA@?$AAc?$AAs?$AA?9?$AAC?$AAZ?$AA?$AA@ 10036ae8     LIBCMT:winapinls.obj
 0002:00016af4       ??_C@_1M@CLPEOBGI@?$AAd?$AAa?$AA?9?$AAD?$AAK?$AA?$AA@ 10036af4     LIBCMT:winapinls.obj
 0002:00016b00       ??_C@_1M@MCMADGCB@?$AAd?$AAe?$AA?9?$AAD?$AAE?$AA?$AA@ 10036b00     LIBCMT:winapinls.obj
 0002:00016b0c       ??_C@_1M@OOCKEMAM@?$AAe?$AAl?$AA?9?$AAG?$AAR?$AA?$AA@ 10036b0c     LIBCMT:winapinls.obj
 0002:00016b18       ??_C@_1M@DDNJFGID@?$AAf?$AAi?$AA?9?$AAF?$AAI?$AA?$AA@ 10036b18     LIBCMT:winapinls.obj
 0002:00016b24       ??_C@_1M@GLIPPMAC@?$AAf?$AAr?$AA?9?$AAF?$AAR?$AA?$AA@ 10036b24     LIBCMT:winapinls.obj
 0002:00016b30       ??_C@_1M@GFMCHPE@?$AAh?$AAe?$AA?9?$AAI?$AAL?$AA?$AA@ 10036b30     LIBCMT:winapinls.obj
 0002:00016b3c       ??_C@_1M@MHLPGNKM@?$AAh?$AAu?$AA?9?$AAH?$AAU?$AA?$AA@ 10036b3c     LIBCMT:winapinls.obj
 0002:00016b48       ??_C@_1M@LPDDNNPN@?$AAi?$AAs?$AA?9?$AAI?$AAS?$AA?$AA@ 10036b48     LIBCMT:winapinls.obj
 0002:00016b54       ??_C@_1M@MADIPODN@?$AAi?$AAt?$AA?9?$AAI?$AAT?$AA?$AA@ 10036b54     LIBCMT:winapinls.obj
 0002:00016b60       ??_C@_1M@IHBJJGG@?$AAn?$AAl?$AA?9?$AAN?$AAL?$AA?$AA@ 10036b60     LIBCMT:winapinls.obj
 0002:00016b6c       ??_C@_1M@EANAGDL@?$AAn?$AAb?$AA?9?$AAN?$AAO?$AA?$AA@ 10036b6c     LIBCMT:winapinls.obj
 0002:00016b78       ??_C@_1M@NEIEMEGP@?$AAp?$AAl?$AA?9?$AAP?$AAL?$AA?$AA@ 10036b78     LIBCMT:winapinls.obj
 0002:00016b84       ??_C@_1M@BOCFIGEP@?$AAp?$AAt?$AA?9?$AAB?$AAR?$AA?$AA@ 10036b84     LIBCMT:winapinls.obj
 0002:00016b90       ??_C@_1M@IMPFOPBG@?$AAr?$AAo?$AA?9?$AAR?$AAO?$AA?$AA@ 10036b90     LIBCMT:winapinls.obj
 0002:00016b9c       ??_C@_1M@IDNNEJMM@?$AAr?$AAu?$AA?9?$AAR?$AAU?$AA?$AA@ 10036b9c     LIBCMT:winapinls.obj
 0002:00016ba8       ??_C@_1M@LILEEOGM@?$AAh?$AAr?$AA?9?$AAH?$AAR?$AA?$AA@ 10036ba8     LIBCMT:winapinls.obj
 0002:00016bb4       ??_C@_1M@FKIFEHPB@?$AAs?$AAk?$AA?9?$AAS?$AAK?$AA?$AA@ 10036bb4     LIBCMT:winapinls.obj
 0002:00016bc0       ??_C@_1M@LJMAMNPJ@?$AAs?$AAq?$AA?9?$AAA?$AAL?$AA?$AA@ 10036bc0     LIBCMT:winapinls.obj
 0002:00016bcc       ??_C@_1M@GIAKDKJK@?$AAs?$AAv?$AA?9?$AAS?$AAE?$AA?$AA@ 10036bcc     LIBCMT:winapinls.obj
 0002:00016bd8       ??_C@_1M@MKJKIKCL@?$AAt?$AAh?$AA?9?$AAT?$AAH?$AA?$AA@ 10036bd8     LIBCMT:winapinls.obj
 0002:00016be4       ??_C@_1M@MFLCCMPB@?$AAt?$AAr?$AA?9?$AAT?$AAR?$AA?$AA@ 10036be4     LIBCMT:winapinls.obj
 0002:00016bf0       ??_C@_1M@OIJHDKJN@?$AAu?$AAr?$AA?9?$AAP?$AAK?$AA?$AA@ 10036bf0     LIBCMT:winapinls.obj
 0002:00016bfc       ??_C@_1M@LHIPCIEK@?$AAi?$AAd?$AA?9?$AAI?$AAD?$AA?$AA@ 10036bfc     LIBCMT:winapinls.obj
 0002:00016c08       ??_C@_1M@MFMOBGI@?$AAu?$AAk?$AA?9?$AAU?$AAA?$AA?$AA@ 10036c08     LIBCMT:winapinls.obj
 0002:00016c14       ??_C@_1M@OBGLJIPL@?$AAb?$AAe?$AA?9?$AAB?$AAY?$AA?$AA@ 10036c14     LIBCMT:winapinls.obj
 0002:00016c20       ??_C@_1M@BCFAJEAD@?$AAs?$AAl?$AA?9?$AAS?$AAI?$AA?$AA@ 10036c20     LIBCMT:winapinls.obj
 0002:00016c2c       ??_C@_1M@FKFFEDDN@?$AAe?$AAt?$AA?9?$AAE?$AAE?$AA?$AA@ 10036c2c     LIBCMT:winapinls.obj
 0002:00016c38       ??_C@_1M@KGKKAACI@?$AAl?$AAv?$AA?9?$AAL?$AAV?$AA?$AA@ 10036c38     LIBCMT:winapinls.obj
 0002:00016c44       ??_C@_1M@IFGBIJO@?$AAl?$AAt?$AA?9?$AAL?$AAT?$AA?$AA@ 10036c44     LIBCMT:winapinls.obj
 0002:00016c50       ??_C@_1M@FGEAHEDM@?$AAf?$AAa?$AA?9?$AAI?$AAR?$AA?$AA@ 10036c50     LIBCMT:winapinls.obj
 0002:00016c5c       ??_C@_1M@KBMAIBFN@?$AAv?$AAi?$AA?9?$AAV?$AAN?$AA?$AA@ 10036c5c     LIBCMT:winapinls.obj
 0002:00016c68       ??_C@_1M@GPCBKDJK@?$AAh?$AAy?$AA?9?$AAA?$AAM?$AA?$AA@ 10036c68     LIBCMT:winapinls.obj
 0002:00016c74       ??_C@_1BG@BECMDDJB@?$AAa?$AAz?$AA?9?$AAA?$AAZ?$AA?9?$AAL?$AAa?$AAt?$AAn?$AA?$AA@ 10036c74     LIBCMT:winapinls.obj
 0002:00016c8c       ??_C@_1M@MAOFCAEA@?$AAe?$AAu?$AA?9?$AAE?$AAS?$AA?$AA@ 10036c8c     LIBCMT:winapinls.obj
 0002:00016c98       ??_C@_1M@IGHABKPI@?$AAm?$AAk?$AA?9?$AAM?$AAK?$AA?$AA@ 10036c98     LIBCMT:winapinls.obj
 0002:00016ca4       ??_C@_1M@IAIGNEJG@?$AAt?$AAn?$AA?9?$AAZ?$AAA?$AA?$AA@ 10036ca4     LIBCMT:winapinls.obj
 0002:00016cb0       ??_C@_1M@IIJCOJFA@?$AAx?$AAh?$AA?9?$AAZ?$AAA?$AA?$AA@ 10036cb0     LIBCMT:winapinls.obj
 0002:00016cbc       ??_C@_1M@LGPJHNJH@?$AAz?$AAu?$AA?9?$AAZ?$AAA?$AA?$AA@ 10036cbc     LIBCMT:winapinls.obj
 0002:00016cc8       ??_C@_1M@HOKAOIO@?$AAa?$AAf?$AA?9?$AAZ?$AAA?$AA?$AA@ 10036cc8     LIBCMT:winapinls.obj
 0002:00016cd4       ??_C@_1M@DPCLHLIE@?$AAk?$AAa?$AA?9?$AAG?$AAE?$AA?$AA@ 10036cd4     LIBCMT:winapinls.obj
 0002:00016ce0       ??_C@_1M@BLKMHJBI@?$AAf?$AAo?$AA?9?$AAF?$AAO?$AA?$AA@ 10036ce0     LIBCMT:winapinls.obj
 0002:00016cec       ??_C@_1M@LGGJAPPB@?$AAh?$AAi?$AA?9?$AAI?$AAN?$AA?$AA@ 10036cec     LIBCMT:winapinls.obj
 0002:00016cf8       ??_C@_1M@FIKPIHFE@?$AAm?$AAt?$AA?9?$AAM?$AAT?$AA?$AA@ 10036cf8     LIBCMT:winapinls.obj
 0002:00016d04       ??_C@_1M@HEGGPBFA@?$AAs?$AAe?$AA?9?$AAN?$AAO?$AA?$AA@ 10036d04     LIBCMT:winapinls.obj
 0002:00016d10       ??_C@_1M@EIBJEEPA@?$AAm?$AAs?$AA?9?$AAM?$AAY?$AA?$AA@ 10036d10     LIBCMT:winapinls.obj
 0002:00016d1c       ??_C@_1M@FHLBGMPP@?$AAk?$AAk?$AA?9?$AAK?$AAZ?$AA?$AA@ 10036d1c     LIBCMT:winapinls.obj
 0002:00016d28       ??_C@_1M@NGJJLCGI@?$AAk?$AAy?$AA?9?$AAK?$AAG?$AA?$AA@ 10036d28     LIBCMT:winapinls.obj
 0002:00016d34       ??_C@_1M@GIENNBFC@?$AAs?$AAw?$AA?9?$AAK?$AAE?$AA?$AA@ 10036d34     LIBCMT:winapinls.obj
 0002:00016d40       ??_C@_1BG@NDGMJIMJ@?$AAu?$AAz?$AA?9?$AAU?$AAZ?$AA?9?$AAL?$AAa?$AAt?$AAn?$AA?$AA@ 10036d40     LIBCMT:winapinls.obj
 0002:00016d58       ??_C@_1M@IDCCIHBC@?$AAt?$AAt?$AA?9?$AAR?$AAU?$AA?$AA@ 10036d58     LIBCMT:winapinls.obj
 0002:00016d64       ??_C@_1M@LOICPMOJ@?$AAb?$AAn?$AA?9?$AAI?$AAN?$AA?$AA@ 10036d64     LIBCMT:winapinls.obj
 0002:00016d70       ??_C@_1M@KPKKNEAH@?$AAp?$AAa?$AA?9?$AAI?$AAN?$AA?$AA@ 10036d70     LIBCMT:winapinls.obj
 0002:00016d7c       ??_C@_1M@PJGPPBOG@?$AAg?$AAu?$AA?9?$AAI?$AAN?$AA?$AA@ 10036d7c     LIBCMT:winapinls.obj
 0002:00016d88       ??_C@_1M@KMKMOPHI@?$AAt?$AAa?$AA?9?$AAI?$AAN?$AA?$AA@ 10036d88     LIBCMT:winapinls.obj
 0002:00016d94       ??_C@_1M@KFEHEPAC@?$AAt?$AAe?$AA?9?$AAI?$AAN?$AA?$AA@ 10036d94     LIBCMT:winapinls.obj
 0002:00016da0       ??_C@_1M@CDCLMGHI@?$AAk?$AAn?$AA?9?$AAI?$AAN?$AA?$AA@ 10036da0     LIBCMT:winapinls.obj
 0002:00016dac       ??_C@_1M@MIODLDKF@?$AAm?$AAl?$AA?9?$AAI?$AAN?$AA?$AA@ 10036dac     LIBCMT:winapinls.obj
 0002:00016db8       ??_C@_1M@PBIEACPO@?$AAm?$AAr?$AA?9?$AAI?$AAN?$AA?$AA@ 10036db8     LIBCMT:winapinls.obj
 0002:00016dc4       ??_C@_1M@NIDEAGPH@?$AAs?$AAa?$AA?9?$AAI?$AAN?$AA?$AA@ 10036dc4     LIBCMT:winapinls.obj
 0002:00016dd0       ??_C@_1M@FHIHCBIO@?$AAm?$AAn?$AA?9?$AAM?$AAN?$AA?$AA@ 10036dd0     LIBCMT:winapinls.obj
 0002:00016ddc       ??_C@_1M@JAIJPENP@?$AAc?$AAy?$AA?9?$AAG?$AAB?$AA?$AA@ 10036ddc     LIBCMT:winapinls.obj
 0002:00016de8       ??_C@_1M@PHGFBEPN@?$AAg?$AAl?$AA?9?$AAE?$AAS?$AA?$AA@ 10036de8     LIBCMT:winapinls.obj
 0002:00016df4       ??_C@_1O@KPIPDNCP@?$AAk?$AAo?$AAk?$AA?9?$AAI?$AAN?$AA?$AA@ 10036df4     LIBCMT:winapinls.obj
 0002:00016e04       ??_C@_1O@KNHJLDJA@?$AAs?$AAy?$AAr?$AA?9?$AAS?$AAY?$AA?$AA@ 10036e04     LIBCMT:winapinls.obj
 0002:00016e14       ??_C@_1O@MKEKBLAH@?$AAd?$AAi?$AAv?$AA?9?$AAM?$AAV?$AA?$AA@ 10036e14     LIBCMT:winapinls.obj
 0002:00016e24       ??_C@_1O@OHDCKDDF@?$AAq?$AAu?$AAz?$AA?9?$AAB?$AAO?$AA?$AA@ 10036e24     LIBCMT:winapinls.obj
 0002:00016e34       ??_C@_1M@LEPJNLFD@?$AAn?$AAs?$AA?9?$AAZ?$AAA?$AA?$AA@ 10036e34     LIBCMT:winapinls.obj
 0002:00016e40       ??_C@_1M@OMLEIIJB@?$AAm?$AAi?$AA?9?$AAN?$AAZ?$AA?$AA@ 10036e40     LIBCMT:winapinls.obj
 0002:00016e4c       ??_C@_1M@PMPEAILG@?$AAa?$AAr?$AA?9?$AAI?$AAQ?$AA?$AA@ 10036e4c     LIBCMT:winapinls.obj
 0002:00016e58       ??_C@_1M@CNKPNOEE@?$AAd?$AAe?$AA?9?$AAC?$AAH?$AA?$AA@ 10036e58     LIBCMT:winapinls.obj
 0002:00016e64       ??_C@_1M@LKMGMLKO@?$AAe?$AAn?$AA?9?$AAG?$AAB?$AA?$AA@ 10036e64     LIBCMT:winapinls.obj
 0002:00016e70       ??_C@_1M@PGKJFFGL@?$AAe?$AAs?$AA?9?$AAM?$AAX?$AA?$AA@ 10036e70     LIBCMT:winapinls.obj
 0002:00016e7c       ??_C@_1M@DNNANBDC@?$AAf?$AAr?$AA?9?$AAB?$AAE?$AA?$AA@ 10036e7c     LIBCMT:winapinls.obj
 0002:00016e88       ??_C@_1M@HLGMDFHM@?$AAi?$AAt?$AA?9?$AAC?$AAH?$AA?$AA@ 10036e88     LIBCMT:winapinls.obj
 0002:00016e94       ??_C@_1M@CLLBGJH@?$AAn?$AAl?$AA?9?$AAB?$AAE?$AA?$AA@ 10036e94     LIBCMT:winapinls.obj
 0002:00016ea0       ??_C@_1M@BODBOGLF@?$AAn?$AAn?$AA?9?$AAN?$AAO?$AA?$AA@ 10036ea0     LIBCMT:winapinls.obj
 0002:00016eac       ??_C@_1M@HFFAHKAD@?$AAp?$AAt?$AA?9?$AAP?$AAT?$AA?$AA@ 10036eac     LIBCMT:winapinls.obj
 0002:00016eb8       ??_C@_1BG@LNOAKHIE@?$AAs?$AAr?$AA?9?$AAS?$AAP?$AA?9?$AAL?$AAa?$AAt?$AAn?$AA?$AA@ 10036eb8     LIBCMT:winapinls.obj
 0002:00016ed0       ??_C@_1M@HBMHBGAK@?$AAs?$AAv?$AA?9?$AAF?$AAI?$AA?$AA@ 10036ed0     LIBCMT:winapinls.obj
 0002:00016edc       ??_C@_1BG@DGCJGJBE@?$AAa?$AAz?$AA?9?$AAA?$AAZ?$AA?9?$AAC?$AAy?$AAr?$AAl?$AA?$AA@ 10036edc     LIBCMT:winapinls.obj
 0002:00016ef4       ??_C@_1M@KEJDAAHB@?$AAs?$AAe?$AA?9?$AAS?$AAE?$AA?$AA@ 10036ef4     LIBCMT:winapinls.obj
 0002:00016f00       ??_C@_1M@HEIBJJAD@?$AAm?$AAs?$AA?9?$AAB?$AAN?$AA?$AA@ 10036f00     LIBCMT:winapinls.obj
 0002:00016f0c       ??_C@_1BG@PBGJMCEM@?$AAu?$AAz?$AA?9?$AAU?$AAZ?$AA?9?$AAC?$AAy?$AAr?$AAl?$AA?$AA@ 10036f0c     LIBCMT:winapinls.obj
 0002:00016f24       ??_C@_1O@LAOBCMDF@?$AAq?$AAu?$AAz?$AA?9?$AAE?$AAC?$AA?$AA@ 10036f24     LIBCMT:winapinls.obj
 0002:00016f34       ??_C@_1M@POEEMAIO@?$AAa?$AAr?$AA?9?$AAE?$AAG?$AA?$AA@ 10036f34     LIBCMT:winapinls.obj
 0002:00016f40       ??_C@_1M@EFAKDEDL@?$AAz?$AAh?$AA?9?$AAH?$AAK?$AA?$AA@ 10036f40     LIBCMT:winapinls.obj
 0002:00016f4c       ??_C@_1M@HKKIJHGI@?$AAd?$AAe?$AA?9?$AAA?$AAT?$AA?$AA@ 10036f4c     LIBCMT:winapinls.obj
 0002:00016f58       ??_C@_1M@KBFBEHJF@?$AAe?$AAn?$AA?9?$AAA?$AAU?$AA?$AA@ 10036f58     LIBCMT:winapinls.obj
 0002:00016f64       ??_C@_1M@MNPLFAAH@?$AAe?$AAs?$AA?9?$AAE?$AAS?$AA?$AA@ 10036f64     LIBCMT:winapinls.obj
 0002:00016f70       ??_C@_1M@HJOOJFMA@?$AAf?$AAr?$AA?9?$AAC?$AAA?$AA?$AA@ 10036f70     LIBCMT:winapinls.obj
 0002:00016f7c       ??_C@_1BG@JPOFPNAB@?$AAs?$AAr?$AA?9?$AAS?$AAP?$AA?9?$AAC?$AAy?$AAr?$AAl?$AA?$AA@ 10036f7c     LIBCMT:winapinls.obj
 0002:00016f94       ??_C@_1M@LNFOCMOB@?$AAs?$AAe?$AA?9?$AAF?$AAI?$AA?$AA@ 10036f94     LIBCMT:winapinls.obj
 0002:00016fa0       ??_C@_1O@MGJBOAMB@?$AAq?$AAu?$AAz?$AA?9?$AAP?$AAE?$AA?$AA@ 10036fa0     LIBCMT:winapinls.obj
 0002:00016fb0       ??_C@_1M@GJINLBOK@?$AAa?$AAr?$AA?9?$AAL?$AAY?$AA?$AA@ 10036fb0     LIBCMT:winapinls.obj
 0002:00016fbc       ??_C@_1M@GGMNHJNL@?$AAz?$AAh?$AA?9?$AAS?$AAG?$AA?$AA@ 10036fbc     LIBCMT:winapinls.obj
 0002:00016fc8       ??_C@_1M@HOIKODND@?$AAd?$AAe?$AA?9?$AAL?$AAU?$AA?$AA@ 10036fc8     LIBCMT:winapinls.obj
 0002:00016fd4       ??_C@_1M@DDOCCGFG@?$AAe?$AAn?$AA?9?$AAC?$AAA?$AA?$AA@ 10036fd4     LIBCMT:winapinls.obj
 0002:00016fe0       ??_C@_1M@BNOEMJLF@?$AAe?$AAs?$AA?9?$AAG?$AAT?$AA?$AA@ 10036fe0     LIBCMT:winapinls.obj
 0002:00016fec       ??_C@_1M@EOGNKEK@?$AAf?$AAr?$AA?9?$AAC?$AAH?$AA?$AA@ 10036fec     LIBCMT:winapinls.obj
 0002:00016ff8       ??_C@_1M@FLIDJFHL@?$AAh?$AAr?$AA?9?$AAB?$AAA?$AA?$AA@ 10036ff8     LIBCMT:winapinls.obj
 0002:00017004       ??_C@_1O@FMCELNAJ@?$AAs?$AAm?$AAj?$AA?9?$AAN?$AAO?$AA?$AA@ 10037004     LIBCMT:winapinls.obj
 0002:00017014       ??_C@_1M@JHGLJMGJ@?$AAa?$AAr?$AA?9?$AAD?$AAZ?$AA?$AA@ 10037014     LIBCMT:winapinls.obj
 0002:00017020       ??_C@_1M@JKKFDCNP@?$AAz?$AAh?$AA?9?$AAM?$AAO?$AA?$AA@ 10037020     LIBCMT:winapinls.obj
 0002:0001702c       ??_C@_1M@GEEFALPE@?$AAd?$AAe?$AA?9?$AAL?$AAI?$AA?$AA@ 1003702c     LIBCMT:winapinls.obj
 0002:00017038       ??_C@_1M@IGEOFBG@?$AAe?$AAn?$AA?9?$AAN?$AAZ?$AA?$AA@ 10037038     LIBCMT:winapinls.obj
 0002:00017044       ??_C@_1M@KDBONEHP@?$AAe?$AAs?$AA?9?$AAC?$AAR?$AA?$AA@ 10037044     LIBCMT:winapinls.obj
 0002:00017050       ??_C@_1M@FHMDOHNN@?$AAf?$AAr?$AA?9?$AAL?$AAU?$AA?$AA@ 10037050     LIBCMT:winapinls.obj
 0002:0001705c       ??_C@_1BG@NFKKMAFG@?$AAb?$AAs?$AA?9?$AAB?$AAA?$AA?9?$AAL?$AAa?$AAt?$AAn?$AA?$AA@ 1003705c     LIBCMT:winapinls.obj
 0002:00017074       ??_C@_1O@IMNBEMCI@?$AAs?$AAm?$AAj?$AA?9?$AAS?$AAE?$AA?$AA@ 10037074     LIBCMT:winapinls.obj
 0002:00017084       ??_C@_1M@DHHMBNDP@?$AAa?$AAr?$AA?9?$AAM?$AAA?$AA?$AA@ 10037084     LIBCMT:winapinls.obj
 0002:00017090       ??_C@_1M@BNBLJCGH@?$AAe?$AAn?$AA?9?$AAI?$AAE?$AA?$AA@ 10037090     LIBCMT:winapinls.obj
 0002:0001709c       ??_C@_1M@GEPAFMDL@?$AAe?$AAs?$AA?9?$AAP?$AAA?$AA?$AA@ 1003709c     LIBCMT:winapinls.obj
 0002:000170a8       ??_C@_1M@OJONDMDL@?$AAf?$AAr?$AA?9?$AAM?$AAC?$AA?$AA@ 100370a8     LIBCMT:winapinls.obj
 0002:000170b4       ??_C@_1BG@OBCNFJB@?$AAs?$AAr?$AA?9?$AAB?$AAA?$AA?9?$AAL?$AAa?$AAt?$AAn?$AA?$AA@ 100370b4     LIBCMT:winapinls.obj
 0002:000170cc       ??_C@_1O@KEMEEGPO@?$AAs?$AAm?$AAa?$AA?9?$AAN?$AAO?$AA?$AA@ 100370cc     LIBCMT:winapinls.obj
 0002:000170dc       ??_C@_1M@ELMGFODK@?$AAa?$AAr?$AA?9?$AAT?$AAN?$AA?$AA@ 100370dc     LIBCMT:winapinls.obj
 0002:000170e8       ??_C@_1M@BHDLHFAF@?$AAe?$AAn?$AA?9?$AAZ?$AAA?$AA?$AA@ 100370e8     LIBCMT:winapinls.obj
 0002:000170f4       ??_C@_1M@BMGIGLIF@?$AAe?$AAs?$AA?9?$AAD?$AAO?$AA?$AA@ 100370f4     LIBCMT:winapinls.obj
 0002:00017100       ??_C@_1BG@CMBHIPBE@?$AAs?$AAr?$AA?9?$AAB?$AAA?$AA?9?$AAC?$AAy?$AAr?$AAl?$AA?$AA@ 10037100     LIBCMT:winapinls.obj
 0002:00017118       ??_C@_1O@HEDBLHNP@?$AAs?$AAm?$AAa?$AA?9?$AAS?$AAE?$AA?$AA@ 10037118     LIBCMT:winapinls.obj
 0002:00017128       ??_C@_1M@DAGCADIM@?$AAa?$AAr?$AA?9?$AAO?$AAM?$AA?$AA@ 10037128     LIBCMT:winapinls.obj
 0002:00017134       ??_C@_1M@FODLMICG@?$AAe?$AAn?$AA?9?$AAJ?$AAM?$AA?$AA@ 10037134     LIBCMT:winapinls.obj
 0002:00017140       ??_C@_1M@DNMLCIHB@?$AAe?$AAs?$AA?9?$AAV?$AAE?$AA?$AA@ 10037140     LIBCMT:winapinls.obj
 0002:0001714c       ??_C@_1O@EOKHMKJK@?$AAs?$AAm?$AAs?$AA?9?$AAF?$AAI?$AA?$AA@ 1003714c     LIBCMT:winapinls.obj
 0002:0001715c       ??_C@_1M@CAFJMKOF@?$AAa?$AAr?$AA?9?$AAY?$AAE?$AA?$AA@ 1003715c     LIBCMT:winapinls.obj
 0002:00017168       ??_C@_1M@CBFHIJLI@?$AAe?$AAn?$AA?9?$AAC?$AAB?$AA?$AA@ 10037168     LIBCMT:winapinls.obj
 0002:00017174       ??_C@_1M@BGNFLDN@?$AAe?$AAs?$AA?9?$AAC?$AAO?$AA?$AA@ 10037174     LIBCMT:winapinls.obj
 0002:00017180       ??_C@_1O@JMPHMAMC@?$AAs?$AAm?$AAn?$AA?9?$AAF?$AAI?$AA?$AA@ 10037180     LIBCMT:winapinls.obj
 0002:00017190       ??_C@_1M@JLANABKE@?$AAa?$AAr?$AA?9?$AAS?$AAY?$AA?$AA@ 10037190     LIBCMT:winapinls.obj
 0002:0001719c       ??_C@_1M@HPKGCFGN@?$AAe?$AAn?$AA?9?$AAB?$AAZ?$AA?$AA@ 1003719c     LIBCMT:winapinls.obj
 0002:000171a8       ??_C@_1M@OLJCMLGM@?$AAe?$AAs?$AA?9?$AAP?$AAE?$AA?$AA@ 100371a8     LIBCMT:winapinls.obj
 0002:000171b4       ??_C@_1M@MKKGFKLE@?$AAa?$AAr?$AA?9?$AAJ?$AAO?$AA?$AA@ 100371b4     LIBCMT:winapinls.obj
 0002:000171c0       ??_C@_1M@EKPGLDNI@?$AAe?$AAn?$AA?9?$AAT?$AAT?$AA?$AA@ 100371c0     LIBCMT:winapinls.obj
 0002:000171cc       ??_C@_1M@OONGHFHE@?$AAe?$AAs?$AA?9?$AAA?$AAR?$AA?$AA@ 100371cc     LIBCMT:winapinls.obj
 0002:000171d8       ??_C@_1M@OOJFGBHE@?$AAa?$AAr?$AA?9?$AAL?$AAB?$AA?$AA@ 100371d8     LIBCMT:winapinls.obj
 0002:000171e4       ??_C@_1M@GCEJHNEG@?$AAe?$AAn?$AA?9?$AAZ?$AAW?$AA?$AA@ 100371e4     LIBCMT:winapinls.obj
 0002:000171f0       ??_C@_1M@JNOCAHJI@?$AAe?$AAs?$AA?9?$AAE?$AAC?$AA?$AA@ 100371f0     LIBCMT:winapinls.obj
 0002:000171fc       ??_C@_1M@JEFHPGGB@?$AAa?$AAr?$AA?9?$AAK?$AAW?$AA?$AA@ 100371fc     LIBCMT:winapinls.obj
 0002:00017208       ??_C@_1M@MLKIBJOJ@?$AAe?$AAn?$AA?9?$AAP?$AAH?$AA?$AA@ 10037208     LIBCMT:winapinls.obj
 0002:00017214       ??_C@_1M@BDNIPEND@?$AAe?$AAs?$AA?9?$AAC?$AAL?$AA?$AA@ 10037214     LIBCMT:winapinls.obj
 0002:00017220       ??_C@_1M@MPNMEKBD@?$AAa?$AAr?$AA?9?$AAA?$AAE?$AA?$AA@ 10037220     LIBCMT:winapinls.obj
 0002:0001722c       ??_C@_1M@KBJALCPI@?$AAe?$AAs?$AA?9?$AAU?$AAY?$AA?$AA@ 1003722c     LIBCMT:winapinls.obj
 0002:00017238       ??_C@_1M@LLCCOAGA@?$AAa?$AAr?$AA?9?$AAB?$AAH?$AA?$AA@ 10037238     LIBCMT:winapinls.obj
 0002:00017244       ??_C@_1M@PBFNCDEL@?$AAe?$AAs?$AA?9?$AAP?$AAY?$AA?$AA@ 10037244     LIBCMT:winapinls.obj
 0002:00017250       ??_C@_1M@EDGINPNP@?$AAa?$AAr?$AA?9?$AAQ?$AAA?$AA?$AA@ 10037250     LIBCMT:winapinls.obj
 0002:0001725c       ??_C@_1M@MKDBIIJI@?$AAe?$AAs?$AA?9?$AAB?$AAO?$AA?$AA@ 1003725c     LIBCMT:winapinls.obj
 0002:00017268       ??_C@_1M@CPKKEBLD@?$AAe?$AAs?$AA?9?$AAS?$AAV?$AA?$AA@ 10037268     LIBCMT:winapinls.obj
 0002:00017274       ??_C@_1M@NDBGMMJL@?$AAe?$AAs?$AA?9?$AAH?$AAN?$AA?$AA@ 10037274     LIBCMT:winapinls.obj
 0002:00017280       ??_C@_1M@JIJIBHDP@?$AAe?$AAs?$AA?9?$AAN?$AAI?$AA?$AA@ 10037280     LIBCMT:winapinls.obj
 0002:0001728c       ??_C@_1M@CGFMKEEK@?$AAe?$AAs?$AA?9?$AAP?$AAR?$AA?$AA@ 1003728c     LIBCMT:winapinls.obj
 0002:00017298       ??_C@_1O@ICJHKIIK@?$AAz?$AAh?$AA?9?$AAC?$AAH?$AAT?$AA?$AA@ 10037298     LIBCMT:winapinls.obj
 0002:000172a8       ??_C@_15CLNEJCE@?$AAs?$AAr?$AA?$AA@ 100372a8     LIBCMT:winapinls.obj
 0002:000172b0       ??_C@_1M@KAHEKEIG@?$AAa?$AAf?$AA?9?$AAz?$AAa?$AA?$AA@ 100372b0     LIBCMT:winapinls.obj
 0002:000172bc       ??_C@_1M@GIECOABL@?$AAa?$AAr?$AA?9?$AAa?$AAe?$AA?$AA@ 100372bc     LIBCMT:winapinls.obj
 0002:000172c8       ??_C@_1M@BMLMEKGI@?$AAa?$AAr?$AA?9?$AAb?$AAh?$AA?$AA@ 100372c8     LIBCMT:winapinls.obj
 0002:000172d4       ??_C@_1M@DAPFDGGB@?$AAa?$AAr?$AA?9?$AAd?$AAz?$AA?$AA@ 100372d4     LIBCMT:winapinls.obj
 0002:000172e0       ??_C@_1M@FJNKGKIG@?$AAa?$AAr?$AA?9?$AAe?$AAg?$AA?$AA@ 100372e0     LIBCMT:winapinls.obj
 0002:000172ec       ??_C@_1M@FLGKKCLO@?$AAa?$AAr?$AA?9?$AAi?$AAq?$AA?$AA@ 100372ec     LIBCMT:winapinls.obj
 0002:000172f8       ??_C@_1M@GNDIPALM@?$AAa?$AAr?$AA?9?$AAj?$AAo?$AA?$AA@ 100372f8     LIBCMT:winapinls.obj
 0002:00017304       ??_C@_1M@DDMJFMGJ@?$AAa?$AAr?$AA?9?$AAk?$AAw?$AA?$AA@ 10037304     LIBCMT:winapinls.obj
 0002:00017310       ??_C@_1M@EJALMLHM@?$AAa?$AAr?$AA?9?$AAl?$AAb?$AA?$AA@ 10037310     LIBCMT:winapinls.obj
 0002:0001731c       ??_C@_1M@MOBDBLOC@?$AAa?$AAr?$AA?9?$AAl?$AAy?$AA?$AA@ 1003731c     LIBCMT:winapinls.obj
 0002:00017328       ??_C@_1M@JAOCLHDH@?$AAa?$AAr?$AA?9?$AAm?$AAa?$AA?$AA@ 10037328     LIBCMT:winapinls.obj
 0002:00017334       ??_C@_1M@JHPMKJIE@?$AAa?$AAr?$AA?9?$AAo?$AAm?$AA?$AA@ 10037334     LIBCMT:winapinls.obj
 0002:00017340       ??_C@_1M@OEPGHFNH@?$AAa?$AAr?$AA?9?$AAq?$AAa?$AA?$AA@ 10037340     LIBCMT:winapinls.obj
 0002:0001734c       ??_C@_1M@KJDONENM@?$AAa?$AAr?$AA?9?$AAs?$AAa?$AA?$AA@ 1003734c     LIBCMT:winapinls.obj
 0002:00017358       ??_C@_1M@DMJDKLKM@?$AAa?$AAr?$AA?9?$AAs?$AAy?$AA?$AA@ 10037358     LIBCMT:winapinls.obj
 0002:00017364       ??_C@_1M@OMFIPEDC@?$AAa?$AAr?$AA?9?$AAt?$AAn?$AA?$AA@ 10037364     LIBCMT:winapinls.obj
 0002:00017370       ??_C@_1M@IHMHGAON@?$AAa?$AAr?$AA?9?$AAy?$AAe?$AA?$AA@ 10037370     LIBCMT:winapinls.obj
 0002:0001737c       ??_C@_1BG@KDCPGJGB@?$AAa?$AAz?$AA?9?$AAa?$AAz?$AA?9?$AAc?$AAy?$AAr?$AAl?$AA?$AA@ 1003737c     LIBCMT:winapinls.obj
 0002:00017394       ??_C@_1BG@IBCKDDOE@?$AAa?$AAz?$AA?9?$AAa?$AAz?$AA?9?$AAl?$AAa?$AAt?$AAn?$AA?$AA@ 10037394     LIBCMT:winapinls.obj
 0002:000173ac       ??_C@_1M@EGPFDCPD@?$AAb?$AAe?$AA?9?$AAb?$AAy?$AA?$AA@ 100373ac     LIBCMT:winapinls.obj
 0002:000173b8       ??_C@_1M@PCMGMCGC@?$AAb?$AAg?$AA?9?$AAb?$AAg?$AA?$AA@ 100373b8     LIBCMT:winapinls.obj
 0002:000173c4       ??_C@_1M@BJBMFGOB@?$AAb?$AAn?$AA?9?$AAi?$AAn?$AA?$AA@ 100373c4     LIBCMT:winapinls.obj
 0002:000173d0       ??_C@_1BG@EAKMMACD@?$AAb?$AAs?$AA?9?$AAb?$AAa?$AA?9?$AAl?$AAa?$AAt?$AAn?$AA?$AA@ 100373d0     LIBCMT:winapinls.obj
 0002:000173e8       ??_C@_1M@KGADAODK@?$AAc?$AAa?$AA?9?$AAe?$AAs?$AA?$AA@ 100373e8     LIBCMT:winapinls.obj
 0002:000173f4       ??_C@_1M@COAJPDHI@?$AAc?$AAs?$AA?9?$AAc?$AAz?$AA?$AA@ 100373f4     LIBCMT:winapinls.obj
 0002:00017400       ??_C@_1M@DHBHFONH@?$AAc?$AAy?$AA?9?$AAg?$AAb?$AA?$AA@ 10037400     LIBCMT:winapinls.obj
 0002:0001740c       ??_C@_1M@IMGKELGA@?$AAd?$AAa?$AA?9?$AAd?$AAk?$AA?$AA@ 1003740c     LIBCMT:winapinls.obj
 0002:00017418       ??_C@_1M@NNDGDNGA@?$AAd?$AAe?$AA?9?$AAa?$AAt?$AA?$AA@ 10037418     LIBCMT:winapinls.obj
 0002:00017424       ??_C@_1M@IKDBHEEM@?$AAd?$AAe?$AA?9?$AAc?$AAh?$AA?$AA@ 10037424     LIBCMT:winapinls.obj
 0002:00017430       ??_C@_1M@GFFOJMCJ@?$AAd?$AAe?$AA?9?$AAd?$AAe?$AA?$AA@ 10037430     LIBCMT:winapinls.obj
 0002:0001743c       ??_C@_1M@MDNLKBPM@?$AAd?$AAe?$AA?9?$AAl?$AAi?$AA?$AA@ 1003743c     LIBCMT:winapinls.obj
 0002:00017448       ??_C@_1M@NJBEEJNL@?$AAd?$AAe?$AA?9?$AAl?$AAu?$AA?$AA@ 10037448     LIBCMT:winapinls.obj
 0002:00017454       ??_C@_1O@GNNELBAP@?$AAd?$AAi?$AAv?$AA?9?$AAm?$AAv?$AA?$AA@ 10037454     LIBCMT:winapinls.obj
 0002:00017464       ??_C@_1M@EJLEOGAE@?$AAe?$AAl?$AA?9?$AAg?$AAr?$AA?$AA@ 10037464     LIBCMT:winapinls.obj
 0002:00017470       ??_C@_1M@GMPONJN@?$AAe?$AAn?$AA?9?$AAa?$AAu?$AA?$AA@ 10037470     LIBCMT:winapinls.obj
 0002:0001747c       ??_C@_1M@NIDIIPGF@?$AAe?$AAn?$AA?9?$AAb?$AAz?$AA?$AA@ 1003747c     LIBCMT:winapinls.obj
 0002:00017488       ??_C@_1M@JEHMIMFO@?$AAe?$AAn?$AA?9?$AAc?$AAa?$AA?$AA@ 10037488     LIBCMT:winapinls.obj
 0002:00017494       ??_C@_1M@IGMJCDLA@?$AAe?$AAn?$AA?9?$AAc?$AAb?$AA?$AA@ 10037494     LIBCMT:winapinls.obj
 0002:000174a0       ??_C@_1M@BNFIGBKG@?$AAe?$AAn?$AA?9?$AAg?$AAb?$AA?$AA@ 100374a0     LIBCMT:winapinls.obj
 0002:000174ac       ??_C@_1M@LKIFDIGP@?$AAe?$AAn?$AA?9?$AAi?$AAe?$AA?$AA@ 100374ac     LIBCMT:winapinls.obj
 0002:000174b8       ??_C@_1M@PJKFGCCO@?$AAe?$AAn?$AA?9?$AAj?$AAm?$AA?$AA@ 100374b8     LIBCMT:winapinls.obj
 0002:000174c4       ??_C@_1M@KPPKEPBO@?$AAe?$AAn?$AA?9?$AAn?$AAz?$AA?$AA@ 100374c4     LIBCMT:winapinls.obj
 0002:000174d0       ??_C@_1M@GMDGLDOB@?$AAe?$AAn?$AA?9?$AAp?$AAh?$AA?$AA@ 100374d0     LIBCMT:winapinls.obj
 0002:000174dc       ??_C@_1M@ONGIBJNA@?$AAe?$AAn?$AA?9?$AAt?$AAt?$AA?$AA@ 100374dc     LIBCMT:winapinls.obj
 0002:000174e8       ??_C@_1M@LLODPCMM@?$AAe?$AAn?$AA?9?$AAu?$AAs?$AA?$AA@ 100374e8     LIBCMT:winapinls.obj
 0002:000174f4       ??_C@_1M@LAKFNPAN@?$AAe?$AAn?$AA?9?$AAz?$AAa?$AA?$AA@ 100374f4     LIBCMT:winapinls.obj
 0002:00017500       ??_C@_1M@MFNHNHEO@?$AAe?$AAn?$AA?9?$AAz?$AAw?$AA?$AA@ 10037500     LIBCMT:winapinls.obj
 0002:0001750c       ??_C@_1M@EJEINPHM@?$AAe?$AAs?$AA?9?$AAa?$AAr?$AA?$AA@ 1003750c     LIBCMT:winapinls.obj
 0002:00017518       ??_C@_1M@GNKPCCJA@?$AAe?$AAs?$AA?9?$AAb?$AAo?$AA?$AA@ 10037518     LIBCMT:winapinls.obj
 0002:00017524       ??_C@_1M@LEEGFONL@?$AAe?$AAs?$AA?9?$AAc?$AAl?$AA?$AA@ 10037524     LIBCMT:winapinls.obj
 0002:00017530       ??_C@_1M@KGPDPBDF@?$AAe?$AAs?$AA?9?$AAc?$AAo?$AA?$AA@ 10037530     LIBCMT:winapinls.obj
 0002:0001753c       ??_C@_1M@EIAHOHH@?$AAe?$AAs?$AA?9?$AAc?$AAr?$AA?$AA@ 1003753c     LIBCMT:winapinls.obj
 0002:00017548       ??_C@_1M@LLPGMBIN@?$AAe?$AAs?$AA?9?$AAd?$AAo?$AA?$AA@ 10037548     LIBCMT:winapinls.obj
 0002:00017554       ??_C@_1M@DKHMKNJA@?$AAe?$AAs?$AA?9?$AAe?$AAc?$AA?$AA@ 10037554     LIBCMT:winapinls.obj
 0002:00017560       ??_C@_1M@GKGFPKAP@?$AAe?$AAs?$AA?9?$AAe?$AAs?$AA?$AA@ 10037560     LIBCMT:winapinls.obj
 0002:0001756c       ??_C@_1M@LKHKGDLN@?$AAe?$AAs?$AA?9?$AAg?$AAt?$AA?$AA@ 1003756c     LIBCMT:winapinls.obj
 0002:00017578       ??_C@_1M@HEIIGGJD@?$AAe?$AAs?$AA?9?$AAh?$AAn?$AA?$AA@ 10037578     LIBCMT:winapinls.obj
 0002:00017584       ??_C@_1M@FBDHPPGD@?$AAe?$AAs?$AA?9?$AAm?$AAx?$AA?$AA@ 10037584     LIBCMT:winapinls.obj
 0002:00017590       ??_C@_1M@DPAGLNDH@?$AAe?$AAs?$AA?9?$AAn?$AAi?$AA?$AA@ 10037590     LIBCMT:winapinls.obj
 0002:0001759c       ??_C@_1M@MDGOPGDD@?$AAe?$AAs?$AA?9?$AAp?$AAa?$AA?$AA@ 1003759c     LIBCMT:winapinls.obj
 0002:000175a8       ??_C@_1M@EMAMGBGE@?$AAe?$AAs?$AA?9?$AAp?$AAe?$AA?$AA@ 100375a8     LIBCMT:winapinls.obj
 0002:000175b4       ??_C@_1M@IBMCAOEC@?$AAe?$AAs?$AA?9?$AAp?$AAr?$AA?$AA@ 100375b4     LIBCMT:winapinls.obj
 0002:000175c0       ??_C@_1M@FGMDIJED@?$AAe?$AAs?$AA?9?$AAp?$AAy?$AA?$AA@ 100375c0     LIBCMT:winapinls.obj
 0002:000175cc       ??_C@_1M@IIDEOLLL@?$AAe?$AAs?$AA?9?$AAs?$AAv?$AA?$AA@ 100375cc     LIBCMT:winapinls.obj
 0002:000175d8       ??_C@_1M@GAOBIPA@?$AAe?$AAs?$AA?9?$AAu?$AAy?$AA?$AA@ 100375d8     LIBCMT:winapinls.obj
 0002:000175e4       ??_C@_1M@JKFFICHJ@?$AAe?$AAs?$AA?9?$AAv?$AAe?$AA?$AA@ 100375e4     LIBCMT:winapinls.obj
 0002:000175f0       ??_C@_1M@PNMLOJDF@?$AAe?$AAt?$AA?9?$AAe?$AAe?$AA?$AA@ 100375f0     LIBCMT:winapinls.obj
 0002:000175fc       ??_C@_1M@GHHLIKEI@?$AAe?$AAu?$AA?9?$AAe?$AAs?$AA?$AA@ 100375fc     LIBCMT:winapinls.obj
 0002:00017608       ??_C@_1M@PBNONODE@?$AAf?$AAa?$AA?9?$AAi?$AAr?$AA?$AA@ 10037608     LIBCMT:winapinls.obj
 0002:00017614       ??_C@_1M@JEEHPMIL@?$AAf?$AAi?$AA?9?$AAf?$AAi?$AA?$AA@ 10037614     LIBCMT:winapinls.obj
 0002:00017620       ??_C@_1M@LMDCNDBA@?$AAf?$AAo?$AA?9?$AAf?$AAo?$AA?$AA@ 10037620     LIBCMT:winapinls.obj
 0002:0001762c       ??_C@_1M@JKEOHLDK@?$AAf?$AAr?$AA?9?$AAb?$AAe?$AA?$AA@ 1003762c     LIBCMT:winapinls.obj
 0002:00017638       ??_C@_1M@NOHADPMI@?$AAf?$AAr?$AA?9?$AAc?$AAa?$AA?$AA@ 10037638     LIBCMT:winapinls.obj
 0002:00017644       ??_C@_1M@KDHIHAEC@?$AAf?$AAr?$AA?9?$AAc?$AAh?$AA?$AA@ 10037644     LIBCMT:winapinls.obj
 0002:00017650       ??_C@_1M@MMBBFGAK@?$AAf?$AAr?$AA?9?$AAf?$AAr?$AA?$AA@ 10037650     LIBCMT:winapinls.obj
 0002:0001765c       ??_C@_1M@PAFNENNF@?$AAf?$AAr?$AA?9?$AAl?$AAu?$AA?$AA@ 1003765c     LIBCMT:winapinls.obj
 0002:00017668       ??_C@_1M@EOHDJGDD@?$AAf?$AAr?$AA?9?$AAm?$AAc?$AA?$AA@ 10037668     LIBCMT:winapinls.obj
 0002:00017674       ??_C@_1M@FAPLLOPF@?$AAg?$AAl?$AA?9?$AAe?$AAs?$AA?$AA@ 10037674     LIBCMT:winapinls.obj
 0002:00017680       ??_C@_1M@FOPBFLOO@?$AAg?$AAu?$AA?9?$AAi?$AAn?$AA?$AA@ 10037680     LIBCMT:winapinls.obj
 0002:0001768c       ??_C@_1M@KBMCINPM@?$AAh?$AAe?$AA?9?$AAi?$AAl?$AA?$AA@ 1003768c     LIBCMT:winapinls.obj
 0002:00017698       ??_C@_1M@BBPHKFPJ@?$AAh?$AAi?$AA?9?$AAi?$AAn?$AA?$AA@ 10037698     LIBCMT:winapinls.obj
 0002:000176a4       ??_C@_1M@PMBNDPHD@?$AAh?$AAr?$AA?9?$AAb?$AAa?$AA?$AA@ 100376a4     LIBCMT:winapinls.obj
 0002:000176b0       ??_C@_1M@BPCKOEGE@?$AAh?$AAr?$AA?9?$AAh?$AAr?$AA?$AA@ 100376b0     LIBCMT:winapinls.obj
 0002:000176bc       ??_C@_1M@GACBMHKE@?$AAh?$AAu?$AA?9?$AAh?$AAu?$AA?$AA@ 100376bc     LIBCMT:winapinls.obj
 0002:000176c8       ??_C@_1M@MILPAJJC@?$AAh?$AAy?$AA?9?$AAa?$AAm?$AA?$AA@ 100376c8     LIBCMT:winapinls.obj
 0002:000176d4       ??_C@_1M@BABBICEC@?$AAi?$AAd?$AA?9?$AAi?$AAd?$AA?$AA@ 100376d4     LIBCMT:winapinls.obj
 0002:000176e0       ??_C@_1M@BIKNHHPF@?$AAi?$AAs?$AA?9?$AAi?$AAs?$AA?$AA@ 100376e0     LIBCMT:winapinls.obj
 0002:000176ec       ??_C@_1M@NMPCJPHE@?$AAi?$AAt?$AA?9?$AAc?$AAh?$AA?$AA@ 100376ec     LIBCMT:winapinls.obj
 0002:000176f8       ??_C@_1M@GHKGFEDF@?$AAi?$AAt?$AA?9?$AAi?$AAt?$AA?$AA@ 100376f8     LIBCMT:winapinls.obj
 0002:00017704       ??_C@_1M@NIEJCJJA@?$AAj?$AAa?$AA?9?$AAj?$AAp?$AA?$AA@ 10037704     LIBCMT:winapinls.obj
 0002:00017710       ??_C@_1M@JILFNBIM@?$AAk?$AAa?$AA?9?$AAg?$AAe?$AA?$AA@ 10037710     LIBCMT:winapinls.obj
 0002:0001771c       ??_C@_1M@PACPMGPH@?$AAk?$AAk?$AA?9?$AAk?$AAz?$AA?$AA@ 1003771c     LIBCMT:winapinls.obj
 0002:00017728       ??_C@_1M@IELFGMHA@?$AAk?$AAn?$AA?9?$AAi?$AAn?$AA?$AA@ 10037728     LIBCMT:winapinls.obj
 0002:00017734       ??_C@_1O@IBBJHCH@?$AAk?$AAo?$AAk?$AA?9?$AAi?$AAn?$AA?$AA@ 10037734     LIBCMT:winapinls.obj
 0002:00017744       ??_C@_1M@DMHAEOGC@?$AAk?$AAo?$AA?9?$AAk?$AAr?$AA?$AA@ 10037744     LIBCMT:winapinls.obj
 0002:00017750       ??_C@_1M@HBAHBIGA@?$AAk?$AAy?$AA?9?$AAk?$AAg?$AA?$AA@ 10037750     LIBCMT:winapinls.obj
 0002:0001775c       ??_C@_1M@KPMILCJG@?$AAl?$AAt?$AA?9?$AAl?$AAt?$AA?$AA@ 1003775c     LIBCMT:winapinls.obj
 0002:00017768       ??_C@_1M@BDEKKCA@?$AAl?$AAv?$AA?9?$AAl?$AAv?$AA?$AA@ 10037768     LIBCMT:winapinls.obj
 0002:00017774       ??_C@_1M@ELCKCCJJ@?$AAm?$AAi?$AA?9?$AAn?$AAz?$AA?$AA@ 10037774     LIBCMT:winapinls.obj
 0002:00017780       ??_C@_1M@CBOOLAPA@?$AAm?$AAk?$AA?9?$AAm?$AAk?$AA?$AA@ 10037780     LIBCMT:winapinls.obj
 0002:0001778c       ??_C@_1M@GPHNBJKN@?$AAm?$AAl?$AA?9?$AAi?$AAn?$AA?$AA@ 1003778c     LIBCMT:winapinls.obj
 0002:00017798       ??_C@_1M@PABJILIG@?$AAm?$AAn?$AA?9?$AAm?$AAn?$AA?$AA@ 10037798     LIBCMT:winapinls.obj
 0002:000177a4       ??_C@_1M@FGBKKIPG@?$AAm?$AAr?$AA?9?$AAi?$AAn?$AA?$AA@ 100377a4     LIBCMT:winapinls.obj
 0002:000177b0       ??_C@_1M@NDBPDDAL@?$AAm?$AAs?$AA?9?$AAb?$AAn?$AA?$AA@ 100377b0     LIBCMT:winapinls.obj
 0002:000177bc       ??_C@_1M@OPIHOOPI@?$AAm?$AAs?$AA?9?$AAm?$AAy?$AA?$AA@ 100377bc     LIBCMT:winapinls.obj
 0002:000177c8       ??_C@_1M@PPDBCNFM@?$AAm?$AAt?$AA?9?$AAm?$AAt?$AA?$AA@ 100377c8     LIBCMT:winapinls.obj
 0002:000177d4       ??_C@_1M@KDJDKMDD@?$AAn?$AAb?$AA?9?$AAn?$AAo?$AA?$AA@ 100377d4     LIBCMT:winapinls.obj
 0002:000177e0       ??_C@_1M@KFCFLMJP@?$AAn?$AAl?$AA?9?$AAb?$AAe?$AA?$AA@ 100377e0     LIBCMT:winapinls.obj
 0002:000177ec       ??_C@_1M@KPOPDDGO@?$AAn?$AAl?$AA?9?$AAn?$AAl?$AA?$AA@ 100377ec     LIBCMT:winapinls.obj
 0002:000177f8       ??_C@_1M@LJKPEMLN@?$AAn?$AAn?$AA?9?$AAn?$AAo?$AA?$AA@ 100377f8     LIBCMT:winapinls.obj
 0002:00017804       ??_C@_1M@BDGHHBFL@?$AAn?$AAs?$AA?9?$AAz?$AAa?$AA?$AA@ 10037804     LIBCMT:winapinls.obj
 0002:00017810       ??_C@_1M@IDEHOAP@?$AAp?$AAa?$AA?9?$AAi?$AAn?$AA?$AA@ 10037810     LIBCMT:winapinls.obj
 0002:0001781c       ??_C@_1M@HDBKGOGH@?$AAp?$AAl?$AA?9?$AAp?$AAl?$AA?$AA@ 1003781c     LIBCMT:winapinls.obj
 0002:00017828       ??_C@_1M@LJLLCMEH@?$AAp?$AAt?$AA?9?$AAb?$AAr?$AA?$AA@ 10037828     LIBCMT:winapinls.obj
 0002:00017834       ??_C@_1M@NCMONAAL@?$AAp?$AAt?$AA?9?$AAp?$AAt?$AA?$AA@ 10037834     LIBCMT:winapinls.obj
 0002:00017840       ??_C@_1O@EAKMAJDN@?$AAq?$AAu?$AAz?$AA?9?$AAb?$AAo?$AA?$AA@ 10037840     LIBCMT:winapinls.obj
 0002:00017850       ??_C@_1O@BHHPIGDN@?$AAq?$AAu?$AAz?$AA?9?$AAe?$AAc?$AA?$AA@ 10037850     LIBCMT:winapinls.obj
 0002:00017860       ??_C@_1O@GBAPEKMJ@?$AAq?$AAu?$AAz?$AA?9?$AAp?$AAe?$AA?$AA@ 10037860     LIBCMT:winapinls.obj
 0002:00017870       ??_C@_1M@CLGLEFBO@?$AAr?$AAo?$AA?9?$AAr?$AAo?$AA?$AA@ 10037870     LIBCMT:winapinls.obj
 0002:0001787c       ??_C@_1M@CEEDODME@?$AAr?$AAu?$AA?9?$AAr?$AAu?$AA?$AA@ 1003787c     LIBCMT:winapinls.obj
 0002:00017888       ??_C@_1M@HPKKKMPP@?$AAs?$AAa?$AA?9?$AAi?$AAn?$AA?$AA@ 10037888     LIBCMT:winapinls.obj
 0002:00017894       ??_C@_1M@BKMAIGOJ@?$AAs?$AAe?$AA?9?$AAf?$AAi?$AA?$AA@ 10037894     LIBCMT:winapinls.obj
 0002:000178a0       ??_C@_1M@NDPIFLFI@?$AAs?$AAe?$AA?9?$AAn?$AAo?$AA?$AA@ 100378a0     LIBCMT:winapinls.obj
 0002:000178ac       ??_C@_1M@DANKKHJ@?$AAs?$AAe?$AA?9?$AAs?$AAe?$AA?$AA@ 100378ac     LIBCMT:winapinls.obj
 0002:000178b8       ??_C@_1M@PNBLONPJ@?$AAs?$AAk?$AA?9?$AAs?$AAk?$AA?$AA@ 100378b8     LIBCMT:winapinls.obj
 0002:000178c4       ??_C@_1M@LFMODOAL@?$AAs?$AAl?$AA?9?$AAs?$AAi?$AA?$AA@ 100378c4     LIBCMT:winapinls.obj
 0002:000178d0       ??_C@_1O@DFKOMPG@?$AAs?$AAm?$AAa?$AA?9?$AAn?$AAo?$AA?$AA@ 100378d0     LIBCMT:winapinls.obj
 0002:000178e0       ??_C@_1O@NDKPBNNH@?$AAs?$AAm?$AAa?$AA?9?$AAs?$AAe?$AA?$AA@ 100378e0     LIBCMT:winapinls.obj
 0002:000178f0       ??_C@_1O@PLLKBHAB@?$AAs?$AAm?$AAj?$AA?9?$AAn?$AAo?$AA?$AA@ 100378f0     LIBCMT:winapinls.obj
 0002:00017900       ??_C@_1O@CLEPOGCA@?$AAs?$AAm?$AAj?$AA?9?$AAs?$AAe?$AA?$AA@ 10037900     LIBCMT:winapinls.obj
 0002:00017910       ??_C@_1O@DLGJGKMK@?$AAs?$AAm?$AAn?$AA?9?$AAf?$AAi?$AA?$AA@ 10037910     LIBCMT:winapinls.obj
 0002:00017920       ??_C@_1O@OJDJGAJC@?$AAs?$AAm?$AAs?$AA?9?$AAf?$AAi?$AA?$AA@ 10037920     LIBCMT:winapinls.obj
 0002:00017930       ??_C@_1M@BOFOGHPB@?$AAs?$AAq?$AA?9?$AAa?$AAl?$AA?$AA@ 10037930     LIBCMT:winapinls.obj
 0002:0001793c       ??_C@_1BG@LJBBIPGB@?$AAs?$AAr?$AA?9?$AAb?$AAa?$AA?9?$AAc?$AAy?$AAr?$AAl?$AA?$AA@ 1003793c     LIBCMT:winapinls.obj
 0002:00017954       ??_C@_1BG@JLBENFOE@?$AAs?$AAr?$AA?9?$AAb?$AAa?$AA?9?$AAl?$AAa?$AAt?$AAn?$AA?$AA@ 10037954     LIBCMT:winapinls.obj
 0002:0001796c       ??_C@_1BG@KODPNHE@?$AAs?$AAr?$AA?9?$AAs?$AAp?$AA?9?$AAc?$AAy?$AAr?$AAl?$AA?$AA@ 1003796c     LIBCMT:winapinls.obj
 0002:00017984       ??_C@_1BG@CIOGKHPB@?$AAs?$AAr?$AA?9?$AAs?$AAp?$AA?9?$AAl?$AAa?$AAt?$AAn?$AA?$AA@ 10037984     LIBCMT:winapinls.obj
 0002:0001799c       ??_C@_1M@NGFJLMAC@?$AAs?$AAv?$AA?9?$AAf?$AAi?$AA?$AA@ 1003799c     LIBCMT:winapinls.obj
 0002:000179a8       ??_C@_1M@MPJEJAJC@?$AAs?$AAv?$AA?9?$AAs?$AAe?$AA?$AA@ 100379a8     LIBCMT:winapinls.obj
 0002:000179b4       ??_C@_1M@MPNDHLFK@?$AAs?$AAw?$AA?9?$AAk?$AAe?$AA?$AA@ 100379b4     LIBCMT:winapinls.obj
 0002:000179c0       ??_C@_1O@KOHBJJI@?$AAs?$AAy?$AAr?$AA?9?$AAs?$AAy?$AA?$AA@ 100379c0     LIBCMT:winapinls.obj
 0002:000179d0       ??_C@_1M@LDCEFHA@?$AAt?$AAa?$AA?9?$AAi?$AAn?$AA?$AA@ 100379d0     LIBCMT:winapinls.obj
 0002:000179dc       ??_C@_1M@CNJOFAK@?$AAt?$AAe?$AA?9?$AAi?$AAn?$AA?$AA@ 100379dc     LIBCMT:winapinls.obj
 0002:000179e8       ??_C@_1M@GNAECACD@?$AAt?$AAh?$AA?9?$AAt?$AAh?$AA?$AA@ 100379e8     LIBCMT:winapinls.obj
 0002:000179f4       ??_C@_1M@CHBIHOJO@?$AAt?$AAn?$AA?9?$AAz?$AAa?$AA?$AA@ 100379f4     LIBCMT:winapinls.obj
 0002:00017a00       ??_C@_1M@GCCMIGPJ@?$AAt?$AAr?$AA?9?$AAt?$AAr?$AA?$AA@ 10037a00     LIBCMT:winapinls.obj
 0002:00017a0c       ??_C@_1M@CELMCNBK@?$AAt?$AAt?$AA?9?$AAr?$AAu?$AA?$AA@ 10037a0c     LIBCMT:winapinls.obj
 0002:00017a18       ??_C@_1M@KLMCELGA@?$AAu?$AAk?$AA?9?$AAu?$AAa?$AA?$AA@ 10037a18     LIBCMT:winapinls.obj
 0002:00017a24       ??_C@_1M@EPAJJAJF@?$AAu?$AAr?$AA?9?$AAp?$AAk?$AA?$AA@ 10037a24     LIBCMT:winapinls.obj
 0002:00017a30       ??_C@_1BG@GEGPMCDJ@?$AAu?$AAz?$AA?9?$AAu?$AAz?$AA?9?$AAc?$AAy?$AAr?$AAl?$AA?$AA@ 10037a30     LIBCMT:winapinls.obj
 0002:00017a48       ??_C@_1BG@EGGKJILM@?$AAu?$AAz?$AA?9?$AAu?$AAz?$AA?9?$AAl?$AAa?$AAt?$AAn?$AA?$AA@ 10037a48     LIBCMT:winapinls.obj
 0002:00017a60       ??_C@_1M@GFOCLFF@?$AAv?$AAi?$AA?9?$AAv?$AAn?$AA?$AA@ 10037a60     LIBCMT:winapinls.obj
 0002:00017a6c       ??_C@_1M@CPAMEDFI@?$AAx?$AAh?$AA?9?$AAz?$AAa?$AA?$AA@ 10037a6c     LIBCMT:winapinls.obj
 0002:00017a78       ??_C@_1O@EBKIFIGN@?$AAz?$AAh?$AA?9?$AAc?$AAh?$AAs?$AA?$AA@ 10037a78     LIBCMT:winapinls.obj
 0002:00017a88       ??_C@_1O@NMHPGANE@?$AAz?$AAh?$AA?9?$AAc?$AAh?$AAt?$AA?$AA@ 10037a88     LIBCMT:winapinls.obj
 0002:00017a98       ??_C@_1M@LPINJOMC@?$AAz?$AAh?$AA?9?$AAc?$AAn?$AA?$AA@ 10037a98     LIBCMT:winapinls.obj
 0002:00017aa4       ??_C@_1M@OCJEJODD@?$AAz?$AAh?$AA?9?$AAh?$AAk?$AA?$AA@ 10037aa4     LIBCMT:winapinls.obj
 0002:00017ab0       ??_C@_1M@DNDLJINH@?$AAz?$AAh?$AA?9?$AAm?$AAo?$AA?$AA@ 10037ab0     LIBCMT:winapinls.obj
 0002:00017abc       ??_C@_1M@MBFDNDND@?$AAz?$AAh?$AA?9?$AAs?$AAg?$AA?$AA@ 10037abc     LIBCMT:winapinls.obj
 0002:00017ac8       ??_C@_1M@IMEPLEPE@?$AAz?$AAh?$AA?9?$AAt?$AAw?$AA?$AA@ 10037ac8     LIBCMT:winapinls.obj
 0002:00017ad4       ??_C@_1M@BBGHNHJP@?$AAz?$AAu?$AA?9?$AAz?$AAa?$AA?$AA@ 10037ad4     LIBCMT:winapinls.obj
 0002:00017c6c       ??_C@_08EHJDFFNH@__based?$CI?$AA@ 10037c6c     LIBCMT:undname.obj
 0002:00017c78       ??_C@_07KOLFKCDI@__cdecl?$AA@ 10037c78     LIBCMT:undname.obj
 0002:00017c80       ??_C@_08GHMPAG@__pascal?$AA@ 10037c80     LIBCMT:undname.obj
 0002:00017c8c       ??_C@_09IFJBGAPI@__stdcall?$AA@ 10037c8c     LIBCMT:undname.obj
 0002:00017c98       ??_C@_0L@NPHFGOKO@__thiscall?$AA@ 10037c98     LIBCMT:undname.obj
 0002:00017ca4       ??_C@_0L@JMKHOMEK@__fastcall?$AA@ 10037ca4     LIBCMT:undname.obj
 0002:00017cb0       ??_C@_0N@BCKKPABJ@__vectorcall?$AA@ 10037cb0     LIBCMT:undname.obj
 0002:00017cc0       ??_C@_09HIJEGCPM@__clrcall?$AA@ 10037cc0     LIBCMT:undname.obj
 0002:00017ccc       ??_C@_06GHPCKEAG@__eabi?$AA@ 10037ccc     LIBCMT:undname.obj
 0002:00017cd4       ??_C@_07JOMMBBKO@__ptr64?$AA@ 10037cd4     LIBCMT:undname.obj
 0002:00017cdc       ??_C@_0L@PILCLIHE@__restrict?$AA@ 10037cdc     LIBCMT:undname.obj
 0002:00017ce8       ??_C@_0M@GFIIJFMG@__unaligned?$AA@ 10037ce8     LIBCMT:undname.obj
 0002:00017cf4       ??_C@_09DHDLOLLB@restrict?$CI?$AA@ 10037cf4     LIBCMT:undname.obj
 0002:00017d00       ??_C@_04NIHEBCM@?5new?$AA@ 10037d00     LIBCMT:undname.obj
 0002:00017d08       ??_C@_07FPCDHGMM@?5delete?$AA@ 10037d08     LIBCMT:undname.obj
 0002:00017d10       ??_C@_01NEMOKFLO@?$DN?$AA@ 10037d10     LIBCMT:undname.obj
 0002:00017d14       ??_C@_02GPIOPFAK@?$DO?$DO?$AA@ 10037d14     LIBCMT:undname.obj
 0002:00017d18       ??_C@_02FODMEDOG@?$DM?$DM?$AA@ 10037d18     LIBCMT:undname.obj
 0002:00017d1c       ??_C@_01DCLJPIOD@?$CB?$AA@ 10037d1c     LIBCMT:undname.obj
 0002:00017d20       ??_C@_02EGOFBIJA@?$DN?$DN?$AA@ 10037d20     LIBCMT:undname.obj
 0002:00017d24       ??_C@_02FDNJECIE@?$CB?$DN?$AA@ 10037d24     LIBCMT:undname.obj
 0002:00017d28       ??_C@_02GPECMEKF@?$FL?$FN?$AA@ 10037d28     LIBCMT:undname.obj
 0002:00017d2c       ??_C@_08LHJFAFGD@operator?$AA@ 10037d2c     LIBCMT:undname.obj
 0002:00017d38       ??_C@_02HBOOOICD@?9?$DO?$AA@ 10037d38     LIBCMT:undname.obj
 0002:00017d3c       ??_C@_01NBENCBCI@?$CK?$AA@ 10037d3c     LIBCMT:undname.obj
 0002:00017d40       ??_C@_02ECNGHCIF@?$CL?$CL?$AA@ 10037d40     LIBCMT:undname.obj
 0002:00017d44       ??_C@_02BAABKJLB@?9?9?$AA@ 10037d44     LIBCMT:undname.obj
 0002:00017d48       ??_C@_01MIFGBAGJ@?$CL?$AA@ 10037d48     LIBCMT:undname.obj
 0002:00017d4c       ??_C@_01HNPIGOCE@?$CG?$AA@ 10037d4c     LIBCMT:undname.obj
 0002:00017d50       ??_C@_03MNHNFDLC@?9?$DO?$CK?$AA@ 10037d50     LIBCMT:undname.obj
 0002:00017d54       ??_C@_01KMDKNFGN@?1?$AA@   10037d54     LIBCMT:undname.obj
 0002:00017d58       ??_C@_01FGNFDNOH@?$CF?$AA@ 10037d58     LIBCMT:undname.obj
 0002:00017d5c       ??_C@_01MNNFJEPP@?$DM?$AA@ 10037d5c     LIBCMT:undname.obj
 0002:00017d60       ??_C@_02EHCHHCKH@?$DM?$DN?$AA@ 10037d60     LIBCMT:undname.obj
 0002:00017d64       ??_C@_01PPODPGHN@?$DO?$AA@ 10037d64     LIBCMT:undname.obj
 0002:00017d68       ??_C@_02EEKDKGMJ@?$DO?$DN?$AA@ 10037d68     LIBCMT:undname.obj
 0002:00017d6c       ??_C@_01IHBHIGKO@?0?$AA@   10037d6c     LIBCMT:undname.obj
 0002:00017d70       ??_C@_02HCKGKOFO@?$CI?$CJ?$AA@ 10037d70     LIBCMT:undname.obj
 0002:00017d74       ??_C@_01PJKLJHI@?$HO?$AA@  10037d74     LIBCMT:undname.obj
 0002:00017d78       ??_C@_01JKBOJNNK@?$FO?$AA@ 10037d78     LIBCMT:undname.obj
 0002:00017d7c       ??_C@_01DNKMNLPK@?$HM?$AA@ 10037d7c     LIBCMT:undname.obj
 0002:00017d80       ??_C@_02PPKAJPJL@?$CG?$CG?$AA@ 10037d80     LIBCMT:undname.obj
 0002:00017d84       ??_C@_02NONPIBCD@?$HM?$HM?$AA@ 10037d84     LIBCMT:undname.obj
 0002:00017d88       ??_C@_02FPIMKNGF@?$CK?$DN?$AA@ 10037d88     LIBCMT:undname.obj
 0002:00017d8c       ??_C@_02FOEOMHFC@?$CL?$DN?$AA@ 10037d8c     LIBCMT:undname.obj
 0002:00017d90       ??_C@_02FKMDLLOA@?9?$DN?$AA@ 10037d90     LIBCMT:undname.obj
 0002:00017d94       ??_C@_02FJEHGPIO@?1?$DN?$AA@ 10037d94     LIBCMT:undname.obj
 0002:00017d98       ??_C@_02FENAOKFI@?$CF?$DN?$AA@ 10037d98     LIBCMT:undname.obj
 0002:00017d9c       ??_C@_03IKFCCPFF@?$DO?$DO?$DN?$AA@ 10037d9c     LIBCMT:undname.obj
 0002:00017da0       ??_C@_03CDNPDDLA@?$DM?$DM?$DN?$AA@ 10037da0     LIBCMT:undname.obj
 0002:00017da4       ??_C@_02FGJGFEAB@?$CG?$DN?$AA@ 10037da4     LIBCMT:undname.obj
 0002:00017da8       ??_C@_02DHLNPPGH@?$HM?$DN?$AA@ 10037da8     LIBCMT:undname.obj
 0002:00017dac       ??_C@_02MHEGNOJ@?$FO?$DN?$AA@ 10037dac     LIBCMT:undname.obj
 0002:00017db0       ??_C@_09IFPLHPGF@?$GAvftable?8?$AA@ 10037db0     LIBCMT:undname.obj
 0002:00017dbc       ??_C@_09BLBHBJP@?$GAvbtable?8?$AA@ 10037dbc     LIBCMT:undname.obj
 0002:00017dc8       ??_C@_07FEEIOKP@?$GAvcall?8?$AA@ 10037dc8     LIBCMT:undname.obj
 0002:00017dd0       ??_C@_08LLFFHHDJ@?$GAtypeof?8?$AA@ 10037dd0     LIBCMT:undname.obj
 0002:00017ddc       ??_C@_0BF@KDPPACIK@?$GAlocal?5static?5guard?8?$AA@ 10037ddc     LIBCMT:undname.obj
 0002:00017df4       ??_C@_08OBABFOLI@?$GAstring?8?$AA@ 10037df4     LIBCMT:undname.obj
 0002:00017e00       ??_C@_0BD@JDLKDPAB@?$GAvbase?5destructor?8?$AA@ 10037e00     LIBCMT:undname.obj
 0002:00017e14       ??_C@_0BN@DEGPLNFK@?$GAvector?5deleting?5destructor?8?$AA@ 10037e14     LIBCMT:undname.obj
 0002:00017e34       ??_C@_0BO@OBMKPJIG@?$GAdefault?5constructor?5closure?8?$AA@ 10037e34     LIBCMT:undname.obj
 0002:00017e54       ??_C@_0BN@IMDCHIKM@?$GAscalar?5deleting?5destructor?8?$AA@ 10037e54     LIBCMT:undname.obj
 0002:00017e74       ??_C@_0BO@PFGOCPJJ@?$GAvector?5constructor?5iterator?8?$AA@ 10037e74     LIBCMT:undname.obj
 0002:00017e94       ??_C@_0BN@LFPFMEDL@?$GAvector?5destructor?5iterator?8?$AA@ 10037e94     LIBCMT:undname.obj
 0002:00017eb4       ??_C@_0CE@IKBNEHA@?$GAvector?5vbase?5constructor?5iterat@ 10037eb4     LIBCMT:undname.obj
 0002:00017ed8       ??_C@_0BL@NILFHHPC@?$GAvirtual?5displacement?5map?8?$AA@ 10037ed8     LIBCMT:undname.obj
 0002:00017ef4       ??_C@_0CB@JONCMFFK@?$GAeh?5vector?5constructor?5iterator?8@ 10037ef4     LIBCMT:undname.obj
 0002:00017f18       ??_C@_0CA@GCEOPDGL@?$GAeh?5vector?5destructor?5iterator?8?$AA@ 10037f18     LIBCMT:undname.obj
 0002:00017f38       ??_C@_0CH@OOJPLCPH@?$GAeh?5vector?5vbase?5constructor?5ite@ 10037f38     LIBCMT:undname.obj
 0002:00017f60       ??_C@_0BL@LLKPOHJI@?$GAcopy?5constructor?5closure?8?$AA@ 10037f60     LIBCMT:undname.obj
 0002:00017f7c       ??_C@_0BA@KBCDOMBN@?$GAudt?5returning?8?$AA@ 10037f7c     LIBCMT:undname.obj
 0002:00017f8c       ??_C@_03KLGMFNMG@?$GAEH?$AA@ 10037f8c     LIBCMT:undname.obj
 0002:00017f90       ??_C@_05KHLCHHI@?$GARTTI?$AA@ 10037f90     LIBCMT:undname.obj
 0002:00017f98       ??_C@_0BA@KKLDJDLB@?$GAlocal?5vftable?8?$AA@ 10037f98     LIBCMT:undname.obj
 0002:00017fa8       ??_C@_0CE@IIHCMGGL@?$GAlocal?5vftable?5constructor?5closu@ 10037fa8     LIBCMT:undname.obj
 0002:00017fcc       ??_C@_06FHBGPFGH@?5new?$FL?$FN?$AA@ 10037fcc     LIBCMT:undname.obj
 0002:00017fd4       ??_C@_09LBNFPBCA@?5delete?$FL?$FN?$AA@ 10037fd4     LIBCMT:undname.obj
 0002:00017fe0       ??_C@_0P@HJKNJFNN@?$GAomni?5callsig?8?$AA@ 10037fe0     LIBCMT:undname.obj
 0002:00017ff0       ??_C@_0BL@CNOONJFP@?$GAplacement?5delete?5closure?8?$AA@ 10037ff0     LIBCMT:undname.obj
 0002:0001800c       ??_C@_0BN@CKNJLHMB@?$GAplacement?5delete?$FL?$FN?5closure?8?$AA@ 1003800c     LIBCMT:undname.obj
 0002:0001802c       ??_C@_0CG@CFDHKGGD@?$GAmanaged?5vector?5constructor?5iter@ 1003802c     LIBCMT:undname.obj
 0002:00018054       ??_C@_0CF@IMGKMJNO@?$GAmanaged?5vector?5destructor?5itera@ 10038054     LIBCMT:undname.obj
 0002:0001807c       ??_C@_0CG@HLDDJMAG@?$GAeh?5vector?5copy?5constructor?5iter@ 1003807c     LIBCMT:undname.obj
 0002:000180a4       ??_C@_0CM@FCBBDIGB@?$GAeh?5vector?5vbase?5copy?5constructo@ 100380a4     LIBCMT:undname.obj
 0002:000180d0       ??_C@_0BL@CLIPGLGB@?$GAdynamic?5initializer?5for?5?8?$AA@ 100380d0     LIBCMT:undname.obj
 0002:000180ec       ??_C@_0CB@PDBIFEP@?$GAdynamic?5atexit?5destructor?5for?5?8@ 100380ec     LIBCMT:undname.obj
 0002:00018110       ??_C@_0CD@CGAJBKEJ@?$GAvector?5copy?5constructor?5iterato@ 10038110     LIBCMT:undname.obj
 0002:00018134       ??_C@_0CJ@GJELGAMM@?$GAvector?5vbase?5copy?5constructor?5i@ 10038134     LIBCMT:undname.obj
 0002:00018160       ??_C@_0CL@FGIJHLCE@?$GAmanaged?5vector?5copy?5constructor@ 10038160     LIBCMT:undname.obj
 0002:0001818c       ??_C@_0BM@PMGGMLDN@?$GAlocal?5static?5thread?5guard?8?$AA@ 1003818c     LIBCMT:undname.obj
 0002:000181a8       ??_C@_0BC@DAFEJGAK@?5Type?5Descriptor?8?$AA@ 100381a8     LIBCMT:undname.obj
 0002:000181bc       ??_C@_0BM@LDKODKLH@?5Base?5Class?5Descriptor?5at?5?$CI?$AA@ 100381bc     LIBCMT:undname.obj
 0002:000181d8       ??_C@_0BD@LGICGFMM@?5Base?5Class?5Array?8?$AA@ 100381d8     LIBCMT:undname.obj
 0002:000181ec       ??_C@_0BN@MECKDCOJ@?5Class?5Hierarchy?5Descriptor?8?$AA@ 100381ec     LIBCMT:undname.obj
 0002:0001820c       ??_C@_0BK@CFCOFLF@?5Complete?5Object?5Locator?8?$AA@ 1003820c     LIBCMT:undname.obj
 0002:00018228       ___lookuptable_s           10038228     LIBCMT:outputs.obj
 0002:00018290       ___newctype                10038290     LIBCMT:ctype.obj
 0002:00018590       __wctype                   10038590     LIBCMT:ctype.obj
 0002:00018798       ___newclmap                10038798     LIBCMT:ctype.obj
 0002:00018918       ___newcumap                10038918     LIBCMT:ctype.obj
 0002:00018a98       ___rg_language_count       10038a98     LIBCMT:getqloc.obj
 0002:00018a9c       ___rg_country_count        10038a9c     LIBCMT:getqloc.obj
 0002:0001b290       ??_C@_1BG@GOEBHBDC@?$AAU?$AAS?$AAE?$AAR?$AA3?$AA2?$AA?4?$AAD?$AAL?$AAL?$AA?$AA@ 1003b290     LIBCMT:crtmboxw.obj
 0002:0001b2a8       ??_C@_0M@DLDCCGNP@MessageBoxW?$AA@ 1003b2a8     LIBCMT:crtmboxw.obj
 0002:0001b2b4       ??_C@_0BA@HNOPNCHB@GetActiveWindow?$AA@ 1003b2b4     LIBCMT:crtmboxw.obj
 0002:0001b2c4       ??_C@_0BD@HHGDFDBJ@GetLastActivePopup?$AA@ 1003b2c4     LIBCMT:crtmboxw.obj
 0002:0001b2d8       ??_C@_0BK@DEKFELLI@GetUserObjectInformationW?$AA@ 1003b2d8     LIBCMT:crtmboxw.obj
 0002:0001b2f4       ??_C@_0BI@DFKBFLJE@GetProcessWindowStation?$AA@ 1003b2f4     LIBCMT:crtmboxw.obj
 0002:0001b30c       ??_C@_06PGGFOGJG@1?$CDSNAN?$AA@ 1003b30c     LIBCMT:x10fout.obj
 0002:0001b314       ??_C@_05PHHOCPM@1?$CDIND?$AA@ 1003b314     LIBCMT:x10fout.obj
 0002:0001b31c       ??_C@_05DNEBIAHO@1?$CDINF?$AA@ 1003b31c     LIBCMT:x10fout.obj
 0002:0001b324       ??_C@_06IMKFLFPG@1?$CDQNAN?$AA@ 1003b324     LIBCMT:x10fout.obj
 0002:0001b32c       ??_C@_1BA@BALFACEM@?$AAC?$AAO?$AAN?$AAO?$AAU?$AAT?$AA$?$AA?$AA@ 1003b32c     LIBCMT:initcon.obj
 0002:0001b340       __load_config_used         1003b340     LIBCMT:loadcfg.obj
 0002:0001b41c       ??_R3CBaseVSShader@@8      1003b41c     blur.obj
 0002:0001b42c       ??_R2CBaseVSShader@@8      1003b42c     blur.obj
 0002:0001b43c       ??_R1A@?0A@EA@CBaseVSShader@@8 1003b43c     blur.obj
 0002:0001b458       ??_R1A@?0A@EA@CBaseShader@@8 1003b458     blur.obj
 0002:0001b474       ??_R3CBaseShader@@8        1003b474     blur.obj
 0002:0001b484       ??_R2CBaseShader@@8        1003b484     blur.obj
 0002:0001b490       ??_R1A@?0A@EA@IShader@@8   1003b490     blur.obj
 0002:0001b4ac       ??_R3IShader@@8            1003b4ac     blur.obj
 0002:0001b4bc       ??_R2IShader@@8            1003b4bc     blur.obj
 0002:0001b4c4       ??_R4CShader@GAUSSIAN_BLUR_6@@6B@ 1003b4c4     blur.obj
 0002:0001b4d8       ??_R3CShader@GAUSSIAN_BLUR_6@@8 1003b4d8     blur.obj
 0002:0001b4e8       ??_R2CShader@GAUSSIAN_BLUR_6@@8 1003b4e8     blur.obj
 0002:0001b4fc       ??_R1A@?0A@EA@CShader@GAUSSIAN_BLUR_6@@8 1003b4fc     blur.obj
 0002:0001b518       ??_R4CShader@DEBUG_LIGHTING_CTRL@@6B@ 1003b518     debug_lightingctrl.obj
 0002:0001b52c       ??_R3CShader@DEBUG_LIGHTING_CTRL@@8 1003b52c     debug_lightingctrl.obj
 0002:0001b53c       ??_R2CShader@DEBUG_LIGHTING_CTRL@@8 1003b53c     debug_lightingctrl.obj
 0002:0001b550       ??_R1A@?0A@EA@CShader@DEBUG_LIGHTING_CTRL@@8 1003b550     debug_lightingctrl.obj
 0002:0001b56c       ??_R4CShader@DEBUG_RADIOSITY_GRID@@6B@ 1003b56c     debug_radiosity_grid.obj
 0002:0001b580       ??_R3CShader@DEBUG_RADIOSITY_GRID@@8 1003b580     debug_radiosity_grid.obj
 0002:0001b590       ??_R2CShader@DEBUG_RADIOSITY_GRID@@8 1003b590     debug_radiosity_grid.obj
 0002:0001b5a4       ??_R1A@?0A@EA@CShader@DEBUG_RADIOSITY_GRID@@8 1003b5a4     debug_radiosity_grid.obj
 0002:0001b5c0       ??_R4CShader@DEBUG_SHADOW@@6B@ 1003b5c0     debug_shadow.obj
 0002:0001b5d4       ??_R3CShader@DEBUG_SHADOW@@8 1003b5d4     debug_shadow.obj
 0002:0001b5e4       ??_R2CShader@DEBUG_SHADOW@@8 1003b5e4     debug_shadow.obj
 0002:0001b5f8       ??_R1A@?0A@EA@CShader@DEBUG_SHADOW@@8 1003b5f8     debug_shadow.obj
 0002:0001b614       ??_R4CBasePerMaterialContextData@@6B@ 1003b614     deferred_brush.obj
 0002:0001b628       ??_R3CBasePerMaterialContextData@@8 1003b628     deferred_brush.obj
 0002:0001b638       ??_R2CBasePerMaterialContextData@@8 1003b638     deferred_brush.obj
 0002:0001b640       ??_R1A@?0A@EA@CBasePerMaterialContextData@@8 1003b640     deferred_brush.obj
 0002:0001b65c       ??_R4CDeferredPerMaterialContextData@@6B@ 1003b65c     deferred_brush.obj
 0002:0001b670       ??_R3CDeferredPerMaterialContextData@@8 1003b670     deferred_brush.obj
 0002:0001b680       ??_R2CDeferredPerMaterialContextData@@8 1003b680     deferred_brush.obj
 0002:0001b68c       ??_R1A@?0A@EA@CDeferredPerMaterialContextData@@8 1003b68c     deferred_brush.obj
 0002:0001b6a8       ??_R4CShader@DEFERRED_BRUSH@@6B@ 1003b6a8     deferred_brush.obj
 0002:0001b6bc       ??_R3CShader@DEFERRED_BRUSH@@8 1003b6bc     deferred_brush.obj
 0002:0001b6cc       ??_R2CShader@DEFERRED_BRUSH@@8 1003b6cc     deferred_brush.obj
 0002:0001b6e0       ??_R1A@?0A@EA@CShader@DEFERRED_BRUSH@@8 1003b6e0     deferred_brush.obj
 0002:0001b6fc       ??_R4CShader@DEFERRED_DECALMODULATE@@6B@ 1003b6fc     deferred_decalModulate.obj
 0002:0001b710       ??_R3CShader@DEFERRED_DECALMODULATE@@8 1003b710     deferred_decalModulate.obj
 0002:0001b720       ??_R2CShader@DEFERRED_DECALMODULATE@@8 1003b720     deferred_decalModulate.obj
 0002:0001b734       ??_R1A@?0A@EA@CShader@DEFERRED_DECALMODULATE@@8 1003b734     deferred_decalModulate.obj
 0002:0001b750       ??_R4CShader@DEFERRED_MODEL@@6B@ 1003b750     deferred_model.obj
 0002:0001b764       ??_R3CShader@DEFERRED_MODEL@@8 1003b764     deferred_model.obj
 0002:0001b774       ??_R2CShader@DEFERRED_MODEL@@8 1003b774     deferred_model.obj
 0002:0001b788       ??_R1A@?0A@EA@CShader@DEFERRED_MODEL@@8 1003b788     deferred_model.obj
 0002:0001b7a4       ??_R4IBaseInterface@@6B@   1003b7a4     IDeferredExt.obj
 0002:0001b7b8       ??_R3IBaseInterface@@8     1003b7b8     IDeferredExt.obj
 0002:0001b7c8       ??_R2IBaseInterface@@8     1003b7c8     IDeferredExt.obj
 0002:0001b7d0       ??_R1A@?0A@EA@IBaseInterface@@8 1003b7d0     IDeferredExt.obj
 0002:0001b7ec       ??_R3IDeferredExtension@@8 1003b7ec     IDeferredExt.obj
 0002:0001b7fc       ??_R2IDeferredExtension@@8 1003b7fc     IDeferredExt.obj
 0002:0001b808       ??_R1A@?0A@EA@IDeferredExtension@@8 1003b808     IDeferredExt.obj
 0002:0001b824       ??_R4CDeferredExtension@@6B@ 1003b824     IDeferredExt.obj
 0002:0001b838       ??_R3CDeferredExtension@@8 1003b838     IDeferredExt.obj
 0002:0001b848       ??_R2CDeferredExtension@@8 1003b848     IDeferredExt.obj
 0002:0001b858       ??_R1A@?0A@EA@CDeferredExtension@@8 1003b858     IDeferredExt.obj
 0002:0001b874       ??_R4CShader@LIGHTING_GLOBAL@@6B@ 1003b874     lighting_global.obj
 0002:0001b888       ??_R3CShader@LIGHTING_GLOBAL@@8 1003b888     lighting_global.obj
 0002:0001b898       ??_R2CShader@LIGHTING_GLOBAL@@8 1003b898     lighting_global.obj
 0002:0001b8ac       ??_R1A@?0A@EA@CShader@LIGHTING_GLOBAL@@8 1003b8ac     lighting_global.obj
 0002:0001b8c8       ??_R4CShader@LIGHTING_WORLD@@6B@ 1003b8c8     lighting_world.obj
 0002:0001b8dc       ??_R3CShader@LIGHTING_WORLD@@8 1003b8dc     lighting_world.obj
 0002:0001b8ec       ??_R2CShader@LIGHTING_WORLD@@8 1003b8ec     lighting_world.obj
 0002:0001b900       ??_R1A@?0A@EA@CShader@LIGHTING_WORLD@@8 1003b900     lighting_world.obj
 0002:0001b91c       ??_R4CShader@LIGHTING_VOLUME@@6B@ 1003b91c     lighting_volume.obj
 0002:0001b930       ??_R3CShader@LIGHTING_VOLUME@@8 1003b930     lighting_volume.obj
 0002:0001b940       ??_R2CShader@LIGHTING_VOLUME@@8 1003b940     lighting_volume.obj
 0002:0001b954       ??_R1A@?0A@EA@CShader@LIGHTING_VOLUME@@8 1003b954     lighting_volume.obj
 0002:0001b970       ??_R4CShader@RADIOSITY_BLEND@@6B@ 1003b970     radiosity_blend.obj
 0002:0001b984       ??_R3CShader@RADIOSITY_BLEND@@8 1003b984     radiosity_blend.obj
 0002:0001b994       ??_R2CShader@RADIOSITY_BLEND@@8 1003b994     radiosity_blend.obj
 0002:0001b9a8       ??_R1A@?0A@EA@CShader@RADIOSITY_BLEND@@8 1003b9a8     radiosity_blend.obj
 0002:0001b9c4       ??_R4CShader@RADIOSITY_GLOBAL@@6B@ 1003b9c4     radiosity_global.obj
 0002:0001b9d8       ??_R3CShader@RADIOSITY_GLOBAL@@8 1003b9d8     radiosity_global.obj
 0002:0001b9e8       ??_R2CShader@RADIOSITY_GLOBAL@@8 1003b9e8     radiosity_global.obj
 0002:0001b9fc       ??_R1A@?0A@EA@CShader@RADIOSITY_GLOBAL@@8 1003b9fc     radiosity_global.obj
 0002:0001ba18       ??_R4CShader@RADIOSITY_PROPAGATE@@6B@ 1003ba18     radiosity_propagate.obj
 0002:0001ba2c       ??_R3CShader@RADIOSITY_PROPAGATE@@8 1003ba2c     radiosity_propagate.obj
 0002:0001ba3c       ??_R2CShader@RADIOSITY_PROPAGATE@@8 1003ba3c     radiosity_propagate.obj
 0002:0001ba50       ??_R1A@?0A@EA@CShader@RADIOSITY_PROPAGATE@@8 1003ba50     radiosity_propagate.obj
 0002:0001ba6c       ??_R4CShader@SCREENSPACE_COMBINE@@6B@ 1003ba6c     screenspace_combine.obj
 0002:0001ba80       ??_R3CShader@SCREENSPACE_COMBINE@@8 1003ba80     screenspace_combine.obj
 0002:0001ba90       ??_R2CShader@SCREENSPACE_COMBINE@@8 1003ba90     screenspace_combine.obj
 0002:0001baa4       ??_R1A@?0A@EA@CShader@SCREENSPACE_COMBINE@@8 1003baa4     screenspace_combine.obj
 0002:0001bac0       ??_R4CShader@SCREENSPACE_SHADING@@6B@ 1003bac0     screenspace_shading.obj
 0002:0001bad4       ??_R3CShader@SCREENSPACE_SHADING@@8 1003bad4     screenspace_shading.obj
 0002:0001bae4       ??_R2CShader@SCREENSPACE_SHADING@@8 1003bae4     screenspace_shading.obj
 0002:0001baf8       ??_R1A@?0A@EA@CShader@SCREENSPACE_SHADING@@8 1003baf8     screenspace_shading.obj
 0002:0001bb14       ??_R4CShader@VOLUME_BLEND@@6B@ 1003bb14     volume_blend.obj
 0002:0001bb28       ??_R3CShader@VOLUME_BLEND@@8 1003bb28     volume_blend.obj
 0002:0001bb38       ??_R2CShader@VOLUME_BLEND@@8 1003bb38     volume_blend.obj
 0002:0001bb4c       ??_R1A@?0A@EA@CShader@VOLUME_BLEND@@8 1003bb4c     volume_blend.obj
 0002:0001bb68       ??_R4CShader@VOLUME_PREPASS@@6B@ 1003bb68     volume_prepass.obj
 0002:0001bb7c       ??_R3CShader@VOLUME_PREPASS@@8 1003bb7c     volume_prepass.obj
 0002:0001bb8c       ??_R2CShader@VOLUME_PREPASS@@8 1003bb8c     volume_prepass.obj
 0002:0001bba0       ??_R1A@?0A@EA@CShader@VOLUME_PREPASS@@8 1003bba0     volume_prepass.obj
 0002:0001bbbc       ??_R3IConCommandBaseAccessor@@8 1003bbbc     tier1:convar.obj
 0002:0001bbcc       ??_R2IConCommandBaseAccessor@@8 1003bbcc     tier1:convar.obj
 0002:0001bbd4       ??_R1A@?0A@EA@IConCommandBaseAccessor@@8 1003bbd4     tier1:convar.obj
 0002:0001bbf0       ??_R4ConCommandBase@@6B@   1003bbf0     tier1:convar.obj
 0002:0001bc04       ??_R3ConCommandBase@@8     1003bc04     tier1:convar.obj
 0002:0001bc14       ??_R2ConCommandBase@@8     1003bc14     tier1:convar.obj
 0002:0001bc1c       ??_R1A@?0A@EA@ConCommandBase@@8 1003bc1c     tier1:convar.obj
 0002:0001bc38       ??_R4IConVar@@6B@          1003bc38     tier1:convar.obj
 0002:0001bc4c       ??_R3IConVar@@8            1003bc4c     tier1:convar.obj
 0002:0001bc5c       ??_R2IConVar@@8            1003bc5c     tier1:convar.obj
 0002:0001bc64       ??_R1A@?0A@EA@IConVar@@8   1003bc64     tier1:convar.obj
 0002:0001bc80       ??_R4CDefaultAccessor@@6B@ 1003bc80     tier1:convar.obj
 0002:0001bc94       ??_R3CDefaultAccessor@@8   1003bc94     tier1:convar.obj
 0002:0001bca4       ??_R2CDefaultAccessor@@8   1003bca4     tier1:convar.obj
 0002:0001bcb0       ??_R1A@?0A@EA@CDefaultAccessor@@8 1003bcb0     tier1:convar.obj
 0002:0001bccc       ??_R4ConVar@@6BConCommandBase@@@ 1003bccc     tier1:convar.obj
 0002:0001bce0       ??_R3ConVar@@8             1003bce0     tier1:convar.obj
 0002:0001bcf0       ??_R2ConVar@@8             1003bcf0     tier1:convar.obj
 0002:0001bd00       ??_R1A@?0A@EA@ConVar@@8    1003bd00     tier1:convar.obj
 0002:0001bd1c       ??_R1BI@?0A@EA@IConVar@@8  1003bd1c     tier1:convar.obj
 0002:0001bd38       ??_R4ConVar@@6BIConVar@@@  1003bd38     tier1:convar.obj
 0002:0001bd4c       ??_R4CEmptyConVar@@6BConCommandBase@@@ 1003bd4c     tier1:convar.obj
 0002:0001bd60       ??_R3CEmptyConVar@@8       1003bd60     tier1:convar.obj
 0002:0001bd70       ??_R2CEmptyConVar@@8       1003bd70     tier1:convar.obj
 0002:0001bd84       ??_R1A@?0A@EA@CEmptyConVar@@8 1003bd84     tier1:convar.obj
 0002:0001bda0       ??_R4CEmptyConVar@@6BIConVar@@@ 1003bda0     tier1:convar.obj
 0002:0001bdb4       ??_R4CUtlCharConversion@@6B@ 1003bdb4     tier1:utlbuffer.obj
 0002:0001bdc8       ??_R3CUtlCharConversion@@8 1003bdc8     tier1:utlbuffer.obj
 0002:0001bdd8       ??_R2CUtlCharConversion@@8 1003bdd8     tier1:utlbuffer.obj
 0002:0001bde0       ??_R1A@?0A@EA@CUtlCharConversion@@8 1003bde0     tier1:utlbuffer.obj
 0002:0001bdfc       ??_R4CUtlNoEscConversion@@6B@ 1003bdfc     tier1:utlbuffer.obj
 0002:0001be10       ??_R3CUtlNoEscConversion@@8 1003be10     tier1:utlbuffer.obj
 0002:0001be20       ??_R2CUtlNoEscConversion@@8 1003be20     tier1:utlbuffer.obj
 0002:0001be2c       ??_R1A@?0A@EA@CUtlNoEscConversion@@8 1003be2c     tier1:utlbuffer.obj
 0002:0001be48       ??_R4CUtlCStringConversion@@6B@ 1003be48     tier1:utlbuffer.obj
 0002:0001be5c       ??_R3CUtlCStringConversion@@8 1003be5c     tier1:utlbuffer.obj
 0002:0001be6c       ??_R2CUtlCStringConversion@@8 1003be6c     tier1:utlbuffer.obj
 0002:0001be78       ??_R1A@?0A@EA@CUtlCStringConversion@@8 1003be78     tier1:utlbuffer.obj
 0002:0001be94       ??_R4CBasePerInstanceContextData@@6B@ 1003be94     shaderlib:BaseShader.obj
 0002:0001bea8       ??_R3CBasePerInstanceContextData@@8 1003bea8     shaderlib:BaseShader.obj
 0002:0001beb8       ??_R2CBasePerInstanceContextData@@8 1003beb8     shaderlib:BaseShader.obj
 0002:0001bec0       ??_R1A@?0A@EA@CBasePerInstanceContextData@@8 1003bec0     shaderlib:BaseShader.obj
 0002:0001bedc       ??_R4CPerInstanceContextData@@6B@ 1003bedc     shaderlib:BaseShader.obj
 0002:0001bef0       ??_R3CPerInstanceContextData@@8 1003bef0     shaderlib:BaseShader.obj
 0002:0001bf00       ??_R2CPerInstanceContextData@@8 1003bf00     shaderlib:BaseShader.obj
 0002:0001bf0c       ??_R1A@?0A@EA@CPerInstanceContextData@@8 1003bf0c     shaderlib:BaseShader.obj
 0002:0001bf28       ??_R4CBaseShader@@6B@      1003bf28     shaderlib:BaseShader.obj
 0002:0001bf3c       ??_R4IShaderDLL@@6B@       1003bf3c     shaderlib:ShaderDLL.obj
 0002:0001bf50       ??_R3IShaderDLL@@8         1003bf50     shaderlib:ShaderDLL.obj
 0002:0001bf60       ??_R2IShaderDLL@@8         1003bf60     shaderlib:ShaderDLL.obj
 0002:0001bf68       ??_R1A@?0A@EA@IShaderDLL@@8 1003bf68     shaderlib:ShaderDLL.obj
 0002:0001bf84       ??_R3IShaderDLLInternal@@8 1003bf84     shaderlib:ShaderDLL.obj
 0002:0001bf94       ??_R2IShaderDLLInternal@@8 1003bf94     shaderlib:ShaderDLL.obj
 0002:0001bf9c       ??_R1A@?0A@EA@IShaderDLLInternal@@8 1003bf9c     shaderlib:ShaderDLL.obj
 0002:0001bfb8       ??_R4CShaderDLL@@6BIShaderDLLInternal@@@ 1003bfb8     shaderlib:ShaderDLL.obj
 0002:0001bfcc       ??_R3CShaderDLL@@8         1003bfcc     shaderlib:ShaderDLL.obj
 0002:0001bfdc       ??_R2CShaderDLL@@8         1003bfdc     shaderlib:ShaderDLL.obj
 0002:0001bfec       ??_R1A@?0A@EA@CShaderDLL@@8 1003bfec     shaderlib:ShaderDLL.obj
 0002:0001c008       ??_R13?0A@EA@IShaderDLL@@8 1003c008     shaderlib:ShaderDLL.obj
 0002:0001c024       ??_R4CShaderDLL@@6BIShaderDLL@@@ 1003c024     shaderlib:ShaderDLL.obj
 0002:0001c038       ??_R4CShaderLibConVarAccessor@@6B@ 1003c038     shaderlib:shaderlib_cvar.obj
 0002:0001c04c       ??_R3CShaderLibConVarAccessor@@8 1003c04c     shaderlib:shaderlib_cvar.obj
 0002:0001c05c       ??_R2CShaderLibConVarAccessor@@8 1003c05c     shaderlib:shaderlib_cvar.obj
 0002:0001c068       ??_R1A@?0A@EA@CShaderLibConVarAccessor@@8 1003c068     shaderlib:shaderlib_cvar.obj
 0002:0001c084       ??_R4type_info@@6B@        1003c084     LIBCMT:typinfo.obj
 0002:0001c098       ??_R3type_info@@8          1003c098     LIBCMT:typinfo.obj
 0002:0001c0a8       ??_R2type_info@@8          1003c0a8     LIBCMT:typinfo.obj
 0002:0001c0b0       ??_R1A@?0A@EA@type_info@@8 1003c0b0     LIBCMT:typinfo.obj
 0002:0001c0cc       ??_R1A@?0A@EA@exception@std@@8 1003c0cc     LIBCMT:new.obj
 0002:0001c0e8       ??_R3exception@std@@8      1003c0e8     LIBCMT:new.obj
 0002:0001c0f8       ??_R2exception@std@@8      1003c0f8     LIBCMT:new.obj
 0002:0001c100       ??_R4bad_alloc@std@@6B@    1003c100     LIBCMT:new.obj
 0002:0001c114       ??_R3bad_alloc@std@@8      1003c114     LIBCMT:new.obj
 0002:0001c124       ??_R2bad_alloc@std@@8      1003c124     LIBCMT:new.obj
 0002:0001c130       ??_R1A@?0A@EA@bad_alloc@std@@8 1003c130     LIBCMT:new.obj
 0002:0001c14c       ??_R4exception@std@@6B@    1003c14c     LIBCMT:stdexcpt.obj
 0002:0001c160       ___safe_se_handler_table   1003c160     <linker-defined>
 0002:0001c16c       ___rtc_iaa                 1003c16c     LIBCMT:initsect.obj
 0002:0001c170       ___rtc_izz                 1003c170     LIBCMT:initsect.obj
 0002:0001c174       ___rtc_taa                 1003c174     LIBCMT:initsect.obj
 0002:0001c178       ___rtc_tzz                 1003c178     LIBCMT:initsect.obj
 0002:0001c1bc       __TI2?AVbad_alloc@std@@    1003c1bc     LIBCMT:new.obj
 0002:0001c1cc       __CTA2?AVbad_alloc@std@@   1003c1cc     LIBCMT:new.obj
 0002:0001c1d8       __CT??_R0?AVbad_alloc@std@@@8??0bad_alloc@std@@QAE@ABV01@@Z12 1003c1d8     LIBCMT:new.obj
 0002:0001c1f4       __CT??_R0?AVexception@std@@@8??0exception@std@@QAE@ABV01@@Z12 1003c1f4     LIBCMT:new.obj
 0002:0001c5b4       __IMPORT_DESCRIPTOR_KERNEL32 1003c5b4     kernel32:KERNEL32.dll
 0002:0001c5c8       __IMPORT_DESCRIPTOR_tier0  1003c5c8     tier0:tier0.dll
 0002:0001c5dc       __NULL_IMPORT_DESCRIPTOR   1003c5dc     kernel32:KERNEL32.dll
 0003:00000a68       ??_R0?AVIConCommandBaseAccessor@@@8 1003da68     tier1:convar.obj
 0003:00000a90       ??_R0?AVConCommandBase@@@8 1003da90     tier1:convar.obj
 0003:00000ab4       ??_R0?AVIConVar@@@8        1003dab4     tier1:convar.obj
 0003:00000acc       ??_R0?AVConVar@@@8         1003dacc     tier1:convar.obj
 0003:00000ae4       ??_R0?AVCDefaultAccessor@@@8 1003dae4     tier1:convar.obj
 0003:00000b08       ??_R0?AVCEmptyConVar@@@8   1003db08     tier1:convar.obj
 0003:00000bc8       ??_R0?AVCUtlCharConversion@@@8 1003dbc8     tier1:utlbuffer.obj
 0003:00000bec       ??_R0?AVCUtlNoEscConversion@@@8 1003dbec     tier1:utlbuffer.obj
 0003:00000c10       ??_R0?AVCUtlCStringConversion@@@8 1003dc10     tier1:utlbuffer.obj
 0003:00000e80       ?power2_n@@3PAMA           1003de80     mathlib:color_conversion.obj
 0003:000012a8       ?pfVectorNormalizeFast@@3P6IXAAVVector@@@ZA 1003e2a8     mathlib:mathlib_base.obj
 0003:000012b4       ?quat_identity@@3VQuaternion@@B 1003e2b4     mathlib:mathlib_base.obj
 0003:000012c4       ?vec3_invalid@@3VVector@@B 1003e2c4     mathlib:mathlib_base.obj
 0003:000015f4       ?g_ConVarAccessor@@3VCShaderLibConVarAccessor@@A 1003e5f4     shaderlib:shaderlib_cvar.obj
 0003:00001600       __fltused                  1003e600     LIBCMT:fpinit.obj
 0003:00001604       __ldused                   1003e604     LIBCMT:fpinit.obj
 0003:00001610       __half                     1003e610     LIBCMT:pow.obj
 0003:00001648       __d_inf                    1003e648     LIBCMT:util.obj
 0003:00001650       __d_ind                    1003e650     LIBCMT:util.obj
 0003:00001658       __d_max                    1003e658     LIBCMT:util.obj
 0003:00001660       __d_min                    1003e660     LIBCMT:util.obj
 0003:00001668       __d_mzero                  1003e668     LIBCMT:util.obj
 0003:00001780       __cfltcvt_tab              1003e780     LIBCMT:cmiscdat.obj
 0003:000017a8       ___abort_behavior          1003e7a8     LIBCMT:abort.obj
 0003:000017b0       __iob                      1003e7b0     LIBCMT:_file.obj
 0003:00001a30       ___nullstring              1003ea30     LIBCMT:output.obj
 0003:00001a34       ___wnullstring             1003ea34     LIBCMT:output.obj
 0003:00001ba8       ___security_cookie         1003eba8     LIBCMT:gs_cookie.obj
 0003:00001bac       ___security_cookie_complement 1003ebac     LIBCMT:gs_cookie.obj
 0003:00001bb0       ___isa_enabled             1003ebb0     LIBCMT:cpu_disp.obj
 0003:00001bb4       ___flsindex                1003ebb4     LIBCMT:tidtable.obj
 0003:00001bb8       ___badioinfo               1003ebb8     LIBCMT:ioinit.obj
 0003:00001c00       __mbctype                  1003ec00     LIBCMT:mbctype.obj
 0003:00001d08       __mbcasemap                1003ed08     LIBCMT:mbctype.obj
 0003:00001e08       ___initialmbcinfo          1003ee08     LIBCMT:mbctype.obj
 0003:0000202c       ___ptmbcinfo               1003f02c     LIBCMT:mbctype.obj
 0003:00002120       ___mb_cur_max              1003f120     LIBCMT:nlsdata.obj
 0003:00002124       ___wclocalestr             1003f124     LIBCMT:nlsdata.obj
 0003:00002128       ___lc_time_c               1003f128     LIBCMT:nlsdata.obj
 0003:0000228c       ___ptlocinfo               1003f28c     LIBCMT:nlsdata.obj
 0003:00002290       ___initiallocinfo          1003f290     LIBCMT:nlsdata.obj
 0003:00002348       ___globallocalestatus      1003f348     LIBCMT:glstatus.obj
 0003:00002350       __HUGE                     1003f350     LIBCMT:huge.obj
 0003:000024b0       __matherr_flag             1003f4b0     LIBCMT:matherr.obj
 0003:000024f0       __pow10pos                 1003f4f0     LIBCMT:constpow.obj
 0003:00002650       __pow10neg                 1003f650     LIBCMT:constpow.obj
 0003:000027b0       ___lconv                   1003f7b0     LIBCMT:lconv.obj
 0003:000027b4       ___lconv_static_decimal    1003f7b4     LIBCMT:lconv.obj
 0003:000027b8       ___lconv_c                 1003f7b8     LIBCMT:lconv.obj
 0003:00002808       ___lconv_static_W_decimal  1003f808     LIBCMT:lconv.obj
 0003:0000280c       __pctype                   1003f80c     LIBCMT:ctype.obj
 0003:00002810       __pwctype                  1003f810     LIBCMT:ctype.obj
 0003:00002820       __NLG_Destination          1003f820     LIBCMT:exsup.obj
 0003:00002830       __lookuptrailbytes         1003f830     LIBCMT:read.obj
 0003:00002930       __confh                    1003f930     LIBCMT:initcon.obj
 0003:00002940       ??_R0?AVCBaseVSShader@@@8  1003f940     blur.obj
 0003:0000295c       ??_R0?AVCBaseShader@@@8    1003f95c     blur.obj
 0003:00002978       ??_R0?AVIShader@@@8        1003f978     blur.obj
 0003:00002990       ??_R0?AVCShader@GAUSSIAN_BLUR_6@@@8 1003f990     blur.obj
 0003:000029b8       ??_R0?AVCShader@DEBUG_LIGHTING_CTRL@@@8 1003f9b8     debug_lightingctrl.obj
 0003:000029e4       ??_R0?AVCShader@DEBUG_RADIOSITY_GRID@@@8 1003f9e4     debug_radiosity_grid.obj
 0003:00002a10       ??_R0?AVCShader@DEBUG_SHADOW@@@8 1003fa10     debug_shadow.obj
 0003:00002a34       ??_R0?AVCBasePerMaterialContextData@@@8 1003fa34     deferred_brush.obj
 0003:00002a60       ??_R0?AVCDeferredPerMaterialContextData@@@8 1003fa60     deferred_brush.obj
 0003:00002a90       ??_R0?AVCShader@DEFERRED_BRUSH@@@8 1003fa90     deferred_brush.obj
 0003:00002ab8       ??_R0?AVCShader@DEFERRED_DECALMODULATE@@@8 1003fab8     deferred_decalModulate.obj
 0003:00002ae8       ??_R0?AVCShader@DEFERRED_MODEL@@@8 1003fae8     deferred_model.obj
 0003:00002b10       ??_R0?AVIBaseInterface@@@8 1003fb10     IDeferredExt.obj
 0003:00002b30       ??_R0?AVIDeferredExtension@@@8 1003fb30     IDeferredExt.obj
 0003:00002b54       ??_R0?AVCDeferredExtension@@@8 1003fb54     IDeferredExt.obj
 0003:00002b78       ??_R0?AVCShader@LIGHTING_GLOBAL@@@8 1003fb78     lighting_global.obj
 0003:00002ba0       ??_R0?AVCShader@LIGHTING_WORLD@@@8 1003fba0     lighting_world.obj
 0003:00002bc8       ??_R0?AVCShader@LIGHTING_VOLUME@@@8 1003fbc8     lighting_volume.obj
 0003:00002bf0       ??_R0?AVCShader@RADIOSITY_BLEND@@@8 1003fbf0     radiosity_blend.obj
 0003:00002c18       ??_R0?AVCShader@RADIOSITY_GLOBAL@@@8 1003fc18     radiosity_global.obj
 0003:00002c40       ??_R0?AVCShader@RADIOSITY_PROPAGATE@@@8 1003fc40     radiosity_propagate.obj
 0003:00002c6c       ??_R0?AVCShader@SCREENSPACE_COMBINE@@@8 1003fc6c     screenspace_combine.obj
 0003:00002c98       ??_R0?AVCShader@SCREENSPACE_SHADING@@@8 1003fc98     screenspace_shading.obj
 0003:00002cc4       ??_R0?AVCShader@VOLUME_BLEND@@@8 1003fcc4     volume_blend.obj
 0003:00002ce8       ??_R0?AVCShader@VOLUME_PREPASS@@@8 1003fce8     volume_prepass.obj
 0003:00002d10       ??_R0?AVCBasePerInstanceContextData@@@8 1003fd10     shaderlib:BaseShader.obj
 0003:00002d3c       ??_R0?AVCPerInstanceContextData@@@8 1003fd3c     shaderlib:BaseShader.obj
 0003:00002d64       ??_R0?AVIShaderDLL@@@8     1003fd64     shaderlib:ShaderDLL.obj
 0003:00002d80       ??_R0?AVIShaderDLLInternal@@@8 1003fd80     shaderlib:ShaderDLL.obj
 0003:00002da4       ??_R0?AVCShaderDLL@@@8     1003fda4     shaderlib:ShaderDLL.obj
 0003:00002dc0       ??_R0?AVCShaderLibConVarAccessor@@@8 1003fdc0     shaderlib:shaderlib_cvar.obj
 0003:00002de8       ??_R0?AVtype_info@@@8      1003fde8     LIBCMT:typinfo.obj
 0003:00002e00       ??_R0?AVbad_alloc@std@@@8  1003fe00     LIBCMT:new.obj
 0003:00002e1c       ??_R0?AVexception@std@@@8  1003fe1c     LIBCMT:new.obj
 0003:000035c8       ?deferred_radiosity_multiplier@@3VConVar@@A 100405c8     deferred_utility.obj
 0003:00003648       ?building_cubemaps@@3VConVar@@A 10040648     defpass_composite.obj
 0003:000036f0       ?__g_defExt@@3VCDeferredExtension@@A 100406f0     IDeferredExt.obj
 0003:00003e78       ?s_pConCommandBases@ConCommandBase@@1PAV1@A 10040e78     tier1:convar.obj
 0003:00003e7c       ?s_pAccessor@ConCommandBase@@1PAVIConCommandBaseAccessor@@A 10040e7c     tier1:convar.obj
 0003:00003ea0       ?s_pInterfaceRegs@@3PAVInterfaceReg@@A 10040ea0     tier1:interface.obj
 0003:00003ec0       ?s_StringCharConversion@@3VCUtlCStringConversion@@A 10040ec0     tier1:utlbuffer.obj
 0003:000048d8       ?s_NoEscConversion@@3VCUtlNoEscConversion@@A 100418d8     tier1:utlbuffer.obj
 0003:000053a0       ?cvar@@3PAVICvar@@A        100423a0     interfaces:interfaces.obj
 0003:000053a4       ?g_pCVar@@3PAVICvar@@A     100423a4     interfaces:interfaces.obj
 0003:000053a8       ?g_pProcessUtils@@3PAVIProcessUtils@@A 100423a8     interfaces:interfaces.obj
 0003:000053b0       ?g_pPhysics2@@3PAVIPhysics2@@A 100423b0     interfaces:interfaces.obj
 0003:000053b4       ?g_pPhysics2ActorManager@@3PAVIPhysics2ActorManager@@A 100423b4     interfaces:interfaces.obj
 0003:000053b8       ?g_pPhysics2ResourceManager@@3PAVIPhysics2ResourceManager@@A 100423b8     interfaces:interfaces.obj
 0003:000053bc       ?g_pEventSystem@@3PAVIEventSystem@@A 100423bc     interfaces:interfaces.obj
 0003:000053c0       ?g_pLocalize@@3PAVILocalize@@A 100423c0     interfaces:interfaces.obj
 0003:000053c4       ?g_pResourceSystem@@3PAVIResourceSystem@@A 100423c4     interfaces:interfaces.obj
 0003:000053c8       ?g_pRenderDeviceMgr@@3PAVIRenderDeviceMgr@@A 100423c8     interfaces:interfaces.obj
 0003:000053cc       ?g_pFullFileSystem@@3PAVIFileSystem@@A 100423cc     interfaces:interfaces.obj
 0003:000053d0       ?g_pAsyncFileSystem@@3PAVIAsyncFileSystem@@A 100423d0     interfaces:interfaces.obj
 0003:000053d4       ?materials@@3PAVIMaterialSystem@@A 100423d4     interfaces:interfaces.obj
 0003:000053d8       ?g_pMaterialSystem@@3PAVIMaterialSystem@@A 100423d8     interfaces:interfaces.obj
 0003:000053dc       ?g_pMaterialSystem2@@3PAVIMaterialSystem2@@A 100423dc     interfaces:interfaces.obj
 0003:000053e0       ?g_pInputSystem@@3PAVIInputSystem@@A 100423e0     interfaces:interfaces.obj
 0003:000053e4       ?g_pInputStackSystem@@3PAVIInputStackSystem@@A 100423e4     interfaces:interfaces.obj
 0003:000053e8       ?g_pNetworkSystem@@3PAVINetworkSystem@@A 100423e8     interfaces:interfaces.obj
 0003:000053ec       ?g_pSoundSystem@@3PAVISoundSystem@@A 100423ec     interfaces:interfaces.obj
 0003:000053f0       ?g_pMaterialSystemHardwareConfig@@3PAVIMaterialSystemHardwareConfig@@A 100423f0     interfaces:interfaces.obj
 0003:000053f4       ?g_pMaterialSystemDebugTextureInfo@@3PAVIDebugTextureInfo@@A 100423f4     interfaces:interfaces.obj
 0003:000053f8       ?g_VBAllocTracker@@3PAVIVBAllocTracker@@A 100423f8     interfaces:interfaces.obj
 0003:000053fc       ?colorcorrection@@3PAVIColorCorrectionSystem@@A 100423fc     interfaces:interfaces.obj
 0003:00005400       ?p4@@3PAVIP4@@A            10042400     interfaces:interfaces.obj
 0003:00005404       ?mdllib@@3PAVIMdlLib@@A    10042404     interfaces:interfaces.obj
 0003:00005408       ?g_pQueuedLoader@@3PAVIQueuedLoader@@A 10042408     interfaces:interfaces.obj
 0003:0000540c       ?g_pResourceAccessControl@@3PAVIResourceAccessControl@@A 1004240c     interfaces:interfaces.obj
 0003:00005410       ?g_pPrecacheSystem@@3PAVIPrecacheSystem@@A 10042410     interfaces:interfaces.obj
 0003:00005414       ?g_pSceneSystem@@3PAVISceneSystem@@A 10042414     interfaces:interfaces.obj
 0003:00005418       ?g_pMatchFramework@@3PAVIMatchFramework@@A 10042418     interfaces:interfaces.obj
 0003:0000541c       ?g_pGameUISystemMgr@@3PAVIGameUISystemMgr@@A 1004241c     interfaces:interfaces.obj
 0003:00005420       ?g_pRenderDevice@@3PAVIRenderDevice@@A 10042420     interfaces:interfaces.obj
 0003:00005424       ?g_pRenderHardwareConfig@@3PAVIRenderHardwareConfig@@A 10042424     interfaces:interfaces.obj
 0003:00005428       ?g_pMeshSystem@@3PAVIMeshSystem@@A 10042428     interfaces:interfaces.obj
 0003:0000542c       ?g_pStudioRender@@3PAVIStudioRender@@A 1004242c     interfaces:interfaces.obj
 0003:00005430       ?studiorender@@3PAVIStudioRender@@A 10042430     interfaces:interfaces.obj
 0003:00005434       ?g_pMatSystemSurface@@3PAVIMatSystemSurface@@A 10042434     interfaces:interfaces.obj
 0003:00005438       ?g_pVGuiInput@@3PAVIInput@vgui@@A 10042438     interfaces:interfaces.obj
 0003:0000543c       ?g_pVGuiSurface@@3PAVISurface@vgui@@A 1004243c     interfaces:interfaces.obj
 0003:00005440       ?g_pVGuiPanel@@3PAVIPanel@vgui@@A 10042440     interfaces:interfaces.obj
 0003:00005444       ?g_pVGui@@3PAVIVGui@vgui@@A 10042444     interfaces:interfaces.obj
 0003:00005448       ?g_pVGuiLocalize@@3PAVILocalize@vgui@@A 10042448     interfaces:interfaces.obj
 0003:0000544c       ?g_pVGuiSchemeManager@@3PAVISchemeManager@vgui@@A 1004244c     interfaces:interfaces.obj
 0003:00005450       ?g_pVGuiSystem@@3PAVISystem@vgui@@A 10042450     interfaces:interfaces.obj
 0003:00005454       ?g_pDataCache@@3PAVIDataCache@@A 10042454     interfaces:interfaces.obj
 0003:00005458       ?g_pMDLCache@@3PAVIMDLCache@@A 10042458     interfaces:interfaces.obj
 0003:0000545c       ?mdlcache@@3PAVIMDLCache@@A 1004245c     interfaces:interfaces.obj
 0003:00005460       ?g_pAVI@@3PAVIAvi@@A       10042460     interfaces:interfaces.obj
 0003:00005464       ?g_pBIK@@3PAVIBik@@A       10042464     interfaces:interfaces.obj
 0003:00005468       ?g_pDmeMakefileUtils@@3PAVIDmeMakefileUtils@@A 10042468     interfaces:interfaces.obj
 0003:0000546c       ?g_pPhysicsCollision@@3PAVIPhysicsCollision@@A 1004246c     interfaces:interfaces.obj
 0003:00005470       ?g_pSoundEmitterSystem@@3PAVISoundEmitterSystemBase@@A 10042470     interfaces:interfaces.obj
 0003:00005474       ?g_pWorldRendererMgr@@3PAVIWorldRendererMgr@@A 10042474     interfaces:interfaces.obj
 0003:00005478       ?g_pVGuiRenderSurface@@3PAVIVGuiRenderSurface@@A 10042478     interfaces:interfaces.obj
 0003:00005888       ?lineartolightmap@@3PAEA   10042888     mathlib:color_conversion.obj
 0003:00009088       ?lineartovertex@@3PAMA     10046088     mathlib:color_conversion.obj
 0003:0000d1b0       ?SinCosTable@@3PAMA        1004a1b0     mathlib:mathlib_base.obj
 0003:0000d5b0       ?s_bMathlibInitialized@@3_NA 1004a5b0     mathlib:mathlib_base.obj
 0003:0000d5bc       ?vec3_origin@@3VVector@@B  1004a5bc     mathlib:mathlib_base.obj
 0003:0000d5c8       ?vec3_angle@@3VQAngle@@B   1004a5c8     mathlib:mathlib_base.obj
 0003:0001467c       ?g_shaderConfigDumpEnable@@3_NA 1005167c     shaderlib:BaseShader.obj
 0003:00014680       ?s_ppParams@CBaseShader@@1PAPAVIMaterialVar@@A 10051680     shaderlib:BaseShader.obj
 0003:00014684       ?s_pShaderShadow@CBaseShader@@1PAVIShaderShadow@@A 10051684     shaderlib:BaseShader.obj
 0003:00014688       ?s_pShaderAPI@CBaseShader@@1PAVIShaderDynamicAPI@@A 10051688     shaderlib:BaseShader.obj
 0003:0001468c       ?s_pShaderInit@CBaseShader@@1PAVIShaderInit@@A 1005168c     shaderlib:BaseShader.obj
 0003:00014690       ?s_nModulationFlags@CBaseShader@@0HA 10051690     shaderlib:BaseShader.obj
 0003:000146f0       ?s_pTextureGroupName@CBaseShader@@1PBDB 100516f0     shaderlib:BaseShader.obj
 0003:000146f4       ?s_nPassCount@CBaseShader@@0HA 100516f4     shaderlib:BaseShader.obj
 0003:000146f8       ?s_pInstanceDataPtr@CBaseShader@@0PAPAVCPerInstanceContextData@@A 100516f8     shaderlib:BaseShader.obj
 0003:00014700       ?g_pHardwareConfig@@3PAVIMaterialSystemHardwareConfig@@A 10051700     shaderlib:ShaderDLL.obj
 0003:00014704       ?g_pConfig@@3PBUMaterialSystem_Config_t@@B 10051704     shaderlib:ShaderDLL.obj
 0003:00014708       ?g_pSLShaderSystem@@3PAVIShaderSystem@@A 10051708     shaderlib:ShaderDLL.obj
 0003:00014724       ___fastflag                10051724     LIBCMT:fpinit.obj
 0003:00014730       __aenvptr                  10051730     LIBCMT:dllcrt0.obj
 0003:00014734       __wenvptr                  10051734     LIBCMT:dllcrt0.obj
 0003:00014738       __C_Exit_Done              10051738     LIBCMT:crt0dat.obj
 0003:0001473c       ___argc                    1005173c     LIBCMT:crt0dat.obj
 0003:00014740       ___argv                    10051740     LIBCMT:crt0dat.obj
 0003:00014744       ___wargv                   10051744     LIBCMT:crt0dat.obj
 0003:00014748       __environ                  10051748     LIBCMT:crt0dat.obj
 0003:0001474c       __wenviron                 1005174c     LIBCMT:crt0dat.obj
 0003:00014750       __pgmptr                   10051750     LIBCMT:crt0dat.obj
 0003:00014754       __wpgmptr                  10051754     LIBCMT:crt0dat.obj
 0003:00014758       __umaskval                 10051758     LIBCMT:crt0dat.obj
 0003:0001475c       __exitflag                 1005175c     LIBCMT:crt0dat.obj
 0003:00014760       __C_Termination_Done       10051760     LIBCMT:crt0dat.obj
 0003:00014764       ___winitenv                10051764     LIBCMT:crt0dat.obj
 0003:00014768       ___initenv                 10051768     LIBCMT:crt0dat.obj
 0003:0001476c       __maxwait                  1005176c     LIBCMT:crtheap.obj
 0003:00014770       ___pPurecall               10051770     LIBCMT:inithelp.obj
 0003:0001477c       ___pInvalidArgHandler      1005177c     LIBCMT:invarg.obj
 0003:00014780       __cflush                   10051780     LIBCMT:_file.obj
 0003:00014784       __stdbuf                   10051784     LIBCMT:_sftbuf.obj
 0003:0001478c       ?_pnhHeap@@3P6AHI@ZA       1005178c     LIBCMT:handler.obj
 0003:00014790       ___isa_available           10051790     LIBCMT:cpu_disp.obj
 0003:00014794       ___favor                   10051794     LIBCMT:cpu_disp.obj
 0003:00014798       __crtheap                  10051798     LIBCMT:heapinit.obj
 0003:000147a0       ___pioinfo                 100517a0     LIBCMT:ioinit.obj
 0003:000149a8       ___mbcodepage              100519a8     LIBCMT:mbctype.obj
 0003:000149ac       ___ismbcodepage            100519ac     LIBCMT:mbctype.obj
 0003:000149b0       ___mbulinfo                100519b0     LIBCMT:mbctype.obj
 0003:000149bc       ___mblocalename            100519bc     LIBCMT:mbctype.obj
 0003:000149c4       ___locale_changed          100519c4     LIBCMT:wsetloca.obj
 0003:00014b20       ___app_type                10051b20     LIBCMT:crt0msg.obj
 0003:00015150       ?__pInconsistency@@3P6AXXZA 10052150     LIBCMT:hooks.obj
 0003:0001516c       __outputformat             1005216c     LIBCMT:outputformat.obj
 0003:00015174       ?pArgList@UnDecorator@@0PAVReplicator@@A 10052174     LIBCMT:undname.obj
 0003:00015178       ?pZNameList@UnDecorator@@0PAVReplicator@@A 10052178     LIBCMT:undname.obj
 0003:0001517c       ?pTemplateArgList@UnDecorator@@0PAVReplicator@@A 1005217c     LIBCMT:undname.obj
 0003:00015180       ?gName@UnDecorator@@0PBDB  10052180     LIBCMT:undname.obj
 0003:00015184       ?name@UnDecorator@@0PBDB   10052184     LIBCMT:undname.obj
 0003:00015188       ?outputString@UnDecorator@@0PADA 10052188     LIBCMT:undname.obj
 0003:0001518c       ?maxStringLength@UnDecorator@@0HA 1005218c     LIBCMT:undname.obj
 0003:00015190       ?disableFlags@UnDecorator@@0KA 10052190     LIBCMT:undname.obj
 0003:00015194       ?fExplicitTemplateParams@UnDecorator@@0_NA 10052194     LIBCMT:undname.obj
 0003:00015195       ?fGetTemplateArgumentList@UnDecorator@@0_NA 10052195     LIBCMT:undname.obj
 0003:00015198       ?m_pGetParameter@UnDecorator@@0P6APADJ@ZA 10052198     LIBCMT:undname.obj
 0003:000151b0       __newmode                  100521b0     LIBCMT:_newmode.obj
 0003:000151b4       ___lconv_static_null       100521b4     LIBCMT:lconv.obj
 0003:000151b8       ___lconv_static_W_null     100521b8     LIBCMT:lconv.obj
 0003:000154e0       ___error_mode              100524e0     LIBCMT:errmode.obj
 0003:00015504       __debugger_hook_dummy      10052504     <common>
 0003:00015508       ___use_sse2_mathfcns       10052508     <common>
 0003:0001550c       __pmatherr                 1005250c     <common>
 0003:00015520       _encodedKERNEL32Functions  10052520     <common>
 0003:000155a4       __nhandle                  100525a4     <common>
 0003:000155c0       __bufin                    100525c0     <common>
 0003:000165c0       ___piob                    100535c0     <common>
 0003:000165c4       __nstream                  100535c4     <common>
 0003:000165c8       __pDestructExceptionObject 100535c8     <common>
 0003:000165cc       ___dyn_tls_init_callback   100535cc     <common>
 0003:000165d0       ___onexitend               100535d0     <common>
 0003:000165d4       ___onexitbegin             100535d4     <common>
 0003:000165d8       ___mbctype_initialized     100535d8     <common>
 0003:000165dc       ___env_initialized         100535dc     <common>
 0003:000165e0       __acmdln                   100535e0     <common>

 entry point at        0001:0000bdf6

 Static symbols

 0000:fffa9000       .debug$S                   10000000     tier0:tier0.dll
 0000:fffa9000       .debug$S                   10000000     tier0:tier0.dll
 0000:fffa9000       .debug$S                   10000000     tier0:tier0.dll
 0000:fffa9000       .debug$S                   10000000     tier0:tier0.dll
 0000:fffa9000       .debug$S                   10000000     tier0:tier0.dll
 0000:fffa9000       .debug$S                   10000000     tier0:tier0.dll
 0000:fffa9000       .debug$S                   10000000     tier0:tier0.dll
 0000:fffa9000       .debug$S                   10000000     tier0:tier0.dll
 0000:fffa9000       .debug$S                   10000000     tier0:tier0.dll
 0000:fffa9000       .debug$S                   10000000     tier0:tier0.dll
 0000:fffa9000       .debug$S                   10000000     tier0:tier0.dll
 0000:fffa9000       .debug$S                   10000000     tier0:tier0.dll
 0000:fffa9000       .debug$S                   10000000     tier0:tier0.dll
 0000:fffa9000       .debug$S                   10000000     tier0:tier0.dll
 0000:fffa9000       .debug$S                   10000000     tier0:tier0.dll
 0000:fffa9000       .debug$S                   10000000     tier0:tier0.dll
 0000:fffa9000       .debug$S                   10000000     kernel32:KERNEL32.dll
 0000:fffa9000       .debug$S                   10000000     kernel32:KERNEL32.dll
 0000:fffa9000       .debug$S                   10000000     kernel32:KERNEL32.dll
 0000:fffa9000       .debug$S                   10000000     kernel32:KERNEL32.dll
 0000:fffa9000       .debug$S                   10000000     kernel32:KERNEL32.dll
 0000:fffa9000       .debug$S                   10000000     kernel32:KERNEL32.dll
 0000:fffa9000       .debug$S                   10000000     kernel32:KERNEL32.dll
 0000:fffa9000       .debug$S                   10000000     kernel32:KERNEL32.dll
 0000:fffa9000       .debug$S                   10000000     kernel32:KERNEL32.dll
 0000:fffa9000       .debug$S                   10000000     kernel32:KERNEL32.dll
 0000:fffa9000       .debug$S                   10000000     kernel32:KERNEL32.dll
 0000:fffa9000       .debug$S                   10000000     kernel32:KERNEL32.dll
 0000:fffa9000       .debug$S                   10000000     kernel32:KERNEL32.dll
 0000:fffa9000       .debug$S                   10000000     kernel32:KERNEL32.dll
 0000:fffa9000       .debug$S                   10000000     kernel32:KERNEL32.dll
 0000:fffa9000       .debug$S                   10000000     kernel32:KERNEL32.dll
 0000:fffa9000       .debug$S                   10000000     kernel32:KERNEL32.dll
 0000:fffa9000       .debug$S                   10000000     kernel32:KERNEL32.dll
 0000:fffa9000       .debug$S                   10000000     kernel32:KERNEL32.dll
 0000:fffa9000       .debug$S                   10000000     kernel32:KERNEL32.dll
 0000:fffa9000       .debug$S                   10000000     kernel32:KERNEL32.dll
 0000:fffa9000       .debug$S                   10000000     kernel32:KERNEL32.dll
 0000:fffa9000       .debug$S                   10000000     kernel32:KERNEL32.dll
 0000:fffa9000       .debug$S                   10000000     kernel32:KERNEL32.dll
 0000:fffa9000       .debug$S                   10000000     kernel32:KERNEL32.dll
 0000:fffa9000       .debug$S                   10000000     kernel32:KERNEL32.dll
 0000:fffa9000       .debug$S                   10000000     kernel32:KERNEL32.dll
 0000:fffa9000       .debug$S                   10000000     kernel32:KERNEL32.dll
 0000:fffa9000       .debug$S                   10000000     kernel32:KERNEL32.dll
 0000:fffa9000       .debug$S                   10000000     kernel32:KERNEL32.dll
 0000:fffa9000       .debug$S                   10000000     kernel32:KERNEL32.dll
 0000:fffa9000       .debug$S                   10000000     kernel32:KERNEL32.dll
 0000:fffa9000       .debug$S                   10000000     kernel32:KERNEL32.dll
 0000:fffa9000       .debug$S                   10000000     kernel32:KERNEL32.dll
 0000:fffa9000       .debug$S                   10000000     kernel32:KERNEL32.dll
 0000:fffa9000       .debug$S                   10000000     kernel32:KERNEL32.dll
 0000:fffa9000       .debug$S                   10000000     kernel32:KERNEL32.dll
 0000:fffa9000       .debug$S                   10000000     kernel32:KERNEL32.dll
 0000:fffa9000       .debug$S                   10000000     kernel32:KERNEL32.dll
 0000:fffa9000       .debug$S                   10000000     kernel32:KERNEL32.dll
 0000:fffa9000       .debug$S                   10000000     kernel32:KERNEL32.dll
 0000:fffa9000       .debug$S                   10000000     kernel32:KERNEL32.dll
 0000:fffa9000       .debug$S                   10000000     kernel32:KERNEL32.dll
 0000:fffa9000       .debug$S                   10000000     kernel32:KERNEL32.dll
 0000:fffa9000       .debug$S                   10000000     kernel32:KERNEL32.dll
 0000:fffa9000       .debug$S                   10000000     kernel32:KERNEL32.dll
 0000:fffa9000       .debug$S                   10000000     kernel32:KERNEL32.dll
 0000:fffa9000       .debug$S                   10000000     kernel32:KERNEL32.dll
 0000:fffa9000       .debug$S                   10000000     kernel32:KERNEL32.dll
 0000:fffa9000       .debug$S                   10000000     kernel32:KERNEL32.dll
 0000:fffa9000       .debug$S                   10000000     kernel32:KERNEL32.dll
 0000:fffa9000       .debug$S                   10000000     kernel32:KERNEL32.dll
 0000:fffa9000       .debug$S                   10000000     kernel32:KERNEL32.dll
 0000:fffa9000       .debug$S                   10000000     kernel32:KERNEL32.dll
 0000:fffa9000       .debug$S                   10000000     kernel32:KERNEL32.dll
 0000:fffa9000       .debug$S                   10000000     kernel32:KERNEL32.dll
 0000:fffa9000       .debug$S                   10000000     kernel32:KERNEL32.dll
 0000:fffa9000       .debug$S                   10000000     kernel32:KERNEL32.dll
 0000:fffa9000       .debug$S                   10000000     kernel32:KERNEL32.dll
 0000:fffa9000       .debug$S                   10000000     kernel32:KERNEL32.dll
 0000:fffa9000       .debug$S                   10000000     kernel32:KERNEL32.dll
 0000:fffa9000       .debug$S                   10000000     kernel32:KERNEL32.dll
 0000:fffa9000       .debug$S                   10000000     kernel32:KERNEL32.dll
 0000:fffa9000       .debug$S                   10000000     kernel32:KERNEL32.dll
 0000:fffa9000       .debug$S                   10000000     kernel32:KERNEL32.dll
 0000:fffa9000       .debug$S                   10000000     kernel32:KERNEL32.dll
 0000:fffa9000       .debug$S                   10000000     kernel32:KERNEL32.dll
 0000:fffa9000       .debug$S                   10000000     kernel32:KERNEL32.dll
 0000:fffa9000       .debug$S                   10000000     kernel32:KERNEL32.dll
 0000:fffa9000       .debug$S                   10000000     kernel32:KERNEL32.dll
 0000:fffa9000       .debug$S                   10000000     kernel32:KERNEL32.dll
 0000:fffa9000       .debug$S                   10000000     kernel32:KERNEL32.dll
 0000:fffa9000       .debug$S                   10000000     kernel32:KERNEL32.dll
 0000:fffa9000       .debug$S                   10000000     kernel32:KERNEL32.dll
 0000:fffa9000       .debug$S                   10000000     kernel32:KERNEL32.dll
 0000:fffa9000       .debug$S                   10000000     kernel32:KERNEL32.dll
 0000:fffa9000       .debug$S                   10000000     kernel32:KERNEL32.dll
 0000:fffa9000       .debug$S                   10000000     kernel32:KERNEL32.dll
 0000:fffa9000       .debug$S                   10000000     kernel32:KERNEL32.dll
 0000:fffa9000       .debug$S                   10000000     kernel32:KERNEL32.dll
 0000:fffa9000       .debug$S                   10000000     kernel32:KERNEL32.dll
 0000:fffa9000       .debug$S                   10000000     kernel32:KERNEL32.dll
 0000:fffa9000       .debug$S                   10000000     kernel32:KERNEL32.dll
 0000:fffa9000       .debug$S                   10000000     kernel32:KERNEL32.dll
 0000:fffa9000       .debug$S                   10000000     kernel32:KERNEL32.dll
 0000:fffa9000       .debug$S                   10000000     kernel32:KERNEL32.dll
 0000:fffa9000       .debug$S                   10000000     kernel32:KERNEL32.dll
 0000:fffa9000       .debug$S                   10000000     kernel32:KERNEL32.dll
 0000:fffa9000       .debug$S                   10000000     kernel32:KERNEL32.dll
 0000:fffa9000       .debug$S                   10000000     kernel32:KERNEL32.dll
 0001:00001940       ??__Emat_fullbright@@YAXXZ 10002940 f   BaseVSShader.obj
 0001:00001970       ??__EISVERTICAL@GAUSSIAN_BLUR_6@@YAXXZ 10002970 f   blur.obj
 0001:00001990       ??__Es_ShaderInstance@GAUSSIAN_BLUR_6@@YAXXZ 10002990 f   blur.obj
 0001:000019b0       ??__Es_ShaderParams@GAUSSIAN_BLUR_6@@YAXXZ 100029b0 f   blur.obj
 0001:000019c0       ??__Es_ShaderInstance@DEBUG_LIGHTING_CTRL@@YAXXZ 100029c0 f   debug_lightingctrl.obj
 0001:000019e0       ??__Es_ShaderParams@DEBUG_LIGHTING_CTRL@@YAXXZ 100029e0 f   debug_lightingctrl.obj
 0001:000019f0       ??__Es_ShaderInstance@DEBUG_RADIOSITY_GRID@@YAXXZ 100029f0 f   debug_radiosity_grid.obj
 0001:00001a10       ??__Es_ShaderParams@DEBUG_RADIOSITY_GRID@@YAXXZ 10002a10 f   debug_radiosity_grid.obj
 0001:00001a20       ??__Es_ShaderInstance@DEBUG_SHADOW@@YAXXZ 10002a20 f   debug_shadow.obj
 0001:00001a40       ??__Es_ShaderParams@DEBUG_SHADOW@@YAXXZ 10002a40 f   debug_shadow.obj
 0001:00001a50       ??__EALPHATESTREFERENCE@DEFERRED_BRUSH@@YAXXZ 10002a50 f   deferred_brush.obj
 0001:00001a70       ??__EBASETEXTURE2@DEFERRED_BRUSH@@YAXXZ 10002a70 f   deferred_brush.obj
 0001:00001a90       ??__EBASETEXTURE3@DEFERRED_BRUSH@@YAXXZ 10002a90 f   deferred_brush.obj
 0001:00001ab0       ??__EBASETEXTURE4@DEFERRED_BRUSH@@YAXXZ 10002ab0 f   deferred_brush.obj
 0001:00001ad0       ??__EBLENDMASKTRANSFORM2@DEFERRED_BRUSH@@YAXXZ 10002ad0 f   deferred_brush.obj
 0001:00001af0       ??__EBLENDMASKTRANSFORM3@DEFERRED_BRUSH@@YAXXZ 10002af0 f   deferred_brush.obj
 0001:00001b10       ??__EBLENDMASKTRANSFORM@DEFERRED_BRUSH@@YAXXZ 10002b10 f   deferred_brush.obj
 0001:00001b30       ??__EBLENDMODULATETEXTURE2@DEFERRED_BRUSH@@YAXXZ 10002b30 f   deferred_brush.obj
 0001:00001b50       ??__EBLENDMODULATETEXTURE3@DEFERRED_BRUSH@@YAXXZ 10002b50 f   deferred_brush.obj
 0001:00001b70       ??__EBLENDMODULATETEXTURE@DEFERRED_BRUSH@@YAXXZ 10002b70 f   deferred_brush.obj
 0001:00001b90       ??__EBUMPMAP2@DEFERRED_BRUSH@@YAXXZ 10002b90 f   deferred_brush.obj
 0001:00001bb0       ??__EBUMPMAP3@DEFERRED_BRUSH@@YAXXZ 10002bb0 f   deferred_brush.obj
 0001:00001bd0       ??__EBUMPMAP4@DEFERRED_BRUSH@@YAXXZ 10002bd0 f   deferred_brush.obj
 0001:00001bf0       ??__EBUMPMAP@DEFERRED_BRUSH@@YAXXZ 10002bf0 f   deferred_brush.obj
 0001:00001c10       ??__EENVMAP@DEFERRED_BRUSH@@YAXXZ 10002c10 f   deferred_brush.obj
 0001:00001c30       ??__EENVMAPCONTRAST@DEFERRED_BRUSH@@YAXXZ 10002c30 f   deferred_brush.obj
 0001:00001c50       ??__EENVMAPMASK2@DEFERRED_BRUSH@@YAXXZ 10002c50 f   deferred_brush.obj
 0001:00001c70       ??__EENVMAPMASK@DEFERRED_BRUSH@@YAXXZ 10002c70 f   deferred_brush.obj
 0001:00001c90       ??__EENVMAPSATURATION@DEFERRED_BRUSH@@YAXXZ 10002c90 f   deferred_brush.obj
 0001:00001cb0       ??__EENVMAPTINT@DEFERRED_BRUSH@@YAXXZ 10002cb0 f   deferred_brush.obj
 0001:00001cd0       ??__EFRESNELRANGES@DEFERRED_BRUSH@@YAXXZ 10002cd0 f   deferred_brush.obj
 0001:00001cf0       ??__ELITFACE@DEFERRED_BRUSH@@YAXXZ 10002cf0 f   deferred_brush.obj
 0001:00001d10       ??__EMULTIBLEND@DEFERRED_BRUSH@@YAXXZ 10002d10 f   deferred_brush.obj
 0001:00001d30       ??__EPHONG_EXP2@DEFERRED_BRUSH@@YAXXZ 10002d30 f   deferred_brush.obj
 0001:00001d50       ??__EPHONG_EXP@DEFERRED_BRUSH@@YAXXZ 10002d50 f   deferred_brush.obj
 0001:00001d70       ??__EPHONG_FRESNEL@DEFERRED_BRUSH@@YAXXZ 10002d70 f   deferred_brush.obj
 0001:00001d90       ??__EPHONG_MAP@DEFERRED_BRUSH@@YAXXZ 10002d90 f   deferred_brush.obj
 0001:00001db0       ??__EPHONG_SCALE@DEFERRED_BRUSH@@YAXXZ 10002db0 f   deferred_brush.obj
 0001:00001dd0       ??__ESELFILLUMFRESNEL@DEFERRED_BRUSH@@YAXXZ 10002dd0 f   deferred_brush.obj
 0001:00001df0       ??__ESELFILLUMMASK@DEFERRED_BRUSH@@YAXXZ 10002df0 f   deferred_brush.obj
 0001:00001e10       ??__ESELFILLUMTINT@DEFERRED_BRUSH@@YAXXZ 10002e10 f   deferred_brush.obj
 0001:00001e30       ??__ESELFILLUM_ENVMAPMASK_ALPHA@DEFERRED_BRUSH@@YAXXZ 10002e30 f   deferred_brush.obj
 0001:00001e50       ??__ESSBUMP@DEFERRED_BRUSH@@YAXXZ 10002e50 f   deferred_brush.obj
 0001:00001e70       ??__Es_ShaderInstance@DEFERRED_BRUSH@@YAXXZ 10002e70 f   deferred_brush.obj
 0001:00001e90       ??__Es_ShaderParams@DEFERRED_BRUSH@@YAXXZ 10002e90 f   deferred_brush.obj
 0001:00001ea0       ??__EFOGEXPONENT@DEFERRED_DECALMODULATE@@YAXXZ 10002ea0 f   deferred_decalModulate.obj
 0001:00001ec0       ??__EFOGSCALE@DEFERRED_DECALMODULATE@@YAXXZ 10002ec0 f   deferred_decalModulate.obj
 0001:00001ee0       ??__Es_ShaderInstance@DEFERRED_DECALMODULATE@@YAXXZ 10002ee0 f   deferred_decalModulate.obj
 0001:00001f00       ??__Es_ShaderParams@DEFERRED_DECALMODULATE@@YAXXZ 10002f00 f   deferred_decalModulate.obj
 0001:00001f10       ??__EALPHATESTREFERENCE@DEFERRED_MODEL@@YAXXZ 10002f10 f   deferred_model.obj
 0001:00001f30       ??__EBUMPMAP@DEFERRED_MODEL@@YAXXZ 10002f30 f   deferred_model.obj
 0001:00001f50       ??__EENVMAP@DEFERRED_MODEL@@YAXXZ 10002f50 f   deferred_model.obj
 0001:00001f70       ??__EENVMAPCONTRAST@DEFERRED_MODEL@@YAXXZ 10002f70 f   deferred_model.obj
 0001:00001f90       ??__EENVMAPFRESNEL@DEFERRED_MODEL@@YAXXZ 10002f90 f   deferred_model.obj
 0001:00001fb0       ??__EENVMAPMASK@DEFERRED_MODEL@@YAXXZ 10002fb0 f   deferred_model.obj
 0001:00001fd0       ??__EENVMAPSATURATION@DEFERRED_MODEL@@YAXXZ 10002fd0 f   deferred_model.obj
 0001:00002000       ??__EENVMAPTINT@DEFERRED_MODEL@@YAXXZ 10003000 f   deferred_model.obj
 0001:00002020       ??__EFRESNELRANGES@DEFERRED_MODEL@@YAXXZ 10003020 f   deferred_model.obj
 0001:00002040       ??__ELITFACE@DEFERRED_MODEL@@YAXXZ 10003040 f   deferred_model.obj
 0001:00002060       ??__EPHONG_EXP@DEFERRED_MODEL@@YAXXZ 10003060 f   deferred_model.obj
 0001:00002080       ??__EPHONG_FRESNEL@DEFERRED_MODEL@@YAXXZ 10003080 f   deferred_model.obj
 0001:000020a0       ??__EPHONG_MAP@DEFERRED_MODEL@@YAXXZ 100030a0 f   deferred_model.obj
 0001:000020c0       ??__EPHONG_SCALE@DEFERRED_MODEL@@YAXXZ 100030c0 f   deferred_model.obj
 0001:000020e0       ??__ERIMLIGHT@DEFERRED_MODEL@@YAXXZ 100030e0 f   deferred_model.obj
 0001:00002100       ??__ERIMLIGHTALBEDOSCALE@DEFERRED_MODEL@@YAXXZ 10003100 f   deferred_model.obj
 0001:00002120       ??__ERIMLIGHTEXPONENT@DEFERRED_MODEL@@YAXXZ 10003120 f   deferred_model.obj
 0001:00002140       ??__ERIMLIGHTTINT@DEFERRED_MODEL@@YAXXZ 10003140 f   deferred_model.obj
 0001:00002160       ??__ERIMLIGHT_MODULATE_BY_LIGHT@DEFERRED_MODEL@@YAXXZ 10003160 f   deferred_model.obj
 0001:00002180       ??__ESELFILLUMFRESNEL@DEFERRED_MODEL@@YAXXZ 10003180 f   deferred_model.obj
 0001:000021a0       ??__ESELFILLUMMASK@DEFERRED_MODEL@@YAXXZ 100031a0 f   deferred_model.obj
 0001:000021c0       ??__ESELFILLUMTINT@DEFERRED_MODEL@@YAXXZ 100031c0 f   deferred_model.obj
 0001:000021e0       ??__ESELFILLUM_ENVMAPMASK_ALPHA@DEFERRED_MODEL@@YAXXZ 100031e0 f   deferred_model.obj
 0001:00002200       ??__Es_ShaderInstance@DEFERRED_MODEL@@YAXXZ 10003200 f   deferred_model.obj
 0001:00002220       ??__Es_ShaderParams@DEFERRED_MODEL@@YAXXZ 10003220 f   deferred_model.obj
 0001:00002230       ??__Edeferred_radiosity_multiplier@@YAXXZ 10003230 f   deferred_utility.obj
 0001:00002260       ??__Ebuilding_cubemaps@@YAXXZ 10003260 f   defpass_composite.obj
 0001:00002290       ??__E__g_CreateCDeferredExtensionIDeferredExtension_reg@@YAXXZ 10003290 f   IDeferredExt.obj
 0001:000022b0       ??__E__g_defExt@@YAXXZ     100032b0 f   IDeferredExt.obj
 0001:000022d0       ??__Es_ShaderInstance@LIGHTING_GLOBAL@@YAXXZ 100032d0 f   lighting_global.obj
 0001:000022f0       ??__Es_ShaderParams@LIGHTING_GLOBAL@@YAXXZ 100032f0 f   lighting_global.obj
 0001:00002300       ??__ELIGHTTYPE@LIGHTING_WORLD@@YAXXZ 10003300 f   lighting_world.obj
 0001:00002320       ??__EWORLDPROJECTION@LIGHTING_WORLD@@YAXXZ 10003320 f   lighting_world.obj
 0001:00002340       ??__Es_ShaderInstance@LIGHTING_WORLD@@YAXXZ 10003340 f   lighting_world.obj
 0001:00002360       ??__Es_ShaderParams@LIGHTING_WORLD@@YAXXZ 10003360 f   lighting_world.obj
 0001:00002370       ??__ELIGHTTYPE@LIGHTING_VOLUME@@YAXXZ 10003370 f   lighting_volume.obj
 0001:00002390       ??__EWORLDPROJECTION@LIGHTING_VOLUME@@YAXXZ 10003390 f   lighting_volume.obj
 0001:000023b0       ??__Es_ShaderInstance@LIGHTING_VOLUME@@YAXXZ 100033b0 f   lighting_volume.obj
 0001:000023d0       ??__Es_ShaderParams@LIGHTING_VOLUME@@YAXXZ 100033d0 f   lighting_volume.obj
 0001:000023e0       ??__Es_ShaderInstance@RADIOSITY_BLEND@@YAXXZ 100033e0 f   radiosity_blend.obj
 0001:00002400       ??__Es_ShaderParams@RADIOSITY_BLEND@@YAXXZ 10003400 f   radiosity_blend.obj
 0001:00002410       ??__Es_ShaderInstance@RADIOSITY_GLOBAL@@YAXXZ 10003410 f   radiosity_global.obj
 0001:00002430       ??__Es_ShaderParams@RADIOSITY_GLOBAL@@YAXXZ 10003430 f   radiosity_global.obj
 0001:00002440       ??__EBLUR@RADIOSITY_PROPAGATE@@YAXXZ 10003440 f   radiosity_propagate.obj
 0001:00002460       ??__ENORMALMAP@RADIOSITY_PROPAGATE@@YAXXZ 10003460 f   radiosity_propagate.obj
 0001:00002480       ??__Es_ShaderInstance@RADIOSITY_PROPAGATE@@YAXXZ 10003480 f   radiosity_propagate.obj
 0001:000024a0       ??__Es_ShaderParams@RADIOSITY_PROPAGATE@@YAXXZ 100034a0 f   radiosity_propagate.obj
 0001:000024b0       ??__Es_ShaderInstance@SCREENSPACE_COMBINE@@YAXXZ 100034b0 f   screenspace_combine.obj
 0001:000024d0       ??__Es_ShaderParams@SCREENSPACE_COMBINE@@YAXXZ 100034d0 f   screenspace_combine.obj
 0001:000024e0       ??__Es_ShaderInstance@SCREENSPACE_SHADING@@YAXXZ 100034e0 f   screenspace_shading.obj
 0001:00002500       ??__Es_ShaderParams@SCREENSPACE_SHADING@@YAXXZ 10003500 f   screenspace_shading.obj
 0001:00002510       ??__Es_ShaderInstance@VOLUME_BLEND@@YAXXZ 10003510 f   volume_blend.obj
 0001:00002530       ??__Es_ShaderParams@VOLUME_BLEND@@YAXXZ 10003530 f   volume_blend.obj
 0001:00002540       ??__Es_ShaderInstance@VOLUME_PREPASS@@YAXXZ 10003540 f   volume_prepass.obj
 0001:00002560       ??__Es_ShaderParams@VOLUME_PREPASS@@YAXXZ 10003560 f   volume_prepass.obj
 0001:00002570       ??__Emat_fullbright@@YAXXZ 10003570 f   shaderlib:BaseShader.obj
 0001:000025a0       ??__E__g_CreateIShaderDLLInternal_reg@@YAXXZ 100035a0 f   shaderlib:ShaderDLL.obj
 0001:00008760       ?__CreateCDeferredExtensionIDeferredExtension_interface@@YAPAXXZ 10009760 f   IDeferredExt.obj
 0001:0000b314       __onexit_nolock            1000c314 f   LIBCMT:onexit.obj
 0001:0000b3f0       $$000000                   1000c3f0     LIBCMT:87fmod.obj
 0001:0000b640       $$000000                   1000c640     LIBCMT:memcpy.obj
 0001:0000b890       LeadUpVec                  1000c890     LIBCMT:memcpy.obj
 0001:0000b90c       UnwindUpVec                1000c90c     LIBCMT:memcpy.obj
 0001:0000b978       TrailUpVec                 1000c978     LIBCMT:memcpy.obj
 0001:0000ba1c       LeadDownVec                1000ca1c     LIBCMT:memcpy.obj
 0001:0000baa8       UnwindDownVec              1000caa8     LIBCMT:memcpy.obj
 0001:0000bb14       TrailDownVec               1000cb14     LIBCMT:memcpy.obj
 0001:0000be19       ___DllMainCRTStartup       1000ce19 f   LIBCMT:dllcrt0.obj
 0001:0000bf6a       _vscan_fn                  1000cf6a f   LIBCMT:sscanf.obj
 0001:0000c1e0       $$000000                   1000d1e0     LIBCMT:chkstk.obj
 0001:0000c210       $$000000                   1000d210     LIBCMT:strchr.obj
 0001:0000c340       $$000000                   1000d340     LIBCMT:alloca16.obj
 0001:0000c370       $$000000                   1000d370     LIBCMT:strstr.obj
 0001:0000c750       $$000000                   1000d750     LIBCMT:llmul.obj
 0001:0000c790       $$000000                   1000d790     LIBCMT:strncat.obj
 0001:0000c8d0       $$000000                   1000d8d0     LIBCMT:memset.obj
 0001:0000c960       $$000000                   1000d960     LIBCMT:memmove.obj
 0001:0000cbb0       LeadUpVec                  1000dbb0     LIBCMT:memmove.obj
 0001:0000cc2c       UnwindUpVec                1000dc2c     LIBCMT:memmove.obj
 0001:0000cc98       TrailUpVec                 1000dc98     LIBCMT:memmove.obj
 0001:0000cd3c       LeadDownVec                1000dd3c     LIBCMT:memmove.obj
 0001:0000cdc8       UnwindDownVec              1000ddc8     LIBCMT:memmove.obj
 0001:0000ce34       TrailDownVec               1000de34     LIBCMT:memmove.obj
 0001:0000cfb0       $$000000                   1000dfb0     LIBCMT:strncpy.obj
 0001:0000d0e0       $$000000                   1000e0e0     LIBCMT:llrem.obj
 0001:0000d1a0       $$000000                   1000e1a0     LIBCMT:lldiv.obj
 0001:0000d250       $$000000                   1000e250     LIBCMT:floor_pentium4.obj
 0001:0000d380       $$000000                   1000e380     LIBCMT:pow.obj
 0001:0000e090       $$000000                   1000f090     LIBCMT:acos.obj
 0001:0000e390       $$000000                   1000f390     LIBCMT:asin.obj
 0001:0000e728       __initterm                 1000f728 f   LIBCMT:crt0dat.obj
 0001:0000e792       _doexit                    1000f792 f   LIBCMT:crt0dat.obj
 0001:0000ea20       $$000000                   1000fa20     LIBCMT:sehprolg4.obj
 0001:0000ec20       $$000000                   1000fc20     LIBCMT:sqrt.obj
 0001:0000f650       $$000000                   10010650     LIBCMT:87cdisp.obj
 0001:0000f8d0       $$000000                   100108d0     LIBCMT:87disp.obj
 0001:0000febb       __cftoe2_l                 10010ebb f   LIBCMT:cvt.obj
 0001:000100da       __cftof2_l                 100110da f   LIBCMT:cvt.obj
 0001:00010510       __shift                    10011510 f   LIBCMT:cvt.obj
 0001:000105f0       $$000000                   100115f0     LIBCMT:strcmp.obj
 0001:00011632       $LN277                     10012632     LIBCMT:output.obj
 0001:00011652       _write_char                10012652 f   LIBCMT:output.obj
 0001:0001169a       _write_multi_char          1001269a f   LIBCMT:output.obj
 0001:000116c6       _write_string              100126c6 f   LIBCMT:output.obj
 0001:0001242e       _parse_cmdline             1001342e f   LIBCMT:stdargv.obj
 0001:00012bb0       $$000000                   10013bb0     LIBCMT:strlen.obj
 0001:00012c3b       ___check_float_string      10013c3b f   LIBCMT:input.obj
 0001:00012c9a       __hextodec                 10013c9a f   LIBCMT:input.obj
 0001:00012cbb       __inc                      10013cbb f   LIBCMT:input.obj
 0001:00013e2c       __whiteout                 10014e2c f   LIBCMT:input.obj
 0001:00014679       $LN333                     10015679     LIBCMT:strgtold.obj
 0001:00014a21       ?CPtoLocaleName@@YAPB_WH@Z 10015a21 f   LIBCMT:mbctype.obj
 0001:00014a5b       ?getSystemCP@@YAHH@Z       10015a5b f   LIBCMT:mbctype.obj
 0001:00014ac9       ?setSBCS@@YAXPAUthreadmbcinfostruct@@@Z 10015ac9 f   LIBCMT:mbctype.obj
 0001:00014b28       ?setSBUpLow@@YAXPAUthreadmbcinfostruct@@@Z 10015b28 f   LIBCMT:mbctype.obj
 0001:0001534d       ?__crtLCMapStringA_stat@@YAHPAUlocaleinfo_struct@@PB_WKPBDHPADHHH@Z 1001634d f   LIBCMT:a_map.obj
 0001:00015820       $$000000                   10016820     LIBCMT:ulldvrm.obj
 0001:00015b70       $LN79                      10016b70     LIBCMT:libm_error.obj
 0001:00015c90       $$000000                   10016c90     LIBCMT:pow_pentium4.obj
 0001:000167f0       $$000000                   100177f0     LIBCMT:87tran.obj
 0001:000169f0       $$000000                   100179f0     LIBCMT:genexcep.obj
 0001:00016a50       $$000000                   10017a50     LIBCMT:common.obj
 0001:00016d80       $$000000                   10017d80     LIBCMT:acos_pentium4.obj
 0001:000172e0       $$000000                   100182e0     LIBCMT:cos.obj
 0001:00017410       $$000000                   10018410     LIBCMT:sin.obj
 0001:00017540       $$000000                   10018540     LIBCMT:tan.obj
 0001:00017670       $$000000                   10018670     LIBCMT:asin_pentium4.obj
 0001:0001830a       _siglookup                 1001930a f   LIBCMT:winsig.obj
 0001:000184e0       $$000000                   100194e0     LIBCMT:exsup4.obj
 0001:00018570       __unwind_handler4          10019570 f   LIBCMT:exsup4.obj
 0001:00018910       $$000000                   10019910     LIBCMT:strrchr.obj
 0001:00018c50       $$000000                   10019c50     LIBCMT:lldvrm.obj
 0001:00018d30       $$000000                   10019d30     LIBCMT:ullshr.obj
 0001:0001903f       _flsall                    1001a03f f   LIBCMT:fflush.obj
 0001:000192da       ?x_ismbbtype_l@@YAHPAUlocaleinfo_struct@@IHH@Z 1001a2da f   LIBCMT:ismbbyte.obj
 0001:0001a7ff       ?__crtGetStringTypeA_stat@@YAHPAUlocaleinfo_struct@@KPBDHPAGHH@Z 1001b7ff f   LIBCMT:a_str.obj
 0001:0001b7d0       $$000000                   1001c7d0     LIBCMT:cos_pentium4.obj
 0001:0001b980       $$000000                   1001c980     LIBCMT:sin_pentium4.obj
 0001:0001bb50       $$000000                   1001cb50     LIBCMT:tan_pentium4.obj
 0001:0001bfe0       $$000000                   1001cfe0     LIBCMT:exsup.obj
 0001:0001c000       __unwind_handler           1001d000 f   LIBCMT:exsup.obj
 0001:0001caeb       ___hw_cw_sse2              1001daeb f   LIBCMT:ieee87.obj
 0001:0001ce96       __hw_cw                    1001de96 f   LIBCMT:ieee87.obj
 0001:0001dd70       ??__Es_EmptyConVar@@YAXXZ  1001ed70 f   tier1:convar.obj
 0001:0001dea0       ??__Es_StringCharConversion@@YAXXZ 1001eea0 f   tier1:utlbuffer.obj
 0001:0001df00       ??__Es_NoEscConversion@@YAXXZ 1001ef00 f   tier1:utlbuffer.obj
 0001:0001df30       ??__Fmat_fullbright@@YAXXZ 1001ef30 f   BaseVSShader.obj
 0001:0001df40       ??__Fs_ShaderParams@GAUSSIAN_BLUR_6@@YAXXZ 1001ef40 f   blur.obj
 0001:0001dfc0       ??__Fs_ShaderParams@DEBUG_LIGHTING_CTRL@@YAXXZ 1001efc0 f   debug_lightingctrl.obj
 0001:0001e040       ??__Fs_ShaderParams@DEBUG_RADIOSITY_GRID@@YAXXZ 1001f040 f   debug_radiosity_grid.obj
 0001:0001e0c0       ??__Fs_ShaderParams@DEBUG_SHADOW@@YAXXZ 1001f0c0 f   debug_shadow.obj
 0001:0001e140       ??__Fs_ShaderParams@DEFERRED_BRUSH@@YAXXZ 1001f140 f   deferred_brush.obj
 0001:0001e1c0       ??__Fs_ShaderParams@DEFERRED_DECALMODULATE@@YAXXZ 1001f1c0 f   deferred_decalModulate.obj
 0001:0001e240       ??__Fs_ShaderParams@DEFERRED_MODEL@@YAXXZ 1001f240 f   deferred_model.obj
 0001:0001e2c0       ??__Fdeferred_radiosity_multiplier@@YAXXZ 1001f2c0 f   deferred_utility.obj
 0001:0001e2d0       ??__Fbuilding_cubemaps@@YAXXZ 1001f2d0 f   defpass_composite.obj
 0001:0001e2e0       ??__F__g_defExt@@YAXXZ     1001f2e0 f   IDeferredExt.obj
 0001:0001e2f0       ??__Fs_ShaderParams@LIGHTING_GLOBAL@@YAXXZ 1001f2f0 f   lighting_global.obj
 0001:0001e370       ??__Fs_ShaderParams@LIGHTING_WORLD@@YAXXZ 1001f370 f   lighting_world.obj
 0001:0001e3f0       ??__Fs_ShaderParams@LIGHTING_VOLUME@@YAXXZ 1001f3f0 f   lighting_volume.obj
 0001:0001e470       ??__Fs_ShaderParams@RADIOSITY_BLEND@@YAXXZ 1001f470 f   radiosity_blend.obj
 0001:0001e4f0       ??__Fs_ShaderParams@RADIOSITY_GLOBAL@@YAXXZ 1001f4f0 f   radiosity_global.obj
 0001:0001e570       ??__Fs_ShaderParams@RADIOSITY_PROPAGATE@@YAXXZ 1001f570 f   radiosity_propagate.obj
 0001:0001e5f0       ??__Fs_ShaderParams@SCREENSPACE_COMBINE@@YAXXZ 1001f5f0 f   screenspace_combine.obj
 0001:0001e670       ??__Fs_ShaderParams@SCREENSPACE_SHADING@@YAXXZ 1001f670 f   screenspace_shading.obj
 0001:0001e6f0       ??__Fs_ShaderParams@VOLUME_BLEND@@YAXXZ 1001f6f0 f   volume_blend.obj
 0001:0001e770       ??__Fs_ShaderParams@VOLUME_PREPASS@@YAXXZ 1001f770 f   volume_prepass.obj
 0001:0001e7f0       ??__Fs_EmptyConVar@@YAXXZ  1001f7f0 f   tier1:convar.obj
 0001:0001e840       ??__Fmat_fullbright@@YAXXZ 1001f840 f   shaderlib:BaseShader.obj
 0002:00000124       _mat_fullbright$initializer$ 10020124     BaseVSShader.obj
 0002:00000128       _s_ShaderParams$initializer$ 10020128     blur.obj
 0002:0000012c       _ISVERTICAL$initializer$   1002012c     blur.obj
 0002:00000130       _s_ShaderInstance$initializer$ 10020130     blur.obj
 0002:00000134       _s_ShaderParams$initializer$ 10020134     debug_lightingctrl.obj
 0002:00000138       _s_ShaderInstance$initializer$ 10020138     debug_lightingctrl.obj
 0002:0000013c       _s_ShaderParams$initializer$ 1002013c     debug_radiosity_grid.obj
 0002:00000140       _s_ShaderInstance$initializer$ 10020140     debug_radiosity_grid.obj
 0002:00000144       _s_ShaderParams$initializer$ 10020144     debug_shadow.obj
 0002:00000148       _s_ShaderInstance$initializer$ 10020148     debug_shadow.obj
 0002:0000014c       _s_ShaderParams$initializer$ 1002014c     deferred_brush.obj
 0002:00000150       _BUMPMAP$initializer$      10020150     deferred_brush.obj
 0002:00000154       _SSBUMP$initializer$       10020154     deferred_brush.obj
 0002:00000158       _LITFACE$initializer$      10020158     deferred_brush.obj
 0002:0000015c       _PHONG_SCALE$initializer$  1002015c     deferred_brush.obj
 0002:00000160       _PHONG_EXP$initializer$    10020160     deferred_brush.obj
 0002:00000164       _PHONG_EXP2$initializer$   10020164     deferred_brush.obj
 0002:00000168       _PHONG_MAP$initializer$    10020168     deferred_brush.obj
 0002:0000016c       _PHONG_FRESNEL$initializer$ 1002016c     deferred_brush.obj
 0002:00000170       _FRESNELRANGES$initializer$ 10020170     deferred_brush.obj
 0002:00000174       _ALPHATESTREFERENCE$initializer$ 10020174     deferred_brush.obj
 0002:00000178       _ENVMAP$initializer$       10020178     deferred_brush.obj
 0002:0000017c       _ENVMAPTINT$initializer$   1002017c     deferred_brush.obj
 0002:00000180       _ENVMAPCONTRAST$initializer$ 10020180     deferred_brush.obj
 0002:00000184       _ENVMAPSATURATION$initializer$ 10020184     deferred_brush.obj
 0002:00000188       _ENVMAPMASK$initializer$   10020188     deferred_brush.obj
 0002:0000018c       _SELFILLUMTINT$initializer$ 1002018c     deferred_brush.obj
 0002:00000190       _SELFILLUM_ENVMAPMASK_ALPHA$initializer$ 10020190     deferred_brush.obj
 0002:00000194       _SELFILLUMFRESNEL$initializer$ 10020194     deferred_brush.obj
 0002:00000198       _SELFILLUMMASK$initializer$ 10020198     deferred_brush.obj
 0002:0000019c       _BASETEXTURE2$initializer$ 1002019c     deferred_brush.obj
 0002:000001a0       _BUMPMAP2$initializer$     100201a0     deferred_brush.obj
 0002:000001a4       _ENVMAPMASK2$initializer$  100201a4     deferred_brush.obj
 0002:000001a8       _BLENDMODULATETEXTURE$initializer$ 100201a8     deferred_brush.obj
 0002:000001ac       _BLENDMASKTRANSFORM$initializer$ 100201ac     deferred_brush.obj
 0002:000001b0       _MULTIBLEND$initializer$   100201b0     deferred_brush.obj
 0002:000001b4       _BASETEXTURE3$initializer$ 100201b4     deferred_brush.obj
 0002:000001b8       _BASETEXTURE4$initializer$ 100201b8     deferred_brush.obj
 0002:000001bc       _BUMPMAP3$initializer$     100201bc     deferred_brush.obj
 0002:000001c0       _BUMPMAP4$initializer$     100201c0     deferred_brush.obj
 0002:000001c4       _BLENDMODULATETEXTURE2$initializer$ 100201c4     deferred_brush.obj
 0002:000001c8       _BLENDMODULATETEXTURE3$initializer$ 100201c8     deferred_brush.obj
 0002:000001cc       _BLENDMASKTRANSFORM2$initializer$ 100201cc     deferred_brush.obj
 0002:000001d0       _BLENDMASKTRANSFORM3$initializer$ 100201d0     deferred_brush.obj
 0002:000001d4       _s_ShaderInstance$initializer$ 100201d4     deferred_brush.obj
 0002:000001d8       _s_ShaderParams$initializer$ 100201d8     deferred_decalModulate.obj
 0002:000001dc       _FOGEXPONENT$initializer$  100201dc     deferred_decalModulate.obj
 0002:000001e0       _FOGSCALE$initializer$     100201e0     deferred_decalModulate.obj
 0002:000001e4       _s_ShaderInstance$initializer$ 100201e4     deferred_decalModulate.obj
 0002:000001e8       _s_ShaderParams$initializer$ 100201e8     deferred_model.obj
 0002:000001ec       _BUMPMAP$initializer$      100201ec     deferred_model.obj
 0002:000001f0       _LITFACE$initializer$      100201f0     deferred_model.obj
 0002:000001f4       _PHONG_SCALE$initializer$  100201f4     deferred_model.obj
 0002:000001f8       _PHONG_EXP$initializer$    100201f8     deferred_model.obj
 0002:000001fc       _PHONG_MAP$initializer$    100201fc     deferred_model.obj
 0002:00000200       _PHONG_FRESNEL$initializer$ 10020200     deferred_model.obj
 0002:00000204       _FRESNELRANGES$initializer$ 10020204     deferred_model.obj
 0002:00000208       _ALPHATESTREFERENCE$initializer$ 10020208     deferred_model.obj
 0002:0000020c       _ENVMAP$initializer$       1002020c     deferred_model.obj
 0002:00000210       _ENVMAPTINT$initializer$   10020210     deferred_model.obj
 0002:00000214       _ENVMAPCONTRAST$initializer$ 10020214     deferred_model.obj
 0002:00000218       _ENVMAPSATURATION$initializer$ 10020218     deferred_model.obj
 0002:0000021c       _ENVMAPFRESNEL$initializer$ 1002021c     deferred_model.obj
 0002:00000220       _ENVMAPMASK$initializer$   10020220     deferred_model.obj
 0002:00000224       _RIMLIGHT$initializer$     10020224     deferred_model.obj
 0002:00000228       _RIMLIGHTEXPONENT$initializer$ 10020228     deferred_model.obj
 0002:0000022c       _RIMLIGHTALBEDOSCALE$initializer$ 1002022c     deferred_model.obj
 0002:00000230       _RIMLIGHTTINT$initializer$ 10020230     deferred_model.obj
 0002:00000234       _RIMLIGHT_MODULATE_BY_LIGHT$initializer$ 10020234     deferred_model.obj
 0002:00000238       _SELFILLUMTINT$initializer$ 10020238     deferred_model.obj
 0002:0000023c       _SELFILLUM_ENVMAPMASK_ALPHA$initializer$ 1002023c     deferred_model.obj
 0002:00000240       _SELFILLUMFRESNEL$initializer$ 10020240     deferred_model.obj
 0002:00000244       _SELFILLUMMASK$initializer$ 10020244     deferred_model.obj
 0002:00000248       _s_ShaderInstance$initializer$ 10020248     deferred_model.obj
 0002:0000024c       _deferred_radiosity_multiplier$initializer$ 1002024c     deferred_utility.obj
 0002:00000250       _building_cubemaps$initializer$ 10020250     defpass_composite.obj
 0002:00000254       ___g_defExt$initializer$   10020254     IDeferredExt.obj
 0002:00000258       ___g_CreateCDeferredExtensionIDeferredExtension_reg$initializer$ 10020258     IDeferredExt.obj
 0002:0000025c       _s_ShaderParams$initializer$ 1002025c     lighting_global.obj
 0002:00000260       _s_ShaderInstance$initializer$ 10020260     lighting_global.obj
 0002:00000264       _s_ShaderParams$initializer$ 10020264     lighting_world.obj
 0002:00000268       _LIGHTTYPE$initializer$    10020268     lighting_world.obj
 0002:0000026c       _WORLDPROJECTION$initializer$ 1002026c     lighting_world.obj
 0002:00000270       _s_ShaderInstance$initializer$ 10020270     lighting_world.obj
 0002:00000274       _s_ShaderParams$initializer$ 10020274     lighting_volume.obj
 0002:00000278       _LIGHTTYPE$initializer$    10020278     lighting_volume.obj
 0002:0000027c       _WORLDPROJECTION$initializer$ 1002027c     lighting_volume.obj
 0002:00000280       _s_ShaderInstance$initializer$ 10020280     lighting_volume.obj
 0002:00000284       _s_ShaderParams$initializer$ 10020284     radiosity_blend.obj
 0002:00000288       _s_ShaderInstance$initializer$ 10020288     radiosity_blend.obj
 0002:0000028c       _s_ShaderParams$initializer$ 1002028c     radiosity_global.obj
 0002:00000290       _s_ShaderInstance$initializer$ 10020290     radiosity_global.obj
 0002:00000294       _s_ShaderParams$initializer$ 10020294     radiosity_propagate.obj
 0002:00000298       _NORMALMAP$initializer$    10020298     radiosity_propagate.obj
 0002:0000029c       _BLUR$initializer$         1002029c     radiosity_propagate.obj
 0002:000002a0       _s_ShaderInstance$initializer$ 100202a0     radiosity_propagate.obj
 0002:000002a4       _s_ShaderParams$initializer$ 100202a4     screenspace_combine.obj
 0002:000002a8       _s_ShaderInstance$initializer$ 100202a8     screenspace_combine.obj
 0002:000002ac       _s_ShaderParams$initializer$ 100202ac     screenspace_shading.obj
 0002:000002b0       _s_ShaderInstance$initializer$ 100202b0     screenspace_shading.obj
 0002:000002b4       _s_ShaderParams$initializer$ 100202b4     volume_blend.obj
 0002:000002b8       _s_ShaderInstance$initializer$ 100202b8     volume_blend.obj
 0002:000002bc       _s_ShaderParams$initializer$ 100202bc     volume_prepass.obj
 0002:000002c0       _s_ShaderInstance$initializer$ 100202c0     volume_prepass.obj
 0002:000002c4       _s_EmptyConVar$initializer$ 100202c4     tier1:convar.obj
 0002:000002c8       _s_StringCharConversion$initializer$ 100202c8     tier1:utlbuffer.obj
 0002:000002cc       _s_NoEscConversion$initializer$ 100202cc     tier1:utlbuffer.obj
 0002:000002d0       _mat_fullbright$initializer$ 100202d0     shaderlib:BaseShader.obj
 0002:000002d4       ___g_CreateIShaderDLLInternal_reg$initializer$ 100202d4     shaderlib:ShaderDLL.obj
 0002:000002e0       _pinit                     100202e0     LIBCMT:onexit.obj
 0002:000002e4       _pinit                     100202e4     LIBCMT:_file.obj
 0002:000002e8       _pinit                     100202e8     LIBCMT:cpu_disp.obj
 0002:000002ec       _pinit                     100202ec     LIBCMT:mbctype.obj
 0002:000002f0       _pinit                     100202f0     LIBCMT:mathfcns.obj
 0002:000002fc       _pterm                     100202fc     LIBCMT:wsetloca.obj
 0002:00000300       _pterm                     10020300     LIBCMT:initcon.obj
 0002:00000304       _pterm                     10020304     LIBCMT:_file.obj
 0002:00000358       _g_localBumpBasis          10020358     BaseVSShader.obj
 0002:0000037c       _maxfloat16bits            1002037c     BaseVSShader.obj
 0002:000003d4       _maxfloat16bits            100203d4     blur.obj
 0002:00000464       _maxfloat16bits            10020464     debug_lightingctrl.obj
 0002:00000534       _maxfloat16bits            10020534     debug_radiosity_grid.obj
 0002:000005c0       _maxfloat16bits            100205c0     debug_shadow.obj
 0002:0000062c       _maxfloat16bits            1002062c     deferred_brush.obj
 0002:00000acc       _maxfloat16bits            10020acc     deferred_decalModulate.obj
 0002:00000ce8       _maxfloat16bits            10020ce8     deferred_model.obj
 0002:00000e40       _maxfloat16bits            10020e40     deferred_utility.obj
 0002:00000e64       _maxfloat16bits            10020e64     defpass_composite.obj
 0002:000011dc       _maxfloat16bits            100211dc     defpass_gbuffer.obj
 0002:0000129c       _maxfloat16bits            1002129c     defpass_shadow.obj
 0002:00001340       _maxfloat16bits            10021340     IDeferredExt.obj
 0002:000013f0       _maxfloat16bits            100213f0     lighting_global.obj
 0002:0000146c       _maxfloat16bits            1002146c     lighting_pass_basic.obj
 0002:0000154c       _maxfloat16bits            1002154c     lighting_pass_volum.obj
 0002:000015a8       _maxfloat16bits            100215a8     lighting_world.obj
 0002:0000161c       _maxfloat16bits            1002161c     lighting_volume.obj
 0002:00001680       _maxfloat16bits            10021680     radiosity_blend.obj
 0002:000016f0       _maxfloat16bits            100216f0     radiosity_global.obj
 0002:00001788       _maxfloat16bits            10021788     radiosity_propagate.obj
 0002:00001848       _maxfloat16bits            10021848     screenspace_combine.obj
 0002:000018bc       _maxfloat16bits            100218bc     screenspace_shading.obj
 0002:0000195c       _maxfloat16bits            1002195c     volume_blend.obj
 0002:000019c4       _maxfloat16bits            100219c4     volume_prepass.obj
 0002:0000219c       _maxfloat16bits            1002219c     mathlib:vmatrix.obj
 0002:000021a0       _maxfloat16bits            100221a0     mathlib:mathlib_base.obj
 0002:000021e0       _maxfloat16bits            100221e0     mathlib:sseconst.obj
 0002:00002410       _maxfloat16bits            10022410     mathlib:randsse.obj
 0002:00002750       _One                       10022750     LIBCMT:floor_pentium4.obj
 0002:00002760       _Bns                       10022760     LIBCMT:floor_pentium4.obj
 0002:00002770       _NegOne                    10022770     LIBCMT:floor_pentium4.obj
 0002:00002780       _NegZero                   10022780     LIBCMT:floor_pentium4.obj
 0002:00002790       _S                         10022790     LIBCMT:floor_pentium4.obj
 0002:000027a0       _rcp_t1                    100227a0     LIBCMT:pow_sse2.obj
 0002:00002bb0       _log2_t1                   10022bb0     LIBCMT:pow_sse2.obj
 0002:000033c0       _rcp_t2                    100233c0     LIBCMT:pow_sse2.obj
 0002:000037d0       _log2_t2                   100237d0     LIBCMT:pow_sse2.obj
 0002:00003fe0       _rcp_t3                    10023fe0     LIBCMT:pow_sse2.obj
 0002:000047f0       _log2_t3                   100247f0     LIBCMT:pow_sse2.obj
 0002:00005800       _clv                       10025800     LIBCMT:pow_sse2.obj
 0002:00005820       _exp2_tbl                  10025820     LIBCMT:pow_sse2.obj
 0002:00006020       _Shifter                   10026020     LIBCMT:pow_sse2.obj
 0002:00006030       _SIGMASK                   10026030     LIBCMT:pow_sse2.obj
 0002:00006040       _ONEMASK                   10026040     LIBCMT:pow_sse2.obj
 0002:00006050       _ABSVALMASK                10026050     LIBCMT:pow_sse2.obj
 0002:00006060       _cev                       10026060     LIBCMT:pow_sse2.obj
 0002:00006088       _HALFSIG                   10026088     LIBCMT:pow_sse2.obj
 0002:00006090       _LHN                       10026090     LIBCMT:pow_sse2.obj
 0002:00006098       _sNaN                      10026098     LIBCMT:pow_sse2.obj
 0002:000060a0       _INF                       100260a0     LIBCMT:pow_sse2.obj
 0002:000060a8       _NEG_INF                   100260a8     LIBCMT:pow_sse2.obj
 0002:000060b0       _NEG_ZERO                  100260b0     LIBCMT:pow_sse2.obj
 0002:000060b8       _EMIN                      100260b8     LIBCMT:pow_sse2.obj
 0002:000060c0       _ATAN_TBL                  100260c0     LIBCMT:atan2_sse2.obj
 0002:00006b00       _pi2_table                 10026b00     LIBCMT:atan2_sse2.obj
 0002:00006b10       _pi_table                  10026b10     LIBCMT:atan2_sse2.obj
 0002:00006b20       _pi4_table                 10026b20     LIBCMT:atan2_sse2.obj
 0002:00006b30       _SGNMASK                   10026b30     LIBCMT:atan2_sse2.obj
 0002:00006b40       _P_TBL                     10026b40     LIBCMT:atan2_sse2.obj
 0002:00006b80       _SGN_TBL                   10026b80     LIBCMT:atan2_sse2.obj
 0002:00006bc0       _P_TBL2                    10026bc0     LIBCMT:atan2_sse2.obj
 0002:00006c00       _SELECT_B                  10026c00     LIBCMT:atan2_sse2.obj
 0002:00006c40       _a2                        10026c40     LIBCMT:atan2_sse2.obj
 0002:00006c50       _b2                        10026c50     LIBCMT:atan2_sse2.obj
 0002:00006c60       _INVEXPMASK                10026c60     LIBCMT:atan2_sse2.obj
 0002:00006c68       _POW55                     10026c68     LIBCMT:atan2_sse2.obj
 0002:00006c70       _EXPMASK                   10026c70     LIBCMT:atan2_sse2.obj
 0002:00006c80       _Tbl_addr                  10026c80     LIBCMT:acos_sse2.obj
 0002:00007b80       _T_table                   10027b80     LIBCMT:acos_sse2.obj
 0002:00008380       _PI_BY_2                   10028380     LIBCMT:acos_sse2.obj
 0002:00008390       _NEG_PI                    10028390     LIBCMT:acos_sse2.obj
 0002:000083a0       _PI                        100283a0     LIBCMT:acos_sse2.obj
 0002:000083b0       _HALFMASK                  100283b0     LIBCMT:acos_sse2.obj
 0002:000083c0       _cv                        100283c0     LIBCMT:acos_sse2.obj
 0002:000083e0       _cv2                       100283e0     LIBCMT:acos_sse2.obj
 0002:00008420       _ABSVALMASK                10028420     LIBCMT:acos_sse2.obj
 0002:00008430       _TMASK                     10028430     LIBCMT:acos_sse2.obj
 0002:00008438       _ONEMASK                   10028438     LIBCMT:acos_sse2.obj
 0002:00008440       _ONE_BY_2                  10028440     LIBCMT:acos_sse2.obj
 0002:00008450       _Ctable                    10028450     LIBCMT:cos_sse2.obj
 0002:00008c50       _SC_1                      10028c50     LIBCMT:cos_sse2.obj
 0002:00008c60       _SC_2                      10028c60     LIBCMT:cos_sse2.obj
 0002:00008c70       _SC_3                      10028c70     LIBCMT:cos_sse2.obj
 0002:00008c80       _SC_4                      10028c80     LIBCMT:cos_sse2.obj
 0002:00008c90       _P_2                       10028c90     LIBCMT:cos_sse2.obj
 0002:00008ca0       _P_1                       10028ca0     LIBCMT:cos_sse2.obj
 0002:00008ca8       _P_3                       10028ca8     LIBCMT:cos_sse2.obj
 0002:00008cb0       _PI32INV                   10028cb0     LIBCMT:cos_sse2.obj
 0002:00008cb8       _SHIFTER                   10028cb8     LIBCMT:cos_sse2.obj
 0002:00008cc0       _ONE                       10028cc0     LIBCMT:cos_sse2.obj
 0002:00008cc8       _NEG_ZERO                  10028cc8     LIBCMT:cos_sse2.obj
 0002:00008cd0       _SIGN_MASK                 10028cd0     LIBCMT:cos_sse2.obj
 0002:00008ce0       _Ctable                    10028ce0     LIBCMT:sin_sse2.obj
 0002:000094e0       _SC_1                      100294e0     LIBCMT:sin_sse2.obj
 0002:000094f0       _SC_2                      100294f0     LIBCMT:sin_sse2.obj
 0002:00009500       _SC_3                      10029500     LIBCMT:sin_sse2.obj
 0002:00009510       _SC_4                      10029510     LIBCMT:sin_sse2.obj
 0002:00009520       _P_2                       10029520     LIBCMT:sin_sse2.obj
 0002:00009530       _P_1                       10029530     LIBCMT:sin_sse2.obj
 0002:00009538       _P_3                       10029538     LIBCMT:sin_sse2.obj
 0002:00009540       _PI32INV                   10029540     LIBCMT:sin_sse2.obj
 0002:00009548       _SHIFTER                   10029548     LIBCMT:sin_sse2.obj
 0002:00009550       _TWO_POW_55                10029550     LIBCMT:sin_sse2.obj
 0002:00009558       _TWO_POW_M55               10029558     LIBCMT:sin_sse2.obj
 0002:00009560       _ALL_ONES                  10029560     LIBCMT:sin_sse2.obj
 0002:00009568       _NEG_ZERO                  10029568     LIBCMT:sin_sse2.obj
 0002:00009570       _Ctable                    10029570     LIBCMT:tan_sse2.obj
 0002:0000ab70       _PI32INV                   1002ab70     LIBCMT:tan_sse2.obj
 0002:0000ab80       _SHIFTER                   1002ab80     LIBCMT:tan_sse2.obj
 0002:0000ab90       _P_1                       1002ab90     LIBCMT:tan_sse2.obj
 0002:0000aba0       _P_2                       1002aba0     LIBCMT:tan_sse2.obj
 0002:0000abb0       _P_3                       1002abb0     LIBCMT:tan_sse2.obj
 0002:0000abc0       _sign_mask                 1002abc0     LIBCMT:tan_sse2.obj
 0002:0000abc8       _QQ_2                      1002abc8     LIBCMT:tan_sse2.obj
 0002:0000abd0       _ONE                       1002abd0     LIBCMT:tan_sse2.obj
 0002:0000abd8       _INF                       1002abd8     LIBCMT:tan_sse2.obj
 0002:0000abe0       _MASK_35                   1002abe0     LIBCMT:tan_sse2.obj
 0002:0000abf0       _TWO_POW_55                1002abf0     LIBCMT:tan_sse2.obj
 0002:0000abf8       _TWO_POW_M55               1002abf8     LIBCMT:tan_sse2.obj
 0002:0000ac00       _TWO_POW_M53               1002ac00     LIBCMT:tan_sse2.obj
 0002:0000ac10       _emask                     1002ac10     LIBCMT:log_sse2.obj
 0002:0000ac20       _Magic                     1002ac20     LIBCMT:log_sse2.obj
 0002:0000ac30       _hi_mask                   1002ac30     LIBCMT:log_sse2.obj
 0002:0000ac40       _LOG_2                     1002ac40     LIBCMT:log_sse2.obj
 0002:0000ac50       _place_LR                  1002ac50     LIBCMT:log_sse2.obj
 0002:0000ac70       _One                       1002ac70     LIBCMT:log_sse2.obj
 0002:0000ac80       _Zero                      1002ac80     LIBCMT:log_sse2.obj
 0002:0000ac90       _Two52                     1002ac90     LIBCMT:log_sse2.obj
 0002:0000aca0       _Infs                      1002aca0     LIBCMT:log_sse2.obj
 0002:0000acb0       _coeff                     1002acb0     LIBCMT:log_sse2.obj
 0002:0000ace0       _B_Tbl                     1002ace0     LIBCMT:log_sse2.obj
 0002:0000b0f0       _T_Tbl                     1002b0f0     LIBCMT:log_sse2.obj
 0002:0000b500       _cv2                       1002b500     LIBCMT:asin_sse2.obj
 0002:0000b540       _cv                        1002b540     LIBCMT:asin_sse2.obj
 0002:0000b558       _TMASK                     1002b558     LIBCMT:asin_sse2.obj
 0002:0000b560       _Tbl_addr                  1002b560     LIBCMT:asin_sse2.obj
 0002:0000c460       _T_table                   1002c460     LIBCMT:asin_sse2.obj
 0002:0000cc60       _ABSVALMASK                1002cc60     LIBCMT:asin_sse2.obj
 0002:0000cc70       _ONEMASK                   1002cc70     LIBCMT:asin_sse2.obj
 0002:0000cc78       _ONE_BY_2                  1002cc78     LIBCMT:asin_sse2.obj
 0002:0000cc80       _HALFMASK                  1002cc80     LIBCMT:asin_sse2.obj
 0002:0000cc90       _HALFMASK2                 1002cc90     LIBCMT:asin_sse2.obj
 0002:0000cca0       _SIGNMASK                  1002cca0     LIBCMT:asin_sse2.obj
 0002:0000ccb0       _PI_BY_2                   1002ccb0     LIBCMT:asin_sse2.obj
 0002:0000ccc0       _emask                     1002ccc0     LIBCMT:exp_sse2.obj
 0002:0000ccd0       _mmask                     1002ccd0     LIBCMT:exp_sse2.obj
 0002:0000cce0       _bias                      1002cce0     LIBCMT:exp_sse2.obj
 0002:0000ccf0       _Shifter                   1002ccf0     LIBCMT:exp_sse2.obj
 0002:0000cd00       _cv                        1002cd00     LIBCMT:exp_sse2.obj
 0002:0000cd50       _Tbl_addr                  1002cd50     LIBCMT:exp_sse2.obj
 0002:0000d150       _ONE_val                   1002d150     LIBCMT:exp_sse2.obj
 0002:0000d158       _INF                       1002d158     LIBCMT:exp_sse2.obj
 0002:0000d160       _ZERO                      1002d160     LIBCMT:exp_sse2.obj
 0002:0000d168       _XMAX                      1002d168     LIBCMT:exp_sse2.obj
 0002:0000d170       _XMIN                      1002d170     LIBCMT:exp_sse2.obj
 0002:0000d178       _atan_tbl                  1002d178     LIBCMT:atan_sse2.obj
 0002:0000db98       _pi_table                  1002db98     LIBCMT:atan_sse2.obj
 0002:0000dba8       _SGNMASK                   1002dba8     LIBCMT:atan_sse2.obj
 0002:0000dbb0       _ONEMASK                   1002dbb0     LIBCMT:atan_sse2.obj
 0002:0000dbb8       _BMASK1                    1002dbb8     LIBCMT:atan_sse2.obj
 0002:0000dbc0       _BMASK2                    1002dbc0     LIBCMT:atan_sse2.obj
 0002:0000dbc8       _a2                        1002dbc8     LIBCMT:atan_sse2.obj
 0002:0000dbd8       _b2                        1002dbd8     LIBCMT:atan_sse2.obj
 0002:0000dce0       DblMax                     1002dce0     LIBCMT:87cdisp.obj
 0002:0000dce8       DblMin                     1002dce8     LIBCMT:87cdisp.obj
 0002:0000dcf0       IeeeAdjO                   1002dcf0     LIBCMT:87cdisp.obj
 0002:0000dcf8       IeeeAdjU                   1002dcf8     LIBCMT:87cdisp.obj
 0002:0000dd00       _infinity                  1002dd00     LIBCMT:87cdisp.obj
 0002:0000dd08       _zero                      1002dd08     LIBCMT:87cdisp.obj
 0002:0000dd24       One                        1002dd24     LIBCMT:87disp.obj
 0002:0000dd2c       XAMtoTagTab                1002dd2c     LIBCMT:87disp.obj
 0002:0000dddc       ?ExceptionTemplate@?1??_CxxThrowException@@9@8@4UEHExceptionRecord@@B 1002dddc     LIBCMT:throw.obj
 0002:0000e180       __mb_locale_names          1002e180     LIBCMT:mbctype.obj
 0002:0000e520       __first_127char            1002e520     LIBCMT:wsetloca.obj
 0002:0000e5a0       _INF                       1002e5a0     LIBCMT:libm_error.obj
 0002:0000e5b0       _BIG                       1002e5b0     LIBCMT:libm_error.obj
 0002:0000e5c0       _ZERO                      1002e5c0     LIBCMT:libm_error.obj
 0002:0000e5d0       _INF_32                    1002e5d0     LIBCMT:libm_error.obj
 0002:0000e5d8       _NAN_32                    1002e5d8     LIBCMT:libm_error.obj
 0002:0000e5e0       _ZERO_32                   1002e5e0     LIBCMT:libm_error.obj
 0002:0000e5e8       _libm_largef               1002e5e8     LIBCMT:libm_error.obj
 0002:0000e5f0       _libm_smallf               1002e5f0     LIBCMT:libm_error.obj
 0002:0000e5f8       _libm_small                1002e5f8     LIBCMT:libm_error.obj
 0002:0000e610       rcp_t1                     1002e610     LIBCMT:pow_pentium4.obj
 0002:0000ea20       log2_t1                    1002ea20     LIBCMT:pow_pentium4.obj
 0002:0000f230       rcp_t2                     1002f230     LIBCMT:pow_pentium4.obj
 0002:0000f640       log2_t2                    1002f640     LIBCMT:pow_pentium4.obj
 0002:0000fe50       rcp_t3                     1002fe50     LIBCMT:pow_pentium4.obj
 0002:00010660       log2_t3                    10030660     LIBCMT:pow_pentium4.obj
 0002:00011670       clv                        10031670     LIBCMT:pow_pentium4.obj
 0002:00011690       exp2_tbl                   10031690     LIBCMT:pow_pentium4.obj
 0002:00011e90       Shifter                    10031e90     LIBCMT:pow_pentium4.obj
 0002:00011ea0       SIGMASK                    10031ea0     LIBCMT:pow_pentium4.obj
 0002:00011eb0       ONEMASK                    10031eb0     LIBCMT:pow_pentium4.obj
 0002:00011ec0       ABSVALMASK                 10031ec0     LIBCMT:pow_pentium4.obj
 0002:00011ed0       cev                        10031ed0     LIBCMT:pow_pentium4.obj
 0002:00011ef8       HALFSIG                    10031ef8     LIBCMT:pow_pentium4.obj
 0002:00011f00       LHN                        10031f00     LIBCMT:pow_pentium4.obj
 0002:00011f08       sNaN                       10031f08     LIBCMT:pow_pentium4.obj
 0002:00011f10       INF                        10031f10     LIBCMT:pow_pentium4.obj
 0002:00011f18       NEG_INF                    10031f18     LIBCMT:pow_pentium4.obj
 0002:00011f20       NEG_ZERO                   10031f20     LIBCMT:pow_pentium4.obj
 0002:00011f28       NEG_BIG                    10031f28     LIBCMT:pow_pentium4.obj
 0002:00011f30       POS_BIG                    10031f30     LIBCMT:pow_pentium4.obj
 0002:00011f38       EMIN                       10031f38     LIBCMT:pow_pentium4.obj
 0002:00011f40       QIND                       10031f40     LIBCMT:pow_pentium4.obj
 0002:00011f6e       _log2max                   10031f6e     LIBCMT:87tran.obj
 0002:00011f78       _smallarg                  10031f78     LIBCMT:87tran.obj
 0002:00011f82       _half                      10031f82     LIBCMT:87tran.obj
 0002:00011fb0       One                        10031fb0     LIBCMT:common.obj
 0002:00011fc4       DblMax                     10031fc4     LIBCMT:common.obj
 0002:00011fcc       DblMin                     10031fcc     LIBCMT:common.obj
 0002:00011fd4       IeeeAdjO                   10031fd4     LIBCMT:common.obj
 0002:00011fdc       IeeeAdjU                   10031fdc     LIBCMT:common.obj
 0002:00011fe4       _infinity                  10031fe4     LIBCMT:common.obj
 0002:00011fec       _zero                      10031fec     LIBCMT:common.obj
 0002:00012000       Shifter                    10032000     LIBCMT:acos_pentium4.obj
 0002:00012010       Tbl_addr                   10032010     LIBCMT:acos_pentium4.obj
 0002:00012f10       T_table                    10032f10     LIBCMT:acos_pentium4.obj
 0002:00013710       PI_BY_2                    10033710     LIBCMT:acos_pentium4.obj
 0002:00013720       NEG_PI                     10033720     LIBCMT:acos_pentium4.obj
 0002:00013730       PI                         10033730     LIBCMT:acos_pentium4.obj
 0002:00013740       SIGNMASK                   10033740     LIBCMT:acos_pentium4.obj
 0002:00013750       HALFMASK                   10033750     LIBCMT:acos_pentium4.obj
 0002:00013760       HALFMASK2                  10033760     LIBCMT:acos_pentium4.obj
 0002:00013770       cv                         10033770     LIBCMT:acos_pentium4.obj
 0002:00013790       cv2                        10033790     LIBCMT:acos_pentium4.obj
 0002:000137d0       ABSVALMASK                 100337d0     LIBCMT:acos_pentium4.obj
 0002:000137d8       TMASK                      100337d8     LIBCMT:acos_pentium4.obj
 0002:000137e0       ONEMASK                    100337e0     LIBCMT:acos_pentium4.obj
 0002:000137e8       ONE_BY_2                   100337e8     LIBCMT:acos_pentium4.obj
 0002:000137f0       EMIN                       100337f0     LIBCMT:acos_pentium4.obj
 0002:000137f8       MAX_ARG                    100337f8     LIBCMT:acos_pentium4.obj
 0002:00013800       MIN_ARG                    10033800     LIBCMT:acos_pentium4.obj
 0002:00013808       INF                        10033808     LIBCMT:acos_pentium4.obj
 0002:00013810       ZERO                       10033810     LIBCMT:acos_pentium4.obj
 0002:00013818       ALPHA                      10033818     LIBCMT:acos_pentium4.obj
 0002:00013820       Shifter                    10033820     LIBCMT:asin_pentium4.obj
 0002:00013830       Tbl_addr                   10033830     LIBCMT:asin_pentium4.obj
 0002:00014730       T_table                    10034730     LIBCMT:asin_pentium4.obj
 0002:00014f30       PI_BY_2                    10034f30     LIBCMT:asin_pentium4.obj
 0002:00014f40       SIGNMASK                   10034f40     LIBCMT:asin_pentium4.obj
 0002:00014f50       HALFMASK                   10034f50     LIBCMT:asin_pentium4.obj
 0002:00014f60       HALFMASK2                  10034f60     LIBCMT:asin_pentium4.obj
 0002:00014f68       cv                         10034f68     LIBCMT:asin_pentium4.obj
 0002:00014f80       cv2                        10034f80     LIBCMT:asin_pentium4.obj
 0002:00014fc0       ABSVALMASK                 10034fc0     LIBCMT:asin_pentium4.obj
 0002:00014fc8       TMASK                      10034fc8     LIBCMT:asin_pentium4.obj
 0002:00014fd0       ONEMASK                    10034fd0     LIBCMT:asin_pentium4.obj
 0002:00014fd8       EMIN                       10034fd8     LIBCMT:asin_pentium4.obj
 0002:00014fe0       MAX_ARG                    10034fe0     LIBCMT:asin_pentium4.obj
 0002:00014fe8       MIN_ARG                    10034fe8     LIBCMT:asin_pentium4.obj
 0002:00014ff0       INF                        10034ff0     LIBCMT:asin_pentium4.obj
 0002:00014ff8       ZERO                       10034ff8     LIBCMT:asin_pentium4.obj
 0002:00015000       _rterrs                    10035000     LIBCMT:crt0msg.obj
 0002:00017ae0       _tokenTable                10037ae0     LIBCMT:undname.obj
 0002:00017b18       _nameTable                 10037b18     LIBCMT:undname.obj
 0002:00017c58       _rttiTable                 10037c58     LIBCMT:undname.obj
 0002:00018284       _GS_ExceptionPointers      10038284     LIBCMT:gs_report.obj
 0002:00018aa0       Ctable                     10038aa0     LIBCMT:cos_pentium4.obj
 0002:000192a0       SC_1                       100392a0     LIBCMT:cos_pentium4.obj
 0002:000192b0       SC_2                       100392b0     LIBCMT:cos_pentium4.obj
 0002:000192c0       SC_3                       100392c0     LIBCMT:cos_pentium4.obj
 0002:000192d0       SC_4                       100392d0     LIBCMT:cos_pentium4.obj
 0002:000192e0       PI32INV                    100392e0     LIBCMT:cos_pentium4.obj
 0002:000192e8       SHIFTER                    100392e8     LIBCMT:cos_pentium4.obj
 0002:000192f0       P_2                        100392f0     LIBCMT:cos_pentium4.obj
 0002:00019300       P_1                        10039300     LIBCMT:cos_pentium4.obj
 0002:00019308       P_3                        10039308     LIBCMT:cos_pentium4.obj
 0002:00019310       TWO_POW_55                 10039310     LIBCMT:cos_pentium4.obj
 0002:00019318       TWO_POW_M55                10039318     LIBCMT:cos_pentium4.obj
 0002:00019320       ALL_ONES                   10039320     LIBCMT:cos_pentium4.obj
 0002:00019328       NEG_ZERO                   10039328     LIBCMT:cos_pentium4.obj
 0002:00019330       ONE                        10039330     LIBCMT:cos_pentium4.obj
 0002:00019340       SIGN_MASK                  10039340     LIBCMT:cos_pentium4.obj
 0002:00019350       Ctable                     10039350     LIBCMT:sin_pentium4.obj
 0002:00019b50       SC_1                       10039b50     LIBCMT:sin_pentium4.obj
 0002:00019b60       SC_2                       10039b60     LIBCMT:sin_pentium4.obj
 0002:00019b70       SC_3                       10039b70     LIBCMT:sin_pentium4.obj
 0002:00019b80       SC_4                       10039b80     LIBCMT:sin_pentium4.obj
 0002:00019b90       PI32INV                    10039b90     LIBCMT:sin_pentium4.obj
 0002:00019b98       SHIFTER                    10039b98     LIBCMT:sin_pentium4.obj
 0002:00019ba0       P_2                        10039ba0     LIBCMT:sin_pentium4.obj
 0002:00019bb0       P_1                        10039bb0     LIBCMT:sin_pentium4.obj
 0002:00019bb8       P_3                        10039bb8     LIBCMT:sin_pentium4.obj
 0002:00019bc0       TWO_POW_55                 10039bc0     LIBCMT:sin_pentium4.obj
 0002:00019bc8       TWO_POW_M55                10039bc8     LIBCMT:sin_pentium4.obj
 0002:00019bd0       ALL_ONES                   10039bd0     LIBCMT:sin_pentium4.obj
 0002:00019bd8       NEG_ZERO                   10039bd8     LIBCMT:sin_pentium4.obj
 0002:00019be0       ONE                        10039be0     LIBCMT:sin_pentium4.obj
 0002:00019bf0       Ctable                     10039bf0     LIBCMT:tan_pentium4.obj
 0002:0001b1f0       PI32INV                    1003b1f0     LIBCMT:tan_pentium4.obj
 0002:0001b200       SHIFTER                    1003b200     LIBCMT:tan_pentium4.obj
 0002:0001b210       P_1                        1003b210     LIBCMT:tan_pentium4.obj
 0002:0001b220       P_2                        1003b220     LIBCMT:tan_pentium4.obj
 0002:0001b230       P_3                        1003b230     LIBCMT:tan_pentium4.obj
 0002:0001b240       QQ_2                       1003b240     LIBCMT:tan_pentium4.obj
 0002:0001b248       ONE                        1003b248     LIBCMT:tan_pentium4.obj
 0002:0001b250       MASK_35                    1003b250     LIBCMT:tan_pentium4.obj
 0002:0001b260       sign_mask                  1003b260     LIBCMT:tan_pentium4.obj
 0002:0001b268       TWO_POW_55                 1003b268     LIBCMT:tan_pentium4.obj
 0002:0001b270       TWO_POW_M55                1003b270     LIBCMT:tan_pentium4.obj
 0002:0001b278       TWO_POW_M53                1003b278     LIBCMT:tan_pentium4.obj
 0002:0001b280       INF                        1003b280     LIBCMT:tan_pentium4.obj
 0002:0001c180       __sehtable$__onexit        1003c180     LIBCMT:onexit.obj
 0002:0001c1a0       __sehtable$_printf         1003c1a0     LIBCMT:printf.obj
 0002:0001c210       __sehtable$__CRT_INIT@12   1003c210     LIBCMT:dllcrt0.obj
 0002:0001c230       __sehtable$___DllMainCRTStartup 1003c230     LIBCMT:dllcrt0.obj
 0002:0001c250       __sehtable$_doexit         1003c250     LIBCMT:crt0dat.obj
 0002:0001c270       __sehtable$___set_fpsr_sse2 1003c270     LIBCMT:fpctrl.obj
 0002:0001c290       __sehtable$?_Type_info_dtor@type_info@@CAXPAV1@@Z 1003c290     LIBCMT:typname.obj
 0002:0001c2b0       __sehtable$__freefls@4     1003c2b0     LIBCMT:tidtable.obj
 0002:0001c2d8       __sehtable$__initptd       1003c2d8     LIBCMT:tidtable.obj
 0002:0001c300       __sehtable$__ioinit        1003c300     LIBCMT:ioinit.obj
 0002:0001c320       __sehtable$___updatetlocinfo 1003c320     LIBCMT:localref.obj
 0002:0001c340       __sehtable$___updatetmbcinfo 1003c340     LIBCMT:mbctype.obj
 0002:0001c360       __sehtable$__setmbcp       1003c360     LIBCMT:mbctype.obj
 0002:0001c380       __sehtable$__locterm       1003c380     LIBCMT:wsetloca.obj
 0002:0001c3a0       __sehtable$__mtinitlocknum 1003c3a0     LIBCMT:mlock.obj
 0002:0001c3c0       __sehtable$__IsNonwritableInCurrentImage 1003c3c0     LIBCMT:pesect.obj
 0002:0001c3e0       __sehtable$?terminate@@YAXXZ 1003c3e0     LIBCMT:hooks.obj
 0002:0001c400       __sehtable$_raise          1003c400     LIBCMT:winsig.obj
 0002:0001c420       __sehtable$__fcloseall     1003c420     LIBCMT:closeall.obj
 0002:0001c440       __sehtable$_flsall         1003c440     LIBCMT:fflush.obj
 0002:0001c468       __sehtable$__write         1003c468     LIBCMT:write.obj
 0002:0001c488       __sehtable$__lseeki64      1003c488     LIBCMT:lseeki64.obj
 0002:0001c4a8       __sehtable$_fclose         1003c4a8     LIBCMT:fclose.obj
 0002:0001c4c8       __sehtable$__commit        1003c4c8     LIBCMT:commit.obj
 0002:0001c4e8       __sehtable$__read          1003c4e8     LIBCMT:read.obj
 0002:0001c508       __sehtable$___lock_fhandle 1003c508     LIBCMT:osfinfo.obj
 0002:0001c528       __sehtable$__close         1003c528     LIBCMT:close.obj
 0002:0001c550       .edata                     1003c550     game_shader_generic_deferred.exp
 0002:0001c578       rgpv                       1003c578     game_shader_generic_deferred.exp
 0002:0001c57c       rgszName                   1003c57c     game_shader_generic_deferred.exp
 0002:0001c580       rgwOrd                     1003c580     game_shader_generic_deferred.exp
 0002:0001c582       szName                     1003c582     game_shader_generic_deferred.exp
 0002:0001c5a3       $N00001                    1003c5a3     game_shader_generic_deferred.exp
 0002:0001c772       .idata$6                   1003c772     kernel32:KERNEL32.dll
 0002:0001c7fa       .idata$6                   1003c7fa     tier0:tier0.dll
 0003:00000000       _INVALID_LOGGING_CHANNEL_ID 1003d000     BaseVSShader.obj
 0003:00000004       _vec2_invalid              1003d004     BaseVSShader.obj
 0003:0000000c       _vec4_invalid              1003d00c     BaseVSShader.obj
 0003:0000001c       _s_HelpString              1003d01c     blur.obj
 0003:00000020       _s_Name                    1003d020     blur.obj
 0003:00000024       _INVALID_LOGGING_CHANNEL_ID 1003d024     blur.obj
 0003:00000028       _vec2_invalid              1003d028     blur.obj
 0003:00000030       _vec4_invalid              1003d030     blur.obj
 0003:00000040       _s_HelpString              1003d040     debug_lightingctrl.obj
 0003:00000044       _s_Name                    1003d044     debug_lightingctrl.obj
 0003:00000048       _INVALID_LOGGING_CHANNEL_ID 1003d048     debug_lightingctrl.obj
 0003:0000004c       _vec2_invalid              1003d04c     debug_lightingctrl.obj
 0003:00000054       _vec4_invalid              1003d054     debug_lightingctrl.obj
 0003:00000064       _s_HelpString              1003d064     debug_radiosity_grid.obj
 0003:00000068       _s_Name                    1003d068     debug_radiosity_grid.obj
 0003:0000006c       _INVALID_LOGGING_CHANNEL_ID 1003d06c     debug_radiosity_grid.obj
 0003:00000070       _vec2_invalid              1003d070     debug_radiosity_grid.obj
 0003:00000078       _vec4_invalid              1003d078     debug_radiosity_grid.obj
 0003:00000088       _s_HelpString              1003d088     debug_shadow.obj
 0003:0000008c       _s_Name                    1003d08c     debug_shadow.obj
 0003:00000090       _INVALID_LOGGING_CHANNEL_ID 1003d090     debug_shadow.obj
 0003:00000094       _vec2_invalid              1003d094     debug_shadow.obj
 0003:0000009c       _vec4_invalid              1003d09c     debug_shadow.obj
 0003:000000ac       _s_HelpString              1003d0ac     deferred_brush.obj
 0003:000000b0       _s_Name                    1003d0b0     deferred_brush.obj
 0003:000000b4       _INVALID_LOGGING_CHANNEL_ID 1003d0b4     deferred_brush.obj
 0003:000000b8       _vec2_invalid              1003d0b8     deferred_brush.obj
 0003:000000c0       _vec4_invalid              1003d0c0     deferred_brush.obj
 0003:000000d0       _INVALID_LOGGING_CHANNEL_ID 1003d0d0     deferred_decalModulate.obj
 0003:000000d4       _s_HelpString              1003d0d4     deferred_decalModulate.obj
 0003:000000d8       _s_Name                    1003d0d8     deferred_decalModulate.obj
 0003:000000dc       _vec2_invalid              1003d0dc     deferred_decalModulate.obj
 0003:000000e4       _vec4_invalid              1003d0e4     deferred_decalModulate.obj
 0003:000000f4       _s_HelpString              1003d0f4     deferred_model.obj
 0003:000000f8       _s_Name                    1003d0f8     deferred_model.obj
 0003:000000fc       _INVALID_LOGGING_CHANNEL_ID 1003d0fc     deferred_model.obj
 0003:00000100       _vec2_invalid              1003d100     deferred_model.obj
 0003:00000108       _vec4_invalid              1003d108     deferred_model.obj
 0003:00000118       _INVALID_LOGGING_CHANNEL_ID 1003d118     deferred_utility.obj
 0003:0000011c       _vec2_invalid              1003d11c     deferred_utility.obj
 0003:00000124       _vec4_invalid              1003d124     deferred_utility.obj
 0003:00000134       ?iDimDefault@?1??GetTexcoordSettings@@YAX_N0AAHPAPAH@Z@4PAHA 1003d134     deferred_utility.obj
 0003:00000140       ?iDimMultiBlend@?1??GetTexcoordSettings@@YAX_N0AAHPAPAH@Z@4PAHA 1003d140     deferred_utility.obj
 0003:00000160       _INVALID_LOGGING_CHANNEL_ID 1003d160     defpass_composite.obj
 0003:00000164       _vec2_invalid              1003d164     defpass_composite.obj
 0003:0000016c       _vec4_invalid              1003d16c     defpass_composite.obj
 0003:00000180       _tmpBuf                    1003d180     defpass_composite.obj
 0003:00000388       _INVALID_LOGGING_CHANNEL_ID 1003d388     defpass_gbuffer.obj
 0003:0000038c       _vec2_invalid              1003d38c     defpass_gbuffer.obj
 0003:00000394       _vec4_invalid              1003d394     defpass_gbuffer.obj
 0003:000003a8       _tmpBuf                    1003d3a8     defpass_gbuffer.obj
 0003:000005b0       _INVALID_LOGGING_CHANNEL_ID 1003d5b0     defpass_shadow.obj
 0003:000005b4       _vec2_invalid              1003d5b4     defpass_shadow.obj
 0003:000005bc       _vec4_invalid              1003d5bc     defpass_shadow.obj
 0003:000005d0       _tmpBuf                    1003d5d0     defpass_shadow.obj
 0003:000007d4       _INVALID_LOGGING_CHANNEL_ID 1003d7d4     IDeferredExt.obj
 0003:000007d8       _vec2_invalid              1003d7d8     IDeferredExt.obj
 0003:000007e0       _vec4_invalid              1003d7e0     IDeferredExt.obj
 0003:000007f0       _s_HelpString              1003d7f0     lighting_global.obj
 0003:000007f4       _s_Name                    1003d7f4     lighting_global.obj
 0003:000007f8       _INVALID_LOGGING_CHANNEL_ID 1003d7f8     lighting_global.obj
 0003:000007fc       _vec2_invalid              1003d7fc     lighting_global.obj
 0003:00000804       _vec4_invalid              1003d804     lighting_global.obj
 0003:00000814       _INVALID_LOGGING_CHANNEL_ID 1003d814     lighting_pass_basic.obj
 0003:00000818       _vec2_invalid              1003d818     lighting_pass_basic.obj
 0003:00000820       _vec4_invalid              1003d820     lighting_pass_basic.obj
 0003:00000830       _INVALID_LOGGING_CHANNEL_ID 1003d830     lighting_pass_volum.obj
 0003:00000834       _vec2_invalid              1003d834     lighting_pass_volum.obj
 0003:0000083c       _vec4_invalid              1003d83c     lighting_pass_volum.obj
 0003:0000084c       _s_HelpString              1003d84c     lighting_world.obj
 0003:00000850       _s_Name                    1003d850     lighting_world.obj
 0003:00000854       _INVALID_LOGGING_CHANNEL_ID 1003d854     lighting_world.obj
 0003:00000858       _vec2_invalid              1003d858     lighting_world.obj
 0003:00000860       _vec4_invalid              1003d860     lighting_world.obj
 0003:00000870       _s_HelpString              1003d870     lighting_volume.obj
 0003:00000874       _s_Name                    1003d874     lighting_volume.obj
 0003:00000878       _INVALID_LOGGING_CHANNEL_ID 1003d878     lighting_volume.obj
 0003:0000087c       _vec2_invalid              1003d87c     lighting_volume.obj
 0003:00000884       _vec4_invalid              1003d884     lighting_volume.obj
 0003:00000894       _s_HelpString              1003d894     radiosity_blend.obj
 0003:00000898       _s_Name                    1003d898     radiosity_blend.obj
 0003:0000089c       _INVALID_LOGGING_CHANNEL_ID 1003d89c     radiosity_blend.obj
 0003:000008a0       _vec2_invalid              1003d8a0     radiosity_blend.obj
 0003:000008a8       _vec4_invalid              1003d8a8     radiosity_blend.obj
 0003:000008b8       _s_HelpString              1003d8b8     radiosity_global.obj
 0003:000008bc       _s_Name                    1003d8bc     radiosity_global.obj
 0003:000008c0       _INVALID_LOGGING_CHANNEL_ID 1003d8c0     radiosity_global.obj
 0003:000008c4       _vec2_invalid              1003d8c4     radiosity_global.obj
 0003:000008cc       _vec4_invalid              1003d8cc     radiosity_global.obj
 0003:000008dc       _s_HelpString              1003d8dc     radiosity_propagate.obj
 0003:000008e0       _s_Name                    1003d8e0     radiosity_propagate.obj
 0003:000008e4       _INVALID_LOGGING_CHANNEL_ID 1003d8e4     radiosity_propagate.obj
 0003:000008e8       _vec2_invalid              1003d8e8     radiosity_propagate.obj
 0003:000008f0       _vec4_invalid              1003d8f0     radiosity_propagate.obj
 0003:00000900       _s_HelpString              1003d900     screenspace_combine.obj
 0003:00000904       _s_Name                    1003d904     screenspace_combine.obj
 0003:00000908       _INVALID_LOGGING_CHANNEL_ID 1003d908     screenspace_combine.obj
 0003:0000090c       _vec2_invalid              1003d90c     screenspace_combine.obj
 0003:00000914       _vec4_invalid              1003d914     screenspace_combine.obj
 0003:00000924       _s_HelpString              1003d924     screenspace_shading.obj
 0003:00000928       _s_Name                    1003d928     screenspace_shading.obj
 0003:0000092c       _INVALID_LOGGING_CHANNEL_ID 1003d92c     screenspace_shading.obj
 0003:00000930       _vec2_invalid              1003d930     screenspace_shading.obj
 0003:00000938       _vec4_invalid              1003d938     screenspace_shading.obj
 0003:00000948       _s_HelpString              1003d948     volume_blend.obj
 0003:0000094c       _s_Name                    1003d94c     volume_blend.obj
 0003:00000950       _INVALID_LOGGING_CHANNEL_ID 1003d950     volume_blend.obj
 0003:00000954       _vec2_invalid              1003d954     volume_blend.obj
 0003:0000095c       _vec4_invalid              1003d95c     volume_blend.obj
 0003:0000096c       _s_HelpString              1003d96c     volume_prepass.obj
 0003:00000970       _s_Name                    1003d970     volume_prepass.obj
 0003:00000974       _INVALID_LOGGING_CHANNEL_ID 1003d974     volume_prepass.obj
 0003:00000978       _vec2_invalid              1003d978     volume_prepass.obj
 0003:00000980       _vec4_invalid              1003d980     volume_prepass.obj
 0003:00000990       _INVALID_LOGGING_CHANNEL_ID 1003d990     tier1:convar.obj
 0003:00000994       _s_nDLLIdentifier          1003d994     tier1:convar.obj
 0003:00000998       _g_PrintConVarFlags        1003d998     tier1:convar.obj
 0003:00000a00       _vec2_invalid              1003da00     tier1:convar.obj
 0003:00000a08       _s_DefaultAccessor         1003da08     tier1:convar.obj
 0003:00000a10       _s_EmptyConVar             1003da10     tier1:convar.obj
 0003:00000ab0       ?empty_string@?1??Create@ConCommandBase@@MAEXPBD0H@Z@4PADA 1003dab0     tier1:convar.obj
 0003:00000b03       ?bFirst@?7??Init@ConVarRef@@QAEXPBD_N@Z@4_NA 1003db03     tier1:convar.obj
 0003:00000b04       ?empty_string@?1??Create@ConVar@@EAEXPBD0H0_NM1MP6AXPAVIConVar@@0M@Z@Z@4PADA 1003db04     tier1:convar.obj
 0003:00000b24       _INVALID_LOGGING_CHANNEL_ID 1003db24     tier1:strtools.obj
 0003:00000b28       _s_BackSlashMap            1003db28     tier1:strtools.obj
 0003:00000b34       _s_hex                     1003db34     tier1:strtools.obj
 0003:00000b44       _vec2_invalid              1003db44     tier1:strtools.obj
 0003:00000b4c       _INVALID_LOGGING_CHANNEL_ID 1003db4c     tier1:interface.obj
 0003:00000b50       __bad_alloc_Message        1003db50     tier1:interface.obj
 0003:00000b54       _INVALID_LOGGING_CHANNEL_ID 1003db54     tier1:utlstring.obj
 0003:00000b58       _INVALID_LOGGING_CHANNEL_ID 1003db58     tier1:utlbuffer.obj
 0003:00000b60       _s_pConversionArrays_StringCharConversion 1003db60     tier1:utlbuffer.obj
 0003:00000bb8       _s_pConversionArrays_NoEscConversion 1003dbb8     tier1:utlbuffer.obj
 0003:00000bc0       _vec2_invalid              1003dbc0     tier1:utlbuffer.obj
 0003:00000c38       _INVALID_LOGGING_CHANNEL_ID 1003dc38     interfaces:interfaces.obj
 0003:00000c40       _g_pInterfaceGlobals       1003dc40     interfaces:interfaces.obj
 0003:00000e00       _INVALID_LOGGING_CHANNEL_ID 1003de00     mathlib:color_conversion.obj
 0003:00001280       _vec2_invalid              1003e280     mathlib:color_conversion.obj
 0003:00001288       _INVALID_LOGGING_CHANNEL_ID 1003e288     mathlib:vmatrix.obj
 0003:0000128c       _vec2_invalid              1003e28c     mathlib:vmatrix.obj
 0003:00001294       _vec4_invalid              1003e294     mathlib:vmatrix.obj
 0003:000012a4       _INVALID_LOGGING_CHANNEL_ID 1003e2a4     mathlib:mathlib_base.obj
 0003:000012ac       _vec2_invalid              1003e2ac     mathlib:mathlib_base.obj
 0003:000012d0       _INVALID_LOGGING_CHANNEL_ID 1003e2d0     mathlib:sseconst.obj
 0003:000012d4       _vec2_invalid              1003e2d4     mathlib:sseconst.obj
 0003:000012dc       _INVALID_LOGGING_CHANNEL_ID 1003e2dc     mathlib:randsse.obj
 0003:000012e0       _vec2_invalid              1003e2e0     mathlib:randsse.obj
 0003:000012e8       _s_StandardParams          1003e2e8     shaderlib:BaseShader.obj
 0003:000013f0       _s_InstanceCommandBuffer   1003e3f0     shaderlib:BaseShader.obj
 0003:00001618       POW_name                   1003e618     LIBCMT:pow.obj
 0003:00001620       _NAME_                     1003e620     LIBCMT:acos.obj
 0003:00001630       _NAME_                     1003e630     LIBCMT:asin.obj
 0003:00001640       _NAME_                     1003e640     LIBCMT:sqrt.obj
 0003:00001670       ?_names@?1??_get_fname@@9@9 1003e670     LIBCMT:fpexcept.obj
 0003:00001758       _over                      1003e758     LIBCMT:fpctrl.obj
 0003:00001764       _under                     1003e764     LIBCMT:fpctrl.obj
 0003:00001770       ?__DAZ_ENABLED@?1??__set_fpsr_sse2@@9@9 1003e770     LIBCMT:fpctrl.obj
 0003:00001a38       _errtable                  1003ea38     LIBCMT:dosmap.obj
 0003:00001ba0       _ErrnoNoMem                1003eba0     LIBCMT:dosmap.obj
 0003:00001ba4       _DoserrorNoMem             1003eba4     LIBCMT:dosmap.obj
 0003:00001bf8       ?isPackaged@?1??__crtIsPackagedApp@@9@9 1003ebf8     LIBCMT:winapisupp.obj
 0003:00002028       ___rgctypeflag             1003f028     LIBCMT:mbctype.obj
 0003:00002030       ___rgcode_page_info        1003f030     LIBCMT:mbctype.obj
 0003:0000234c       __ctype_loc_style          1003f34c     LIBCMT:wsetloca.obj
 0003:00002358       _newcw                     1003f358     LIBCMT:floor.obj
 0003:00002360       _NAME_                     1003f360     LIBCMT:cos.obj
 0003:00002370       _NAME_                     1003f370     LIBCMT:sin.obj
 0003:00002380       _NAME_                     1003f380     LIBCMT:tan.obj
 0003:00002390       __locktable                1003f390     LIBCMT:mlock.obj
 0003:000024c0       _DoubleFormat              1003f4c0     LIBCMT:intrncvt.obj
 0003:000024d8       _FloatFormat               1003f4d8     LIBCMT:intrncvt.obj
 0003:00002934       _INVALID_LOGGING_CHANNEL_ID 1003f934     tier1:tier1.obj
 0003:00002938       _vec2_invalid              1003f938     tier1:tier1.obj
 0003:00002e40       _UNSPECIFIED_LOGGING_COLOR 1003fe40     BaseVSShader.obj
 0003:00002e48       _mat_fullbright            1003fe48     BaseVSShader.obj
 0003:00002ea0       _vec2_origin               1003fea0     BaseVSShader.obj
 0003:00002ea8       _vec4_origin               1003fea8     BaseVSShader.obj
 0003:00002eb8       _s_nFlags                  1003feb8     blur.obj
 0003:00002ebc       _UNSPECIFIED_LOGGING_COLOR 1003febc     blur.obj
 0003:00002ec0       _s_ShaderInstance          1003fec0     blur.obj
 0003:00002ec4       _s_ShaderParams            1003fec4     blur.obj
 0003:00002ed8       _ISVERTICAL                1003fed8     blur.obj
 0003:00002ef0       _vec2_origin               1003fef0     blur.obj
 0003:00002ef8       _vec4_origin               1003fef8     blur.obj
 0003:00002f08       _s_nFlags                  1003ff08     debug_lightingctrl.obj
 0003:00002f0c       _UNSPECIFIED_LOGGING_COLOR 1003ff0c     debug_lightingctrl.obj
 0003:00002f10       _s_ShaderInstance          1003ff10     debug_lightingctrl.obj
 0003:00002f14       _s_ShaderParams            1003ff14     debug_lightingctrl.obj
 0003:00002f28       _vec2_origin               1003ff28     debug_lightingctrl.obj
 0003:00002f30       _vec4_origin               1003ff30     debug_lightingctrl.obj
 0003:00002f40       _s_nFlags                  1003ff40     debug_radiosity_grid.obj
 0003:00002f44       _UNSPECIFIED_LOGGING_COLOR 1003ff44     debug_radiosity_grid.obj
 0003:00002f48       _s_ShaderInstance          1003ff48     debug_radiosity_grid.obj
 0003:00002f4c       _s_ShaderParams            1003ff4c     debug_radiosity_grid.obj
 0003:00002f60       _vec2_origin               1003ff60     debug_radiosity_grid.obj
 0003:00002f68       _vec4_origin               1003ff68     debug_radiosity_grid.obj
 0003:00002f78       _s_nFlags                  1003ff78     debug_shadow.obj
 0003:00002f7c       _UNSPECIFIED_LOGGING_COLOR 1003ff7c     debug_shadow.obj
 0003:00002f80       _s_ShaderInstance          1003ff80     debug_shadow.obj
 0003:00002f84       _s_ShaderParams            1003ff84     debug_shadow.obj
 0003:00002f98       _vec2_origin               1003ff98     debug_shadow.obj
 0003:00002fa0       _vec4_origin               1003ffa0     debug_shadow.obj
 0003:00002fb0       _s_nFlags                  1003ffb0     deferred_brush.obj
 0003:00002fb4       _BUMPMAP3                  1003ffb4     deferred_brush.obj
 0003:00002fcc       _BASETEXTURE4              1003ffcc     deferred_brush.obj
 0003:00002fe4       _BUMPMAP2                  1003ffe4     deferred_brush.obj
 0003:00002ffc       _ALPHATESTREFERENCE        1003fffc     deferred_brush.obj
 0003:00003014       _ENVMAPCONTRAST            10040014     deferred_brush.obj
 0003:0000302c       _SELFILLUMTINT             1004002c     deferred_brush.obj
 0003:00003044       _PHONG_EXP                 10040044     deferred_brush.obj
 0003:0000305c       _PHONG_EXP2                1004005c     deferred_brush.obj
 0003:00003074       _PHONG_MAP                 10040074     deferred_brush.obj
 0003:0000308c       _SELFILLUMMASK             1004008c     deferred_brush.obj
 0003:000030a4       _BLENDMODULATETEXTURE3     100400a4     deferred_brush.obj
 0003:000030bc       _ENVMAP                    100400bc     deferred_brush.obj
 0003:000030d4       _UNSPECIFIED_LOGGING_COLOR 100400d4     deferred_brush.obj
 0003:000030d8       _ENVMAPMASK2               100400d8     deferred_brush.obj
 0003:000030f0       _BASETEXTURE3              100400f0     deferred_brush.obj
 0003:00003108       _MULTIBLEND                10040108     deferred_brush.obj
 0003:00003120       _SELFILLUM_ENVMAPMASK_ALPHA 10040120     deferred_brush.obj
 0003:00003138       _BLENDMODULATETEXTURE2     10040138     deferred_brush.obj
 0003:00003150       _ENVMAPMASK                10040150     deferred_brush.obj
 0003:00003168       _s_ShaderInstance          10040168     deferred_brush.obj
 0003:0000316c       _s_ShaderParams            1004016c     deferred_brush.obj
 0003:00003180       _BLENDMASKTRANSFORM2       10040180     deferred_brush.obj
 0003:00003198       _LITFACE                   10040198     deferred_brush.obj
 0003:000031b0       _BLENDMASKTRANSFORM        100401b0     deferred_brush.obj
 0003:000031c8       _FRESNELRANGES             100401c8     deferred_brush.obj
 0003:000031e0       _SSBUMP                    100401e0     deferred_brush.obj
 0003:000031f8       _BUMPMAP                   100401f8     deferred_brush.obj
 0003:00003210       _ENVMAPTINT                10040210     deferred_brush.obj
 0003:00003228       _BLENDMASKTRANSFORM3       10040228     deferred_brush.obj
 0003:00003240       _BLENDMODULATETEXTURE      10040240     deferred_brush.obj
 0003:00003258       _BASETEXTURE2              10040258     deferred_brush.obj
 0003:00003270       _ENVMAPSATURATION          10040270     deferred_brush.obj
 0003:00003288       _BUMPMAP4                  10040288     deferred_brush.obj
 0003:000032a0       _SELFILLUMFRESNEL          100402a0     deferred_brush.obj
 0003:000032b8       _PHONG_FRESNEL             100402b8     deferred_brush.obj
 0003:000032d0       _PHONG_SCALE               100402d0     deferred_brush.obj
 0003:000032e8       _vec2_origin               100402e8     deferred_brush.obj
 0003:000032f0       _vec4_origin               100402f0     deferred_brush.obj
 0003:00003300       _s_nFlags                  10040300     deferred_decalModulate.obj
 0003:00003304       _UNSPECIFIED_LOGGING_COLOR 10040304     deferred_decalModulate.obj
 0003:00003308       _FOGEXPONENT               10040308     deferred_decalModulate.obj
 0003:00003320       _FOGSCALE                  10040320     deferred_decalModulate.obj
 0003:00003338       _s_ShaderInstance          10040338     deferred_decalModulate.obj
 0003:0000333c       _s_ShaderParams            1004033c     deferred_decalModulate.obj
 0003:00003350       _vec2_origin               10040350     deferred_decalModulate.obj
 0003:00003358       _vec4_origin               10040358     deferred_decalModulate.obj
 0003:00003368       _s_nFlags                  10040368     deferred_model.obj
 0003:0000336c       _ALPHATESTREFERENCE        1004036c     deferred_model.obj
 0003:00003384       _RIMLIGHT_MODULATE_BY_LIGHT 10040384     deferred_model.obj
 0003:0000339c       _ENVMAPCONTRAST            1004039c     deferred_model.obj
 0003:000033b4       _SELFILLUMTINT             100403b4     deferred_model.obj
 0003:000033cc       _PHONG_EXP                 100403cc     deferred_model.obj
 0003:000033e4       _PHONG_MAP                 100403e4     deferred_model.obj
 0003:000033fc       _SELFILLUMMASK             100403fc     deferred_model.obj
 0003:00003414       _RIMLIGHTTINT              10040414     deferred_model.obj
 0003:0000342c       _ENVMAP                    1004042c     deferred_model.obj
 0003:00003444       _RIMLIGHT                  10040444     deferred_model.obj
 0003:0000345c       _UNSPECIFIED_LOGGING_COLOR 1004045c     deferred_model.obj
 0003:00003460       _SELFILLUM_ENVMAPMASK_ALPHA 10040460     deferred_model.obj
 0003:00003478       _ENVMAPMASK                10040478     deferred_model.obj
 0003:00003490       _s_ShaderInstance          10040490     deferred_model.obj
 0003:00003494       _RIMLIGHTALBEDOSCALE       10040494     deferred_model.obj
 0003:000034ac       _s_ShaderParams            100404ac     deferred_model.obj
 0003:000034c0       _LITFACE                   100404c0     deferred_model.obj
 0003:000034d8       _FRESNELRANGES             100404d8     deferred_model.obj
 0003:000034f0       _BUMPMAP                   100404f0     deferred_model.obj
 0003:00003508       _ENVMAPTINT                10040508     deferred_model.obj
 0003:00003520       _ENVMAPFRESNEL             10040520     deferred_model.obj
 0003:00003538       _ENVMAPSATURATION          10040538     deferred_model.obj
 0003:00003550       _RIMLIGHTEXPONENT          10040550     deferred_model.obj
 0003:00003568       _SELFILLUMFRESNEL          10040568     deferred_model.obj
 0003:00003580       _PHONG_FRESNEL             10040580     deferred_model.obj
 0003:00003598       _PHONG_SCALE               10040598     deferred_model.obj
 0003:000035b0       _vec2_origin               100405b0     deferred_model.obj
 0003:000035b8       _vec4_origin               100405b8     deferred_model.obj
 0003:00003620       _UNSPECIFIED_LOGGING_COLOR 10040620     deferred_utility.obj
 0003:00003624       _vec2_origin               10040624     deferred_utility.obj
 0003:0000362c       _vec4_origin               1004062c     deferred_utility.obj
 0003:00003640       _UNSPECIFIED_LOGGING_COLOR 10040640     defpass_composite.obj
 0003:000036a0       _vec2_origin               100406a0     defpass_composite.obj
 0003:000036a8       _vec4_origin               100406a8     defpass_composite.obj
 0003:000036b8       _UNSPECIFIED_LOGGING_COLOR 100406b8     defpass_gbuffer.obj
 0003:000036bc       _vec2_origin               100406bc     defpass_gbuffer.obj
 0003:000036c4       _vec4_origin               100406c4     defpass_gbuffer.obj
 0003:000036d4       _UNSPECIFIED_LOGGING_COLOR 100406d4     defpass_shadow.obj
 0003:000036d8       _vec2_origin               100406d8     defpass_shadow.obj
 0003:000036e0       _vec4_origin               100406e0     defpass_shadow.obj
 0003:00003a48       ___g_CreateCDeferredExtensionIDeferredExtension_reg 10040a48     IDeferredExt.obj
 0003:00003a54       _UNSPECIFIED_LOGGING_COLOR 10040a54     IDeferredExt.obj
 0003:00003a58       _vec2_origin               10040a58     IDeferredExt.obj
 0003:00003a60       _vec4_origin               10040a60     IDeferredExt.obj
 0003:00003a70       ?refRadiosity@?1??IsRadiosityEnabled@CDeferredExtension@@QAE_NXZ@4VConVarRef@@A 10040a70     IDeferredExt.obj
 0003:00003a78       ?$S1@?1??IsRadiosityEnabled@CDeferredExtension@@QAE_NXZ@4IA 10040a78     IDeferredExt.obj
 0003:00003a7c       _s_nFlags                  10040a7c     lighting_global.obj
 0003:00003a80       _UNSPECIFIED_LOGGING_COLOR 10040a80     lighting_global.obj
 0003:00003a84       _s_ShaderInstance          10040a84     lighting_global.obj
 0003:00003a88       _s_ShaderParams            10040a88     lighting_global.obj
 0003:00003a9c       _vec2_origin               10040a9c     lighting_global.obj
 0003:00003aa4       _vec4_origin               10040aa4     lighting_global.obj
 0003:00003ab4       _UNSPECIFIED_LOGGING_COLOR 10040ab4     lighting_pass_basic.obj
 0003:00003ab8       _vec2_origin               10040ab8     lighting_pass_basic.obj
 0003:00003ac0       _vec4_origin               10040ac0     lighting_pass_basic.obj
 0003:00003ad0       _UNSPECIFIED_LOGGING_COLOR 10040ad0     lighting_pass_volum.obj
 0003:00003ad4       _vec2_origin               10040ad4     lighting_pass_volum.obj
 0003:00003adc       _vec4_origin               10040adc     lighting_pass_volum.obj
 0003:00003aec       _s_nFlags                  10040aec     lighting_world.obj
 0003:00003af0       _UNSPECIFIED_LOGGING_COLOR 10040af0     lighting_world.obj
 0003:00003af4       _s_ShaderInstance          10040af4     lighting_world.obj
 0003:00003af8       _LIGHTTYPE                 10040af8     lighting_world.obj
 0003:00003b10       _s_ShaderParams            10040b10     lighting_world.obj
 0003:00003b24       _WORLDPROJECTION           10040b24     lighting_world.obj
 0003:00003b3c       _vec2_origin               10040b3c     lighting_world.obj
 0003:00003b44       _vec4_origin               10040b44     lighting_world.obj
 0003:00003b54       _s_nFlags                  10040b54     lighting_volume.obj
 0003:00003b58       _UNSPECIFIED_LOGGING_COLOR 10040b58     lighting_volume.obj
 0003:00003b5c       _s_ShaderInstance          10040b5c     lighting_volume.obj
 0003:00003b60       _LIGHTTYPE                 10040b60     lighting_volume.obj
 0003:00003b78       _s_ShaderParams            10040b78     lighting_volume.obj
 0003:00003b8c       _WORLDPROJECTION           10040b8c     lighting_volume.obj
 0003:00003ba4       _vec2_origin               10040ba4     lighting_volume.obj
 0003:00003bac       _vec4_origin               10040bac     lighting_volume.obj
 0003:00003bbc       _s_nFlags                  10040bbc     radiosity_blend.obj
 0003:00003bc0       _UNSPECIFIED_LOGGING_COLOR 10040bc0     radiosity_blend.obj
 0003:00003bc4       _s_ShaderInstance          10040bc4     radiosity_blend.obj
 0003:00003bc8       _s_ShaderParams            10040bc8     radiosity_blend.obj
 0003:00003bdc       _vec2_origin               10040bdc     radiosity_blend.obj
 0003:00003be4       _vec4_origin               10040be4     radiosity_blend.obj
 0003:00003bf4       _s_nFlags                  10040bf4     radiosity_global.obj
 0003:00003bf8       _UNSPECIFIED_LOGGING_COLOR 10040bf8     radiosity_global.obj
 0003:00003bfc       _s_ShaderInstance          10040bfc     radiosity_global.obj
 0003:00003c00       _s_ShaderParams            10040c00     radiosity_global.obj
 0003:00003c14       _vec2_origin               10040c14     radiosity_global.obj
 0003:00003c1c       _vec4_origin               10040c1c     radiosity_global.obj
 0003:00003c2c       _s_nFlags                  10040c2c     radiosity_propagate.obj
 0003:00003c30       _UNSPECIFIED_LOGGING_COLOR 10040c30     radiosity_propagate.obj
 0003:00003c34       _NORMALMAP                 10040c34     radiosity_propagate.obj
 0003:00003c4c       _s_ShaderInstance          10040c4c     radiosity_propagate.obj
 0003:00003c50       _s_ShaderParams            10040c50     radiosity_propagate.obj
 0003:00003c64       _BLUR                      10040c64     radiosity_propagate.obj
 0003:00003c7c       _vec2_origin               10040c7c     radiosity_propagate.obj
 0003:00003c84       _vec4_origin               10040c84     radiosity_propagate.obj
 0003:00003c94       _s_nFlags                  10040c94     screenspace_combine.obj
 0003:00003c98       _UNSPECIFIED_LOGGING_COLOR 10040c98     screenspace_combine.obj
 0003:00003c9c       _s_ShaderInstance          10040c9c     screenspace_combine.obj
 0003:00003ca0       _s_ShaderParams            10040ca0     screenspace_combine.obj
 0003:00003cb4       _vec2_origin               10040cb4     screenspace_combine.obj
 0003:00003cbc       _vec4_origin               10040cbc     screenspace_combine.obj
 0003:00003ccc       _s_nFlags                  10040ccc     screenspace_shading.obj
 0003:00003cd0       _UNSPECIFIED_LOGGING_COLOR 10040cd0     screenspace_shading.obj
 0003:00003cd4       _s_ShaderInstance          10040cd4     screenspace_shading.obj
 0003:00003cd8       _s_ShaderParams            10040cd8     screenspace_shading.obj
 0003:00003cec       _vec2_origin               10040cec     screenspace_shading.obj
 0003:00003cf4       _vec4_origin               10040cf4     screenspace_shading.obj
 0003:00003d04       _s_nFlags                  10040d04     volume_blend.obj
 0003:00003d08       _UNSPECIFIED_LOGGING_COLOR 10040d08     volume_blend.obj
 0003:00003d0c       _s_ShaderInstance          10040d0c     volume_blend.obj
 0003:00003d10       _s_ShaderParams            10040d10     volume_blend.obj
 0003:00003d24       _vec2_origin               10040d24     volume_blend.obj
 0003:00003d2c       _vec4_origin               10040d2c     volume_blend.obj
 0003:00003d3c       _s_nFlags                  10040d3c     volume_prepass.obj
 0003:00003d40       _UNSPECIFIED_LOGGING_COLOR 10040d40     volume_prepass.obj
 0003:00003d44       _s_ShaderInstance          10040d44     volume_prepass.obj
 0003:00003d48       _s_ShaderParams            10040d48     volume_prepass.obj
 0003:00003d5c       _vec2_origin               10040d5c     volume_prepass.obj
 0003:00003d64       _vec4_origin               10040d64     volume_prepass.obj
 0003:00003d78       _s_BreakSet                10040d78     tier1:convar.obj
 0003:00003e80       _s_nCVarFlag               10040e80     tier1:convar.obj
 0003:00003e84       _s_bRegistered             10040e84     tier1:convar.obj
 0003:00003e85       _s_bBuiltBreakSet          10040e85     tier1:convar.obj
 0003:00003e88       _vec2_origin               10040e88     tier1:convar.obj
 0003:00003e90       _UNSPECIFIED_LOGGING_COLOR 10040e90     tier1:convar.obj
 0003:00003e94       _vec2_origin               10040e94     tier1:strtools.obj
 0003:00003e9c       _UNSPECIFIED_LOGGING_COLOR 10040e9c     tier1:strtools.obj
 0003:00003ea4       _g_nLoadLibraryError       10040ea4     tier1:interface.obj
 0003:00003ea8       _s_bRunningWithDebugModules 10040ea8     tier1:interface.obj
 0003:00003eac       _UNSPECIFIED_LOGGING_COLOR 10040eac     tier1:interface.obj
 0003:00003eb0       _UNSPECIFIED_LOGGING_COLOR 10040eb0     tier1:utlstring.obj
 0003:00003eb8       _vec2_origin               10040eb8     tier1:utlbuffer.obj
 0003:000048d0       _UNSPECIFIED_LOGGING_COLOR 100418d0     tier1:utlbuffer.obj
 0003:000051e8       _s_pConnectionRegistration 100421e8     interfaces:interfaces.obj
 0003:000053ac       _s_bConnected              100423ac     interfaces:interfaces.obj
 0003:0000547c       _s_nConnectionCount        1004247c     interfaces:interfaces.obj
 0003:00005480       _s_nRegistrationCount      10042480     interfaces:interfaces.obj
 0003:00005484       _UNSPECIFIED_LOGGING_COLOR 10042484     interfaces:interfaces.obj
 0003:00005488       _texturetolinear           10042488     mathlib:color_conversion.obj
 0003:00006888       _g_Mathlib_LinearToGamma   10043888     mathlib:color_conversion.obj
 0003:00006c88       _lineartotexture           10043c88     mathlib:color_conversion.obj
 0003:00007c88       _lineartoscreen            10044c88     mathlib:color_conversion.obj
 0003:00008c88       _g_Mathlib_GammaToLinear   10045c88     mathlib:color_conversion.obj
 0003:0000d088       _texgammatable             1004a088     mathlib:color_conversion.obj
 0003:0000d188       _vec2_origin               1004a188     mathlib:color_conversion.obj
 0003:0000d190       _UNSPECIFIED_LOGGING_COLOR 1004a190     mathlib:color_conversion.obj
 0003:0000d194       _vec2_origin               1004a194     mathlib:vmatrix.obj
 0003:0000d19c       _vec4_origin               1004a19c     mathlib:vmatrix.obj
 0003:0000d1ac       _UNSPECIFIED_LOGGING_COLOR 1004a1ac     mathlib:vmatrix.obj
 0003:0000d5b4       _vec2_origin               1004a5b4     mathlib:mathlib_base.obj
 0003:0000d5d4       _UNSPECIFIED_LOGGING_COLOR 1004a5d4     mathlib:mathlib_base.obj
 0003:0000d5d8       _vec2_origin               1004a5d8     mathlib:sseconst.obj
 0003:0000d5e0       _UNSPECIFIED_LOGGING_COLOR 1004a5e0     mathlib:sseconst.obj
 0003:0000d5f0       _s_SIMDRandContexts        1004a5f0     mathlib:randsse.obj
 0003:000145f0       _s_nRandContextsInUse      100515f0     mathlib:randsse.obj
 0003:00014670       _vec2_origin               10051670     mathlib:randsse.obj
 0003:00014678       _UNSPECIFIED_LOGGING_COLOR 10051678     mathlib:randsse.obj
 0003:00014694       _UNSPECIFIED_LOGGING_COLOR 10051694     shaderlib:BaseShader.obj
 0003:00014698       _mat_fullbright            10051698     shaderlib:BaseShader.obj
 0003:000146fc       _s_bBuildingInstanceCommandBuffer 100516fc     shaderlib:BaseShader.obj
 0003:0001470c       _UNSPECIFIED_LOGGING_COLOR 1005170c     shaderlib:ShaderDLL.obj
 0003:00014710       ___g_CreateIShaderDLLInternal_reg 10051710     shaderlib:ShaderDLL.obj
 0003:0001471c       _s_pShaderDLL              1005171c     shaderlib:ShaderDLL.obj
 0003:00014720       _UNSPECIFIED_LOGGING_COLOR 10051720     shaderlib:shaderlib_cvar.obj
 0003:00014728       ___enable_percent_n        10051728     LIBCMT:printf.obj
 0003:0001472c       ___proc_attached           1005172c     LIBCMT:dllcrt0.obj
 0003:00014774       ___type_info_root_node     10051774     LIBCMT:typname.obj
 0003:000148a0       ?_pgmname@?1??_setargv@@9@9 100518a0     LIBCMT:stdargv.obj
 0003:000149c0       _fSystemSet                100519c0     LIBCMT:mbctype.obj
 0003:000149c8       __pmatherr_set             100519c8     LIBCMT:libm_error.obj
 0003:000149d0       _lclcritsects              100519d0     LIBCMT:mlock.obj
 0003:00014b28       ?outmsg@?9??_NMSG_WRITE@@9@9 10051b28     LIBCMT:crt0msg.obj
 0003:00015154       _ctrlc_action              10052154     LIBCMT:winsig.obj
 0003:00015158       _ctrlbreak_action          10052158     LIBCMT:winsig.obj
 0003:0001515c       _abort_action              1005215c     LIBCMT:winsig.obj
 0003:00015160       _term_action               10052160     LIBCMT:winsig.obj
 0003:00015164       _ConsoleCtrlHandler_Installed 10052164     LIBCMT:winsig.obj
 0003:00015168       _g_pfnRtlGenRandom         10052168     LIBCMT:rand_s.obj
 0003:00015170       ___crtCallProc             10052170     LIBCMT:winapinls.obj
 0003:0001519c       _heap                      1005219c     LIBCMT:undname.obj
 0003:000151c0       _GS_ExceptionRecord        100521c0     LIBCMT:gs_report.obj
 0003:00015210       _GS_ContextRecord          10052210     LIBCMT:gs_report.obj
 0003:000154dc       _DebuggerWasPresent        100524dc     LIBCMT:gs_report.obj
 0003:000154e4       ?pfnMessageBox@?1??__crtMessageBoxW@@9@9 100524e4     LIBCMT:crtmboxw.obj
 0003:000154e8       ?pfnGetActiveWindow@?1??__crtMessageBoxW@@9@9 100524e8     LIBCMT:crtmboxw.obj
 0003:000154ec       ?pfnGetLastActivePopup@?1??__crtMessageBoxW@@9@9 100524ec     LIBCMT:crtmboxw.obj
 0003:000154f0       ?pfnGetProcessWindowStation@?1??__crtMessageBoxW@@9@9 100524f0     LIBCMT:crtmboxw.obj
 0003:000154f4       ?pfnGetUserObjectInformation@?1??__crtMessageBoxW@@9@9 100524f4     LIBCMT:crtmboxw.obj
 0003:000154f8       _vec2_origin               100524f8     tier1:tier1.obj
 0003:00015500       _UNSPECIFIED_LOGGING_COLOR 10052500     tier1:tier1.obj
