 game_shader_dx9

 Timestamp is 6667a204 (Mon Jun 10 21:01:56 2024)

 Preferred load address is 10000000

 Start         Length     Name                   Class
 0001:00000000 00051132H .textbss                DATA
 0002:00000000 000a638cH .text                   CODE
 0002:000a6390 0000112dH .text$x                 CODE
 0002:000a74c0 00002c43H .text$yc                CODE
 0002:000aa110 000014bbH .text$yd                CODE
 0003:00000000 00000104H .CRT$XCA                DATA
 0003:00000104 00000233H .CRT$XCU                DATA
 0003:00000338 00000104H .CRT$XCZ                DATA
 0003:0000043c 00000104H .CRT$XIA                DATA
 0003:00000540 00000118H .CRT$XIC                DATA
 0003:00000658 00000104H .CRT$XIZ                DATA
 0003:0000075c 00000104H .CRT$XPA                DATA
 0003:00000860 00000109H .CRT$XPX                DATA
 0003:0000096c 00000104H .CRT$XPXA               DATA
 0003:00000a70 00000104H .CRT$XPZ                DATA
 0003:00000b74 00000104H .CRT$XTA                DATA
 0003:00000c78 00000104H .CRT$XTZ                DATA
 0003:00000d80 0002a8b2H .rdata                  DATA
 0003:0002b634 00000184H .rdata$debug            DATA
 0003:0002b7b8 00000c8eH .rdata$r                DATA
 0003:0002c448 00000104H .rtc$IAA                DATA
 0003:0002c54c 0000010eH .rtc$IMZ                DATA
 0003:0002c65c 00000104H .rtc$IZZ                DATA
 0003:0002c760 00000104H .rtc$TAA                DATA
 0003:0002c864 0000010eH .rtc$TMZ                DATA
 0003:0002c974 00000104H .rtc$TZZ                DATA
 0003:0002ca78 0000105aH .xdata$x                DATA
 0003:0002dae0 0000017bH .edata                  DATA
 0004:00000000 00002976H .data                   DATA
 0004:00002980 0001719cH .bss                    DATA
 0005:00000000 00000028H .idata$2                DATA
 0005:00000028 00000014H .idata$3                DATA
 0005:0000003c 00000278H .idata$4                DATA
 0005:000002b4 00000278H .idata$5                DATA
 0005:0000052c 00000a87H .idata$6                DATA

  Address         Publics by Value              Rva+Base       Lib:Object

 0000:00000000       ___safe_se_handler_table   00000000     <absolute>
 0000:00000000       ___safe_se_handler_count   00000000     <absolute>
 0000:00000000       __except_list              00000000     <absolute>
 0000:00000000       ___ImageBase               10000000     <linker-defined>
 0001:00000000       __enc$textbss$begin        10001000     <linker-defined>
 0001:00051132       __enc$textbss$end          10052132     <linker-defined>
 0002:00006070       _DllMain@12                10059070 f   shader_dll_verify.obj
 0002:000060c0       __ftol3                    100590c0 f   shader_dll_verify.obj
 0002:00006170       ?Function1@CShaderDLLVerification@@UAEKPAE@Z 10059170 f   shader_dll_verify.obj
 0002:000062a0       ?Function2@CShaderDLLVerification@@UAEXHHH@Z 100592a0 f   shader_dll_verify.obj
 0002:00006380       ?Function3@CShaderDLLVerification@@UAEXHHH@Z 10059380 f   shader_dll_verify.obj
 0002:000063d0       ?Function4@CShaderDLLVerification@@UAEXHHH@Z 100593d0 f   shader_dll_verify.obj
 0002:00006420       ?Function5@CShaderDLLVerification@@UAEKXZ 10059420 f   shader_dll_verify.obj
 0002:00006460       ??0CShaderDLLVerification@@QAE@XZ 10059460 f i shader_dll_verify.obj
 0002:000064c0       ??0IShaderDLLVerification@@QAE@XZ 100594c0 f i shader_dll_verify.obj
 0002:00006510       ??_H@YGXPAXIHP6EPAX0@Z@Z   10059510 f i BaseVSShader.obj
 0002:00006580       ?SetPixelShaderConstant@CBaseVSShader@@QAEXHHH@Z 10059580 f   BaseVSShader.obj
 0002:00006960       ?GetType@IMaterialVar@@QBE?AW4MaterialVarType_t@@XZ 10059960 f i BaseVSShader.obj
 0002:000069b0       ?GetFloatValue@IMaterialVar@@QBEMXZ 100599b0 f i BaseVSShader.obj
 0002:00006a00       ?GetFloatValueFast@IMaterialVar@@QBEMXZ 10059a00 f i BaseVSShader.obj
 0002:00006a60       ??AVector4D@@QBEMH@Z       10059a60 f i BaseVSShader.obj
 0002:00006ba0       ?GetVecValue@IMaterialVar@@QBEXPAMH@Z 10059ba0 f i BaseVSShader.obj
 0002:00006c00       ?GetVecValueFast@IMaterialVar@@QBEXPAMH@Z 10059c00 f i BaseVSShader.obj
 0002:00006d60       ?IsSnapshotting@CBaseShader@@QBE_NXZ 10059d60 f i BaseVSShader.obj
 0002:00006db0       ?SetPixelShaderConstantGammaToLinear@CBaseVSShader@@QAEXHHH@Z 10059db0 f   BaseVSShader.obj
 0002:00007290       ?SetPixelShaderConstant_W@CBaseVSShader@@QAEXHHM@Z 1005a290 f   BaseVSShader.obj
 0002:00007590       ?SetPixelShaderConstant@CBaseVSShader@@QAEXHH@Z 1005a590 f   BaseVSShader.obj
 0002:00007880       ?SetPixelShaderConstantGammaToLinear@CBaseVSShader@@QAEXHH@Z 1005a880 f   BaseVSShader.obj
 0002:00007c70       ?SetVertexShaderConstantGammaToLinear@CBaseVSShader@@QAEXHPBMH_N@Z 1005ac70 f   BaseVSShader.obj
 0002:00007ee0       ?SetPixelShaderConstantGammaToLinear@CBaseVSShader@@QAEXHPBMH_N@Z 1005aee0 f   BaseVSShader.obj
 0002:00008150       ?SetPixelShaderConstantFudge@CBaseVSShader@@QAEXHH@Z 1005b150 f   BaseVSShader.obj
 0002:000084d0       ?SetVertexShaderConstant@CBaseVSShader@@QAEXHH@Z 1005b4d0 f   BaseVSShader.obj
 0002:000087c0       ?SetVertexShaderTextureTranslation@CBaseVSShader@@QAEXHH@Z 1005b7c0 f   BaseVSShader.obj
 0002:000089c0       ??0Vector4D@@QAE@XZ        1005b9c0 f i BaseVSShader.obj
 0002:00008a70       ?BitsToFloat@@YAMI@Z       1005ba70 f i BaseVSShader.obj
 0002:00008ae0       ?Init@Vector4D@@QAEXMMMM@Z 1005bae0 f i BaseVSShader.obj
 0002:00008c50       ?Base@Vector4D@@QAEPAMXZ   1005bc50 f i BaseVSShader.obj
 0002:00008c90       ?IsValid@Vector4D@@QBE_NXZ 1005bc90 f i BaseVSShader.obj
 0002:00008d70       ?IsFinite@@YA_NABM@Z       1005bd70 f i BaseVSShader.obj
 0002:00008de0       ?FloatBits@@YA?BIABM@Z     1005bde0 f i BaseVSShader.obj
 0002:00008e60       ?SetVertexShaderTextureScale@CBaseVSShader@@QAEXHH@Z 1005be60 f   BaseVSShader.obj
 0002:00009090       ?SetVertexShaderTextureTransform@CBaseVSShader@@QAEXHH@Z 1005c090 f   BaseVSShader.obj
 0002:00009350       ??AVMatrix@@QBEPBMH@Z      1005c350 f i BaseVSShader.obj
 0002:000093a0       ?SetVertexShaderTextureScaledTransform@CBaseVSShader@@QAEXHHH@Z 1005c3a0 f   BaseVSShader.obj
 0002:000098d0       ??0Vector2D@@QAE@MM@Z      1005c8d0 f i BaseVSShader.obj
 0002:00009a20       ??AVector2D@@QAEAAMH@Z     1005ca20 f i BaseVSShader.obj
 0002:00009b60       ?Base@Vector2D@@QAEPAMXZ   1005cb60 f i BaseVSShader.obj
 0002:00009ba0       ?IsValid@Vector2D@@QBE_NXZ 1005cba0 f i BaseVSShader.obj
 0002:00009c40       ??AVector4D@@QAEAAMH@Z     1005cc40 f i BaseVSShader.obj
 0002:00009d80       ?SetPixelShaderTextureTranslation@CBaseVSShader@@QAEXHH@Z 1005cd80 f   BaseVSShader.obj
 0002:00009f80       ?SetPixelShaderTextureScale@CBaseVSShader@@QAEXHH@Z 1005cf80 f   BaseVSShader.obj
 0002:0000a1b0       ?SetPixelShaderTextureTransform@CBaseVSShader@@QAEXHH@Z 1005d1b0 f   BaseVSShader.obj
 0002:0000a470       ?SetPixelShaderTextureScaledTransform@CBaseVSShader@@QAEXHHH@Z 1005d470 f   BaseVSShader.obj
 0002:0000a9a0       ?SetVertexShaderMatrix3x4@CBaseVSShader@@QAEXHH@Z 1005d9a0 f   BaseVSShader.obj
 0002:0000aaf0       ??AVMatrix@@QAEPAMH@Z      1005daf0 f i BaseVSShader.obj
 0002:0000ab40       ??0VMatrix@@QAE@XZ         1005db40 f i BaseVSShader.obj
 0002:0000ab80       ?SetVertexShaderMatrix4x4@CBaseVSShader@@QAEXHH@Z 1005db80 f   BaseVSShader.obj
 0002:0000acd0       ?LoadViewMatrixIntoVertexShaderConstant@CBaseVSShader@@QAEXH@Z 1005dcd0 f   BaseVSShader.obj
 0002:0000ae00       ?LoadProjectionMatrixIntoVertexShaderConstant@CBaseVSShader@@QAEXH@Z 1005de00 f   BaseVSShader.obj
 0002:0000af30       ?LoadModelViewMatrixIntoVertexShaderConstant@CBaseVSShader@@QAEXH@Z 1005df30 f   BaseVSShader.obj
 0002:0000b120       ?LoadBumpLightmapCoordinateAxes_PixelShader@CBaseVSShader@@QAEXH@Z 1005e120 f   BaseVSShader.obj
 0002:0000b260       ?LoadBumpLightmapCoordinateAxes_VertexShader@CBaseVSShader@@QAEXH@Z 1005e260 f   BaseVSShader.obj
 0002:0000b4c0       ??ATableVector@@QBEMH@Z    1005e4c0 f i BaseVSShader.obj
 0002:0000b5f0       ?EnablePixelShaderOverbright@CBaseVSShader@@QAEXH_N0@Z 1005e5f0 f   BaseVSShader.obj
 0002:0000b780       ?ColorVarsToVector@CBaseVSShader@@AAEXHHAAVVector4D@@@Z 1005e780 f   BaseVSShader.obj
 0002:0000b980       ?SetEnvMapTintPixelShaderDynamicState@CBaseVSShader@@QAEXHHH_N@Z 1005e980 f   BaseVSShader.obj
 0002:0000bcf0       ?GetFloat@ConVar@@QBEMXZ   1005ecf0 f i BaseVSShader.obj
 0002:0000bd30       ?GetInt@ConVar@@QBEHXZ     1005ed30 f i BaseVSShader.obj
 0002:0000bd70       ?SetHWMorphVertexShaderState@CBaseVSShader@@QAEXHHW4VertexTextureSampler_t@@@Z 1005ed70 f   BaseVSShader.obj
 0002:0000c0c0       ?EvaluateBlendRequirements@CBaseVSShader@@QAE?AW4BlendType_t@@H_NH@Z 1005f0c0 f   BaseVSShader.obj
 0002:0000c220       ?CurrentMaterialVarFlags@CBaseShader@@QBEHXZ 1005f220 f i BaseVSShader.obj
 0002:0000c280       ?GetIntValue@IMaterialVar@@QBEHXZ 1005f280 f i BaseVSShader.obj
 0002:0000c2d0       ?GetIntValueFast@IMaterialVar@@QBEHXZ 1005f2d0 f i BaseVSShader.obj
 0002:0000c310       ?SetFlashlightVertexShaderConstants@CBaseVSShader@@QAEX_NH0H0@Z 1005f310 f   BaseVSShader.obj
 0002:0000c690       ??AVector@@QBEMH@Z         1005f690 f i BaseVSShader.obj
 0002:0000c7d0       ?Base@VMatrix@@QAEPAMXZ    1005f7d0 f i BaseVSShader.obj
 0002:0000c810       ?DrawFlashlight_dx90@CBaseVSShader@@QAEXPAPAVIMaterialVar@@PAVIShaderDynamicAPI@@PAVIShaderShadow@@AAUDrawFlashlight_dx90_Vars_t@1@@Z 1005f810 f   BaseVSShader.obj
 0002:0000c850       ?HashShadow2DJitter@CBaseVSShader@@QAEXMPAM0@Z 1005f850 f   BaseVSShader.obj
 0002:0000c9c0       ?fmod@@YAMMM@Z             1005f9c0 f i BaseVSShader.obj
 0002:0000ca30       _fmodf                     1005fa30 f i BaseVSShader.obj
 0002:0000cab0       ?DrawEqualDepthToDestAlpha@CBaseVSShader@@QAEXXZ 1005fab0 f   BaseVSShader.obj
 0002:0000ccf0       ?SupportsPixelShaders_2_b@IMaterialSystemHardwareConfig@@QBE_NXZ 1005fcf0 f i BaseVSShader.obj
 0002:0000cd60       ?ToolsEnabled@@YA_NXZ      1005fd60 f   BaseVSShader.obj
 0002:0000ce20       ??0Color@@QAE@HHHH@Z       1005fe20 f i BaseVSShader.obj
 0002:0000ce90       ?SetColor@Color@@QAEXHHHH@Z 1005fe90 f i BaseVSShader.obj
 0002:0000cf00       ??0Vector4D@@QAE@MMMM@Z    1005ff00 f i BaseVSShader.obj
 0002:0000d070       ??0?$CUtlVector@PAVCShaderParam@PBR@@V?$CUtlMemory@PAVCShaderParam@PBR@@H@@@@QAE@HH@Z 10060070 f i pbr_dx9.obj
 0002:0000d0f0       ?ResetDbgInfo@?$CUtlVector@PAVCShaderParam@PBR@@V?$CUtlMemory@PAVCShaderParam@PBR@@H@@@@IAEXXZ 100600f0 f i pbr_dx9.obj
 0002:0000d150       ?Base@?$CUtlVector@PAVCShaderParam@PBR@@V?$CUtlMemory@PAVCShaderParam@PBR@@H@@@@QAEPAPAVCShaderParam@PBR@@XZ 10060150 f i pbr_dx9.obj
 0002:0000d1a0       ??0?$CUtlMemory@PAVCShaderParam@PBR@@H@@QAE@HH@Z 100601a0 f i pbr_dx9.obj
 0002:0000d390       ?MemAlloc_Alloc@@YAPAXIPBDH@Z 10060390 f i pbr_dx9.obj
 0002:0000d3f0       ?IndirectAlloc@IMemAlloc@@QAEPAXIPBDH@Z 100603f0 f i pbr_dx9.obj
 0002:0000d460       ??0CMemAllocAttributeAlloction@@QAE@PBDH@Z 10060460 f i pbr_dx9.obj
 0002:0000d4e0       ??1CMemAllocAttributeAlloction@@QAE@XZ 100604e0 f i pbr_dx9.obj
 0002:0000d550       ?Base@?$CUtlMemory@PAVCShaderParam@PBR@@H@@QAEPAPAVCShaderParam@PBR@@XZ 10060550 f i pbr_dx9.obj
 0002:0000d670       ?ValidateGrowSize@?$CUtlMemory@PAVCShaderParam@PBR@@H@@IAEXXZ 10060670 f i pbr_dx9.obj
 0002:0000d6b0       ?IsReadOnly@?$CUtlMemory@PAVCShaderParam@PBR@@H@@QBE_NXZ 100606b0 f i pbr_dx9.obj
 0002:0000d700       ??$MemAllocClassName@V?$CUtlMemory@PAVCShaderParam@PBR@@H@@@@YAPBDPAV?$CUtlMemory@PAVCShaderParam@PBR@@H@@@Z 10060700 f i pbr_dx9.obj
 0002:0000d780       ??0CShaderParam@PBR@@QAE@PBDW4ShaderParamType_t@@00H@Z 10060780 f i pbr_dx9.obj
 0002:0000d840       ?Count@?$CUtlVector@PAVCShaderParam@PBR@@V?$CUtlMemory@PAVCShaderParam@PBR@@H@@@@QBEHXZ 10060840 f i pbr_dx9.obj
 0002:0000d880       ?AddToTail@?$CUtlVector@PAVCShaderParam@PBR@@V?$CUtlMemory@PAVCShaderParam@PBR@@H@@@@QAEHABQAVCShaderParam@PBR@@@Z 10060880 f i pbr_dx9.obj
 0002:0000d9f0       ?InsertBefore@?$CUtlVector@PAVCShaderParam@PBR@@V?$CUtlMemory@PAVCShaderParam@PBR@@H@@@@QAEHHABQAVCShaderParam@PBR@@@Z 100609f0 f i pbr_dx9.obj
 0002:0000dc70       ?Element@?$CUtlVector@PAVCShaderParam@PBR@@V?$CUtlMemory@PAVCShaderParam@PBR@@H@@@@QAEAAPAVCShaderParam@PBR@@H@Z 10060c70 f i pbr_dx9.obj
 0002:0000dda0       ??A?$CUtlMemory@PAVCShaderParam@PBR@@H@@QAEAAPAVCShaderParam@PBR@@H@Z 10060da0 f i pbr_dx9.obj
 0002:0000dfa0       ?IsValidIndex@?$CUtlVector@PAVCShaderParam@PBR@@V?$CUtlMemory@PAVCShaderParam@PBR@@H@@@@QBE_NH@Z 10060fa0 f i pbr_dx9.obj
 0002:0000e010       ?GrowVector@?$CUtlVector@PAVCShaderParam@PBR@@V?$CUtlMemory@PAVCShaderParam@PBR@@H@@@@IAEXH@Z 10061010 f i pbr_dx9.obj
 0002:0000e130       ?ShiftElementsRight@?$CUtlVector@PAVCShaderParam@PBR@@V?$CUtlMemory@PAVCShaderParam@PBR@@H@@@@IAEXHH@Z 10061130 f i pbr_dx9.obj
 0002:0000e2d0       ??$CopyConstruct@PAVCShaderParam@PBR@@@@YAPAPAVCShaderParam@PBR@@PAPAV01@ABQAV01@@Z 100612d0 f i pbr_dx9.obj
 0002:0000e370       ??2@YAPAXIPAX@Z            10061370 f i pbr_dx9.obj
 0002:0000e3b0       ?IsIdxValid@?$CUtlMemory@PAVCShaderParam@PBR@@H@@QBE_NH@Z 100613b0 f i pbr_dx9.obj
 0002:0000e430       ?NumAllocated@?$CUtlMemory@PAVCShaderParam@PBR@@H@@QBEHXZ 10061430 f i pbr_dx9.obj
 0002:0000e470       ?Grow@?$CUtlMemory@PAVCShaderParam@PBR@@H@@QAEXH@Z 10061470 f i pbr_dx9.obj
 0002:0000eae0       ?UtlMemory_CalcNewAllocationCount@@YAHHHHH@Z 10061ae0 f i pbr_dx9.obj
 0002:0000eb70       ?IsExternallyAllocated@?$CUtlMemory@PAVCShaderParam@PBR@@H@@QBE_NXZ 10061b70 f i pbr_dx9.obj
 0002:0000ebc0       ??$MemAllocClassName@V?$CUtlVector@PAVCShaderParam@PBR@@V?$CUtlMemory@PAVCShaderParam@PBR@@H@@@@@@YAPBDPAV?$CUtlVector@PAVCShaderParam@PBR@@V?$CUtlMemory@PAVCShaderParam@PBR@@H@@@@@Z 10061bc0 f i pbr_dx9.obj
 0002:0000ec40       ??0CShader@PBR@@QAE@XZ     10061c40 f i pbr_dx9.obj
 0002:0000eca0       ?OnInitShaderParams@CShader@PBR@@UAEXPAPAVIMaterialVar@@PBD@Z 10061ca0 f i pbr_dx9.obj
 0002:0000efe0       ??BCShaderParam@PBR@@QAEHXZ 10061fe0 f i pbr_dx9.obj
 0002:0000f020       ?GetFallbackShader@CShader@PBR@@UBEPBDPAPAVIMaterialVar@@@Z 10062020 f i pbr_dx9.obj
 0002:0000f060       ?GetName@CShader@PBR@@UBEPBDXZ 10062060 f i pbr_dx9.obj
 0002:0000f0a0       ?GetFlags@CShader@PBR@@UBEHXZ 100620a0 f i pbr_dx9.obj
 0002:0000f0e0       ?GetParamCount@CShader@PBR@@UBEHXZ 100620e0 f i pbr_dx9.obj
 0002:0000f140       ?GetParamInfo@CShader@PBR@@UBEABUShaderParamInfo_t@@H@Z 10062140 f i pbr_dx9.obj
 0002:0000f1e0       ?GetInfo@CShaderParam@PBR@@QBEABUShaderParamInfo_t@@XZ 100621e0 f i pbr_dx9.obj
 0002:0000f220       ?OnInitShaderInstance@CShader@PBR@@UAEXPAPAVIMaterialVar@@PAVIShaderInit@@PBD@Z 10062220 f i pbr_dx9.obj
 0002:0000f9a0       ?GetBool@ConVar@@QBE_NXZ   100629a0 f i pbr_dx9.obj
 0002:0000fa00       ?CShader_IsFlagSet@@YA_NPAPAVIMaterialVar@@W4MaterialVarFlags_t@@@Z 10062a00 f i pbr_dx9.obj
 0002:0000fa60       ?CShader_SetFlags2@@YAXPAPAVIMaterialVar@@W4MaterialVarFlags2_t@@@Z 10062a60 f i pbr_dx9.obj
 0002:0000fae0       ??0PBR_Vars_t@@QAE@XZ      10062ae0 f i pbr_dx9.obj
 0002:0000fb40       ?SetupVars@CShader@PBR@@QAEXAAUPBR_Vars_t@@@Z 10062b40 f i pbr_dx9.obj
 0002:0000fd20       ?OnDrawElements@CShader@PBR@@UAEXPAPAVIMaterialVar@@PAVIShaderShadow@@PAVIShaderDynamicAPI@@W4VertexCompressionType_t@@PAPAVCBasePerMaterialContextData@@@Z 10062d20 f i pbr_dx9.obj
 0002:00012f50       ??0Vector@@QAE@XZ          10065f50 f i pbr_dx9.obj
 0002:00012f90       ??0Vector@@QAE@MMM@Z       10065f90 f i pbr_dx9.obj
 0002:00013000       ??4Vector@@QAEAAV0@ABV0@@Z 10066000 f i pbr_dx9.obj
 0002:00013070       ?Base@Vector@@QAEPAMXZ     10066070 f i pbr_dx9.obj
 0002:000130b0       ?IsTexture@IMaterialVar@@QBE_NXZ 100660b0 f i pbr_dx9.obj
 0002:00013100       ?GetVecValue@IMaterialVar@@QBEPBMXZ 10066100 f i pbr_dx9.obj
 0002:00013150       ?GetVecValueFast@IMaterialVar@@QBEPBMXZ 10066150 f i pbr_dx9.obj
 0002:000131b0       ?Base@Vector4D@@QBEPBMXZ   100661b0 f i pbr_dx9.obj
 0002:000131f0       ?ShadowDepthTexture@MaterialSystem_Config_t@@QBE_NXZ 100661f0 f i pbr_dx9.obj
 0002:00013230       ?SetFlashLightColorFromState@@YAXABUFlashlightState_t@@PAVIShaderDynamicAPI@@_NH2@Z 10066230 f i pbr_dx9.obj
 0002:00013460       ?GetFloat@ConVarRef@@QBEMXZ 10066460 f i pbr_dx9.obj
 0002:000134a0       ?ShadowAttenFromState@@YAMABUFlashlightState_t@@@Z 100664a0 f i pbr_dx9.obj
 0002:00013530       ?ShadowFilterFromState@@YAMABUFlashlightState_t@@@Z 10066530 f i pbr_dx9.obj
 0002:00013570       ?GetFloatParam@@YAMHPAPAVIMaterialVar@@M@Z 10066570 f i pbr_dx9.obj
 0002:000135f0       ??0pbr_vs30_Static_Index@@QAE@PAVIShaderShadow@@PAPAVIMaterialVar@@@Z 100665f0 f i pbr_dx9.obj
 0002:00013630       ?GetIndex@pbr_vs30_Static_Index@@QBEHXZ 10066630 f i pbr_dx9.obj
 0002:00013670       ?SetCOMPRESSED_VERTS@pbr_vs30_Dynamic_Index@@QAEXH@Z 10066670 f i pbr_dx9.obj
 0002:000137b0       ?SetDOWATERFOG@pbr_vs30_Dynamic_Index@@QAEXH@Z 100667b0 f i pbr_dx9.obj
 0002:000138f0       ?SetSKINNING@pbr_vs30_Dynamic_Index@@QAEXH@Z 100668f0 f i pbr_dx9.obj
 0002:00013a30       ?SetLIGHTING_PREVIEW@pbr_vs30_Dynamic_Index@@QAEXH@Z 10066a30 f i pbr_dx9.obj
 0002:00013b70       ?SetNUM_LIGHTS@pbr_vs30_Dynamic_Index@@QAEXH@Z 10066b70 f i pbr_dx9.obj
 0002:00013cb0       ??0pbr_vs30_Dynamic_Index@@QAE@PAVIShaderDynamicAPI@@@Z 10066cb0 f i pbr_dx9.obj
 0002:00013db0       ?GetIndex@pbr_vs30_Dynamic_Index@@QBEHXZ 10066db0 f i pbr_dx9.obj
 0002:00013f70       ?SetFLASHLIGHT@pbr_ps30_Static_Index@@QAEXH@Z 10066f70 f i pbr_dx9.obj
 0002:000140b0       ?SetFLASHLIGHTDEPTHFILTERMODE@pbr_ps30_Static_Index@@QAEXH@Z 100670b0 f i pbr_dx9.obj
 0002:000141f0       ?SetLIGHTMAPPED@pbr_ps30_Static_Index@@QAEXH@Z 100671f0 f i pbr_dx9.obj
 0002:00014330       ?SetUSEENVAMBIENT@pbr_ps30_Static_Index@@QAEXH@Z 10067330 f i pbr_dx9.obj
 0002:00014470       ?SetEMISSIVE@pbr_ps30_Static_Index@@QAEXH@Z 10067470 f i pbr_dx9.obj
 0002:000145b0       ?SetSPECULAR@pbr_ps30_Static_Index@@QAEXH@Z 100675b0 f i pbr_dx9.obj
 0002:000146f0       ?SetPARALLAXCORRECT@pbr_ps30_Static_Index@@QAEXH@Z 100676f0 f i pbr_dx9.obj
 0002:00014830       ?SetPARALLAXOCCLUSION@pbr_ps30_Static_Index@@QAEXH@Z 10067830 f i pbr_dx9.obj
 0002:00014970       ??0pbr_ps30_Static_Index@@QAE@PAVIShaderShadow@@PAPAVIMaterialVar@@@Z 10067970 f i pbr_dx9.obj
 0002:00014ae0       ?GetIndex@pbr_ps30_Static_Index@@QBEHXZ 10067ae0 f i pbr_dx9.obj
 0002:00014f20       ?SetWRITEWATERFOGTODESTALPHA@pbr_ps30_Dynamic_Index@@QAEXH@Z 10067f20 f i pbr_dx9.obj
 0002:00015070       ?SetPIXELFOGTYPE@pbr_ps30_Dynamic_Index@@QAEXH@Z 10068070 f i pbr_dx9.obj
 0002:000151c0       ?SetNUM_LIGHTS@pbr_ps30_Dynamic_Index@@QAEXH@Z 100681c0 f i pbr_dx9.obj
 0002:00015310       ?SetWRITE_DEPTH_TO_DESTALPHA@pbr_ps30_Dynamic_Index@@QAEXH@Z 10068310 f i pbr_dx9.obj
 0002:00015460       ?SetFLASHLIGHTSHADOWS@pbr_ps30_Dynamic_Index@@QAEXH@Z 10068460 f i pbr_dx9.obj
 0002:000155b0       ??0pbr_ps30_Dynamic_Index@@QAE@PAVIShaderDynamicAPI@@@Z 100685b0 f i pbr_dx9.obj
 0002:000156b0       ?GetIndex@pbr_ps30_Dynamic_Index@@QBEHXZ 100686b0 f i pbr_dx9.obj
 0002:00015c80       ??0pbr_vs20_Static_Index@@QAE@PAVIShaderShadow@@PAPAVIMaterialVar@@@Z 10068c80 f i pbr_dx9.obj
 0002:00015cc0       ?GetIndex@pbr_vs20_Static_Index@@QBEHXZ 10068cc0 f i pbr_dx9.obj
 0002:00015d00       ?SetCOMPRESSED_VERTS@pbr_vs20_Dynamic_Index@@QAEXH@Z 10068d00 f i pbr_dx9.obj
 0002:00015e40       ?SetDOWATERFOG@pbr_vs20_Dynamic_Index@@QAEXH@Z 10068e40 f i pbr_dx9.obj
 0002:00015f80       ?SetSKINNING@pbr_vs20_Dynamic_Index@@QAEXH@Z 10068f80 f i pbr_dx9.obj
 0002:000160c0       ?SetLIGHTING_PREVIEW@pbr_vs20_Dynamic_Index@@QAEXH@Z 100690c0 f i pbr_dx9.obj
 0002:00016200       ?SetNUM_LIGHTS@pbr_vs20_Dynamic_Index@@QAEXH@Z 10069200 f i pbr_dx9.obj
 0002:00016340       ??0pbr_vs20_Dynamic_Index@@QAE@PAVIShaderDynamicAPI@@@Z 10069340 f i pbr_dx9.obj
 0002:00016440       ?GetIndex@pbr_vs20_Dynamic_Index@@QBEHXZ 10069440 f i pbr_dx9.obj
 0002:00016600       ?SetFLASHLIGHT@pbr_ps20b_Static_Index@@QAEXH@Z 10069600 f i pbr_dx9.obj
 0002:00016740       ?SetFLASHLIGHTDEPTHFILTERMODE@pbr_ps20b_Static_Index@@QAEXH@Z 10069740 f i pbr_dx9.obj
 0002:00016880       ?SetLIGHTMAPPED@pbr_ps20b_Static_Index@@QAEXH@Z 10069880 f i pbr_dx9.obj
 0002:000169c0       ?SetEMISSIVE@pbr_ps20b_Static_Index@@QAEXH@Z 100699c0 f i pbr_dx9.obj
 0002:00016b00       ?SetSPECULAR@pbr_ps20b_Static_Index@@QAEXH@Z 10069b00 f i pbr_dx9.obj
 0002:00016c40       ?SetPARALLAXCORRECT@pbr_ps20b_Static_Index@@QAEXH@Z 10069c40 f i pbr_dx9.obj
 0002:00016d80       ??0pbr_ps20b_Static_Index@@QAE@PAVIShaderShadow@@PAPAVIMaterialVar@@@Z 10069d80 f i pbr_dx9.obj
 0002:00016ea0       ?GetIndex@pbr_ps20b_Static_Index@@QBEHXZ 10069ea0 f i pbr_dx9.obj
 0002:00017260       ?SetWRITEWATERFOGTODESTALPHA@pbr_ps20b_Dynamic_Index@@QAEXH@Z 1006a260 f i pbr_dx9.obj
 0002:000173b0       ?SetPIXELFOGTYPE@pbr_ps20b_Dynamic_Index@@QAEXH@Z 1006a3b0 f i pbr_dx9.obj
 0002:00017500       ?SetNUM_LIGHTS@pbr_ps20b_Dynamic_Index@@QAEXH@Z 1006a500 f i pbr_dx9.obj
 0002:00017650       ?SetWRITE_DEPTH_TO_DESTALPHA@pbr_ps20b_Dynamic_Index@@QAEXH@Z 1006a650 f i pbr_dx9.obj
 0002:000177a0       ?SetFLASHLIGHTSHADOWS@pbr_ps20b_Dynamic_Index@@QAEXH@Z 1006a7a0 f i pbr_dx9.obj
 0002:000178f0       ??0pbr_ps20b_Dynamic_Index@@QAE@PAVIShaderDynamicAPI@@@Z 1006a8f0 f i pbr_dx9.obj
 0002:000179f0       ?GetIndex@pbr_ps20b_Dynamic_Index@@QBEHXZ 1006a9f0 f i pbr_dx9.obj
 0002:00017fc0       ??0CBaseVSShader@@QAE@XZ   1006afc0 f i pbr_dx9.obj
 0002:00018020       ?GetFallbackShader@CBaseShader@@UBEPBDPAPAVIMaterialVar@@@Z 1006b020 f i pbr_dx9.obj
 0002:00018060       ?OnInitShaderParams@CBaseShader@@UAEXPAPAVIMaterialVar@@PBD@Z 1006b060 f i pbr_dx9.obj
 0002:000180a0       ??A?$CUtlVector@PAVCShaderParam@PBR@@V?$CUtlMemory@PAVCShaderParam@PBR@@H@@@@QAEAAPAVCShaderParam@PBR@@H@Z 1006b0a0 f i pbr_dx9.obj
 0002:000181d0       ??1?$CUtlVector@PAVCShaderParam@PBR@@V?$CUtlMemory@PAVCShaderParam@PBR@@H@@@@QAE@XZ 1006b1d0 f i pbr_dx9.obj
 0002:00018230       ?Purge@?$CUtlVector@PAVCShaderParam@PBR@@V?$CUtlMemory@PAVCShaderParam@PBR@@H@@@@QAEXXZ 1006b230 f i pbr_dx9.obj
 0002:000182a0       ??1?$CUtlMemory@PAVCShaderParam@PBR@@H@@QAE@XZ 1006b2a0 f i pbr_dx9.obj
 0002:000182f0       ?RemoveAll@?$CUtlVector@PAVCShaderParam@PBR@@V?$CUtlMemory@PAVCShaderParam@PBR@@H@@@@QAEXXZ 1006b2f0 f i pbr_dx9.obj
 0002:00018380       ?Purge@?$CUtlMemory@PAVCShaderParam@PBR@@H@@QAEXXZ 1006b380 f i pbr_dx9.obj
 0002:00018430       ??$Destruct@PAVCShaderParam@PBR@@@@YAXPAPAVCShaderParam@PBR@@@Z 1006b430 f i pbr_dx9.obj
 0002:00018490       _floorf                    1006b490 f i mathlib:color_conversion.obj
 0002:000184b0       _powf                      1006b4b0 f i mathlib:color_conversion.obj
 0002:000184c0       ?floor@@YAMM@Z             1006b4c0 f i mathlib:color_conversion.obj
 0002:000184e0       ?pow@@YAMMM@Z              1006b4e0 f i mathlib:color_conversion.obj
 0002:000184f0       ?TexLightToLinear@@YAMHH@Z 1006b4f0 f i mathlib:color_conversion.obj
 0002:00018510       ?RoundFloatToInt@@YAHM@Z   1006b510 f i mathlib:color_conversion.obj
 0002:00018520       ?GammaToLinearFullRange@@YAMM@Z 1006b520 f   mathlib:color_conversion.obj
 0002:00018540       ?LinearToGammaFullRange@@YAMM@Z 1006b540 f   mathlib:color_conversion.obj
 0002:00018560       ?GammaToLinear@@YAMM@Z     1006b560 f   mathlib:color_conversion.obj
 0002:000185c0       ?LinearToGamma@@YAMM@Z     1006b5c0 f   mathlib:color_conversion.obj
 0002:00018620       ?SrgbGammaToLinear@@YAMM@Z 1006b620 f   mathlib:color_conversion.obj
 0002:000186b0       ?SrgbLinearToGamma@@YAMM@Z 1006b6b0 f   mathlib:color_conversion.obj
 0002:00018740       ?X360GammaToLinear@@YAMM@Z 1006b740 f   mathlib:color_conversion.obj
 0002:000188c0       ?X360LinearToGamma@@YAMM@Z 1006b8c0 f   mathlib:color_conversion.obj
 0002:000189b0       ?SrgbGammaTo360Gamma@@YAMM@Z 1006b9b0 f   mathlib:color_conversion.obj
 0002:00018a40       ?TextureToLinear@@YAMH@Z   1006ba40 f   mathlib:color_conversion.obj
 0002:00018a70       ?LinearToTexture@@YAHM@Z   1006ba70 f   mathlib:color_conversion.obj
 0002:00018ac0       ?LinearToScreenGamma@@YAHM@Z 1006bac0 f   mathlib:color_conversion.obj
 0002:00018b10       ?ColorRGBExp32ToVector@@YAXABUColorRGBExp32@@AAVVector@@@Z 1006bb10 f   mathlib:color_conversion.obj
 0002:00018bd0       ?VectorToColorRGBExp32@@YAXABVVector@@AAUColorRGBExp32@@@Z 1006bbd0 f   mathlib:color_conversion.obj
 0002:00018ca0       ?BuildGammaTable@@YAXMMMH@Z 1006bca0 f   mathlib:color_conversion.obj
 0002:000190d0       ?FloatMakePositive@@YAMM@Z 1006c0d0 f i mathlib:vmatrix.obj
 0002:000190e0       _acosf                     1006c0e0 f i mathlib:vmatrix.obj
 0002:000190f0       _atan2f                    1006c0f0 f i mathlib:vmatrix.obj
 0002:00019100       _cosf                      1006c100 f i mathlib:vmatrix.obj
 0002:00019110       _sinf                      1006c110 f i mathlib:vmatrix.obj
 0002:00019120       _sqrtf                     1006c120 f i mathlib:vmatrix.obj
 0002:00019130       _tanf                      1006c130 f i mathlib:vmatrix.obj
 0002:00019140       ?acos@@YAMM@Z              1006c140 f i mathlib:vmatrix.obj
 0002:00019150       ?cos@@YAMM@Z               1006c150 f i mathlib:vmatrix.obj
 0002:00019160       ?sin@@YAMM@Z               1006c160 f i mathlib:vmatrix.obj
 0002:00019170       ?sqrt@@YAMM@Z              1006c170 f i mathlib:vmatrix.obj
 0002:00019180       ?FastSqrt@@YAMM@Z          1006c180 f i mathlib:vmatrix.obj
 0002:000191b0       ?LengthSqr@Vector@@QBEMXZ  1006c1b0 f i mathlib:vmatrix.obj
 0002:000191d0       ?Init@Vector@@QAEXMMM@Z    1006c1d0 f i mathlib:vmatrix.obj
 0002:00019200       ??AVector@@QAEAAMH@Z       1006c200 f i mathlib:vmatrix.obj
 0002:00019210       ?VectorCopy@@YAXABVVector@@AAV1@@Z 1006c210 f i mathlib:vmatrix.obj
 0002:00019230       ??XVector@@QAEAAV0@M@Z     1006c230 f i mathlib:vmatrix.obj
 0002:00019270       ??_0Vector@@QAEAAV0@M@Z    1006c270 f i mathlib:vmatrix.obj
 0002:000192c0       ?VectorSubtract@@YAXABVVector@@0AAV1@@Z 1006c2c0 f i mathlib:vmatrix.obj
 0002:00019310       ?VectorMultiply@@YAXABVVector@@MAAV1@@Z 1006c310 f i mathlib:vmatrix.obj
 0002:00019360       ?DotProduct@@YAMABVVector@@0@Z 1006c360 f i mathlib:vmatrix.obj
 0002:00019390       ?Dot@Vector@@QBEMABV1@@Z   1006c390 f i mathlib:vmatrix.obj
 0002:000193c0       ?CrossProduct@@YAXABVVector@@0AAV1@@Z 1006c3c0 f i mathlib:vmatrix.obj
 0002:00019440       ?VectorLength@@YAMABVVector@@@Z 1006c440 f i mathlib:vmatrix.obj
 0002:000194a0       ?Length@Vector@@QBEMXZ     1006c4a0 f i mathlib:vmatrix.obj
 0002:00019500       ??GVector@@QBE?AV0@XZ      1006c500 f i mathlib:vmatrix.obj
 0002:00019540       ??DVector@@QBE?AV0@M@Z     1006c540 f i mathlib:vmatrix.obj
 0002:00019590       ?Cross@Vector@@QBE?AV1@ABV1@@Z 1006c590 f i mathlib:vmatrix.obj
 0002:00019610       ??AQAngle@@QAEAAMH@Z       1006c610 f i mathlib:vmatrix.obj
 0002:00019620       ??AQAngle@@QBEMH@Z         1006c620 f i mathlib:vmatrix.obj
 0002:00019630       ??0VPlane@@QAE@XZ          1006c630 f i mathlib:vmatrix.obj
 0002:00019640       ?GetPointOnPlane@VPlane@@QBE?AVVector@@XZ 1006c640 f i mathlib:vmatrix.obj
 0002:00019690       ?AsVector3D@Vector4D@@QAEAAVVector@@XZ 1006c690 f i mathlib:vmatrix.obj
 0002:000196a0       ?Vector4DCopy@@YAXABVVector4D@@AAV1@@Z 1006c6a0 f i mathlib:vmatrix.obj
 0002:000196d0       ?Base@matrix3x4_t@@QAEPAMXZ 1006c6d0 f i mathlib:vmatrix.obj
 0002:000196e0       ?Base@matrix3x4_t@@QBEPBMXZ 1006c6e0 f i mathlib:vmatrix.obj
 0002:000196f0       ?VectorMAInline@@YAXABVVector@@M0AAV1@@Z 1006c6f0 f i mathlib:vmatrix.obj
 0002:00019750       ?VectorMA@@YAXABVVector@@M0AAV1@@Z 1006c750 f i mathlib:vmatrix.obj
 0002:000197b0       ?SinCos@@YAXMPAM0@Z        1006c7b0 f i mathlib:vmatrix.obj
 0002:000197d0       ?Init@VMatrix@@QAEXMMMMMMMMMMMMMMMM@Z 1006c7d0 f i mathlib:vmatrix.obj
 0002:000198b0       ?SetForward@VMatrix@@QAEXABVVector@@@Z 1006c8b0 f i mathlib:vmatrix.obj
 0002:000198d0       ?SetLeft@VMatrix@@QAEXABVVector@@@Z 1006c8d0 f i mathlib:vmatrix.obj
 0002:000198f0       ?SetUp@VMatrix@@QAEXABVVector@@@Z 1006c8f0 f i mathlib:vmatrix.obj
 0002:00019910       ?GetBasisVectors@VMatrix@@QBEXAAVVector@@00@Z 1006c910 f i mathlib:vmatrix.obj
 0002:00019980       ?SetBasisVectors@VMatrix@@QAEXABVVector@@00@Z 1006c980 f i mathlib:vmatrix.obj
 0002:000199e0       ?GetTranslation@VMatrix@@QBEAAVVector@@AAV2@@Z 1006c9e0 f i mathlib:vmatrix.obj
 0002:00019a00       ?SetTranslation@VMatrix@@QAEXABVVector@@@Z 1006ca00 f i mathlib:vmatrix.obj
 0002:00019a20       ?As3x4@VMatrix@@QAEAAUmatrix3x4_t@@XZ 1006ca20 f i mathlib:vmatrix.obj
 0002:00019a30       ?CopyFrom3x4@VMatrix@@QAEXABUmatrix3x4_t@@@Z 1006ca30 f i mathlib:vmatrix.obj
 0002:00019ab0       ?Set3x4@VMatrix@@QBEXAAUmatrix3x4_t@@@Z 1006cab0 f i mathlib:vmatrix.obj
 0002:00019b10       ?MatrixSetColumn@@YAXAAVVMatrix@@HABVVector@@@Z 1006cb10 f i mathlib:vmatrix.obj
 0002:00019b40       ?SetupMatrixProjection@@YA?AVVMatrix@@ABVVector@@ABVVPlane@@@Z 1006cb40 f   mathlib:vmatrix.obj
 0002:00019d00       ??4VMatrix@@QAEAAV0@ABV0@@Z 1006cd00 f   mathlib:vmatrix.obj
 0002:00019d80       ??8VMatrix@@QBE_NABV0@@Z   1006cd80 f   mathlib:vmatrix.obj
 0002:00019e50       ?MatrixMul@VMatrix@@QBEXABV1@AAV1@@Z 1006ce50 f   mathlib:vmatrix.obj
 0002:0001a640       ??DVMatrix@@QBE?AV0@ABV0@@Z 1006d640 f   mathlib:vmatrix.obj
 0002:0001a660       ?MatrixInverseGeneral@@YA_NABVVMatrix@@AAV1@@Z 1006d660 f   mathlib:vmatrix.obj
 0002:0001aa40       ?GetScale@VMatrix@@QBE?AVVector@@XZ 1006da40 f   mathlib:vmatrix.obj
 0002:0001ab50       ?NormalizeBasisVectors@VMatrix@@QBE?AV1@XZ 1006db50 f   mathlib:vmatrix.obj
 0002:0001acb0       ?IsRotationMatrix@VMatrix@@QBE_NXZ 1006dcb0 f   mathlib:vmatrix.obj
 0002:0001aee0       ?SetupMatrixOrgAngles@VMatrix@@QAEXABVVector@@ABVQAngle@@@Z 1006dee0 f   mathlib:vmatrix.obj
 0002:0001b100       ?MatrixSetIdentity@@YAXAAVVMatrix@@@Z 1006e100 f   mathlib:vmatrix.obj
 0002:0001b180       ?MatrixFromAngles@@YAXABVQAngle@@AAVVMatrix@@@Z 1006e180 f   mathlib:vmatrix.obj
 0002:0001b1a0       ?MatrixToAngles@@YAXABVVMatrix@@AAVQAngle@@@Z 1006e1a0 f   mathlib:vmatrix.obj
 0002:0001b330       ?Swap@@YAXAAM0@Z           1006e330 f i mathlib:vmatrix.obj
 0002:0001b350       ?MatrixTranspose@@YAXABVVMatrix@@AAV1@@Z 1006e350 f   mathlib:vmatrix.obj
 0002:0001b450       ?MatrixCopy@@YAXABVVMatrix@@AAV1@@Z 1006e450 f   mathlib:vmatrix.obj
 0002:0001b470       ?MatrixMultiply@@YAXABVVMatrix@@0AAV1@@Z 1006e470 f   mathlib:vmatrix.obj
 0002:0001b970       ?Vector4DMultiply@@YAXABVVMatrix@@ABVVector4D@@AAV2@@Z 1006e970 f   mathlib:vmatrix.obj
 0002:0001bae0       ?Vector4DMultiplyPosition@@YAXABVVMatrix@@ABVVector@@AAVVector4D@@@Z 1006eae0 f   mathlib:vmatrix.obj
 0002:0001bc30       ?Vector3DMultiply@@YAXABVVMatrix@@ABVVector@@AAV2@@Z 1006ec30 f   mathlib:vmatrix.obj
 0002:0001bd30       ?Vector3DMultiplyPositionProjective@@YAXABVVMatrix@@ABVVector@@AAV2@@Z 1006ed30 f   mathlib:vmatrix.obj
 0002:0001bec0       ?Vector3DMultiplyProjective@@YAXABVVMatrix@@ABVVector@@AAV2@@Z 1006eec0 f   mathlib:vmatrix.obj
 0002:0001c070       ?Vector4DMultiplyTranspose@@YAXABVVMatrix@@ABVVector4D@@AAV2@@Z 1006f070 f   mathlib:vmatrix.obj
 0002:0001c1f0       ?Vector3DMultiplyTranspose@@YAXABVVMatrix@@ABVVector@@AAV2@@Z 1006f1f0 f   mathlib:vmatrix.obj
 0002:0001c2f0       ?MatrixTransformPlane@@YAXABVVMatrix@@ABUcplane_t@@AAU2@@Z 1006f2f0 f   mathlib:vmatrix.obj
 0002:0001c470       ?MatrixBuildTranslation@@YAXAAVVMatrix@@MMM@Z 1006f470 f   mathlib:vmatrix.obj
 0002:0001c500       ?MatrixBuildTranslation@@YAXAAVVMatrix@@ABVVector@@@Z 1006f500 f   mathlib:vmatrix.obj
 0002:0001c5a0       ?MatrixBuildRotationAboutAxis@@YAXAAVVMatrix@@ABVVector@@M@Z 1006f5a0 f   mathlib:vmatrix.obj
 0002:0001c5f0       ?MatrixBuildRotation@@YAXAAVVMatrix@@ABVVector@@1@Z 1006f5f0 f   mathlib:vmatrix.obj
 0002:0001c910       ?MatrixBuildRotateZ@@YAXAAVVMatrix@@M@Z 1006f910 f   mathlib:vmatrix.obj
 0002:0001c9f0       ?MatrixBuildScale@@YAXAAVVMatrix@@MMM@Z 1006f9f0 f   mathlib:vmatrix.obj
 0002:0001ca80       ?MatrixBuildScale@@YAXAAVVMatrix@@ABVVector@@@Z 1006fa80 f   mathlib:vmatrix.obj
 0002:0001cb70       ?CalculateAABBFromProjectionMatrixInverse@@YAXABVVMatrix@@PAVVector@@1@Z 1006fb70 f   mathlib:vmatrix.obj
 0002:0001cdd0       ?CalculateAABBFromProjectionMatrix@@YAXABVVMatrix@@PAVVector@@1@Z 1006fdd0 f   mathlib:vmatrix.obj
 0002:0001cf40       ?FrustumPlanesFromMatrix@@YAXABVVMatrix@@AAVFrustum_t@@@Z 1006ff40 f   mathlib:vmatrix.obj
 0002:0001d910       ?MatrixBuildOrtho@@YAXAAVVMatrix@@NNNNNN@Z 10070910 f   mathlib:vmatrix.obj
 0002:0001da40       ?MatrixBuildPerspectiveX@@YAXAAVVMatrix@@NNNN@Z 10070a40 f   mathlib:vmatrix.obj
 0002:0001db80       ?MatrixBuildPerspectiveOffCenterX@@YAXAAVVMatrix@@NNNNNNNN@Z 10070b80 f   mathlib:vmatrix.obj
 0002:0001ddd0       ?DistToSqr@Vector@@QBEMABV1@@Z 10070dd0 f i mathlib:vmatrix.obj
 0002:0001de00       ??0VMatrix@@QAE@MMMMMMMMMMMMMMMM@Z 10070e00 f i mathlib:vmatrix.obj
 0002:0001def0       ?TransformPlane@VMatrix@@QBEXABVVPlane@@AAV2@@Z 10070ef0 f i mathlib:vmatrix.obj
 0002:0001e070       ?Identity@VMatrix@@QAEXXZ  10071070 f i mathlib:vmatrix.obj
 0002:0001e0f0       ?SetupMatrixIdentity@@YA?AVVMatrix@@XZ 100710f0 f   mathlib:vmatrix.obj
 0002:0001e170       ?SetupMatrixTranslation@@YA?AVVMatrix@@ABVVector@@@Z 10071170 f   mathlib:vmatrix.obj
 0002:0001e1f0       ?SetupMatrixScale@@YA?AVVMatrix@@ABVVector@@@Z 100711f0 f   mathlib:vmatrix.obj
 0002:0001e270       ?SetupMatrixReflection@@YA?AVVMatrix@@ABVVPlane@@@Z 10071270 f   mathlib:vmatrix.obj
 0002:0001e570       ?SetupMatrixAxisRot@@YA?AVVMatrix@@ABVVector@@M@Z 10071570 f   mathlib:vmatrix.obj
 0002:0001e730       ?SetupMatrixAxisToAxisRot@@YA?AVVMatrix@@ABVVector@@0@Z 10071730 f   mathlib:vmatrix.obj
 0002:0001e9e0       ?SetupMatrixAngles@@YA?AVVMatrix@@ABVQAngle@@@Z 100719e0 f   mathlib:vmatrix.obj
 0002:0001ea00       ?SetupMatrixOrgAngles@@YA?AVVMatrix@@ABVVector@@ABVQAngle@@@Z 10071a00 f   mathlib:vmatrix.obj
 0002:0001ea20       ?InverseGeneral@VMatrix@@QBE_NAAV1@@Z 10071a20 f   mathlib:vmatrix.obj
 0002:0001ea40       ?MatrixInverseTR@@YAXABVVMatrix@@AAV1@@Z 10071a40 f   mathlib:vmatrix.obj
 0002:0001eb70       ?InverseTR@VMatrix@@QBEXAAV1@@Z 10071b70 f   mathlib:vmatrix.obj
 0002:0001eb90       ?MatrixInverseTranspose@@YAXABVVMatrix@@AAV1@@Z 10071b90 f   mathlib:vmatrix.obj
 0002:0001ebc0       ?MatrixInverseTranspose@@YAXABUmatrix3x4_t@@AAU1@@Z 10071bc0 f   mathlib:vmatrix.obj
 0002:0001ece0       ?InverseTR@VMatrix@@QBE?AV1@XZ 10071ce0 f   mathlib:vmatrix.obj
 0002:0001ed00       ?Scale@VMatrix@@QAE?AV1@ABVVector@@@Z 10071d00 f   mathlib:vmatrix.obj
 0002:0001ee20       ?Transpose@VMatrix@@QBE?AV1@XZ 10071e20 f   mathlib:vmatrix.obj
 0002:0001eea0       ?Transpose3x3@VMatrix@@QBE?AV1@XZ 10071ea0 f   mathlib:vmatrix.obj
 0002:0001ef20       ??DVMatrix@@QBE?AVVPlane@@ABV1@@Z 10071f20 f   mathlib:vmatrix.obj
 0002:0001ef40       ?MatrixBuildPerspective@@YAXAAVVMatrix@@MMMM@Z 10071f40 f   mathlib:vmatrix.obj
 0002:0001f210       ?CalculateSphereFromProjectionMatrixInverse@@YAXABVVMatrix@@PAVVector@@PAM@Z 10072210 f   mathlib:vmatrix.obj
 0002:0001f480       ?CalculateSphereFromProjectionMatrix@@YAXABVVMatrix@@PAVVector@@PAM@Z 10072480 f   mathlib:vmatrix.obj
 0002:0001f4c0       ?PlaneIntersection@@YA_NABVVPlane@@00AAVVector@@@Z 100724c0 f   mathlib:vmatrix.obj
 0002:0001f630       _fabsf                     10072630 f i mathlib:mathlib_base.obj
 0002:0001f640       _asinf                     10072640 f i mathlib:mathlib_base.obj
 0002:0001f650       _atanf                     10072650 f i mathlib:mathlib_base.obj
 0002:0001f660       _expf                      10072660 f i mathlib:mathlib_base.obj
 0002:0001f690       _logf                      10072690 f i mathlib:mathlib_base.obj
 0002:0001f6a0       ?asin@@YAMM@Z              100726a0 f i mathlib:mathlib_base.obj
 0002:0001f6b0       ?atan@@YAMM@Z              100726b0 f i mathlib:mathlib_base.obj
 0002:0001f6c0       ?atan2@@YAMMM@Z            100726c0 f i mathlib:mathlib_base.obj
 0002:0001f6d0       ?exp@@YAMM@Z               100726d0 f i mathlib:mathlib_base.obj
 0002:0001f700       ?fabs@@YAMM@Z              10072700 f i mathlib:mathlib_base.obj
 0002:0001f710       ?log@@YAMM@Z               10072710 f i mathlib:mathlib_base.obj
 0002:0001f720       ?tan@@YAMM@Z               10072720 f i mathlib:mathlib_base.obj
 0002:0001f730       ?FastRSqrtFast@@YAMM@Z     10072730 f i mathlib:mathlib_base.obj
 0002:0001f760       ?FastRSqrt@@YAMM@Z         10072760 f i mathlib:mathlib_base.obj
 0002:0001f7b0       ??0Vector2D@@QAE@XZ        100727b0 f i mathlib:mathlib_base.obj
 0002:0001f7c0       ?Vector2DSubtract@@YAXABVVector2D@@0AAV1@@Z 100727c0 f i mathlib:mathlib_base.obj
 0002:0001f800       ?MulAdd@Vector2D@@QAEXABV1@0M@Z 10072800 f i mathlib:mathlib_base.obj
 0002:0001f850       ?DotProduct2D@@YAMABVVector2D@@0@Z 10072850 f i mathlib:mathlib_base.obj
 0002:0001f870       ?Dot@Vector2D@@QBEMABV1@@Z 10072870 f i mathlib:mathlib_base.obj
 0002:0001f890       ?Vector2DLength@@YAMABVVector2D@@@Z 10072890 f i mathlib:mathlib_base.obj
 0002:0001f8e0       ?LengthSqr@Vector2D@@QBEMXZ 100728e0 f i mathlib:mathlib_base.obj
 0002:0001f900       ?Length@Vector2D@@QBEMXZ   10072900 f i mathlib:mathlib_base.obj
 0002:0001f950       ?DistTo@Vector2D@@QBEMABV1@@Z 10072950 f i mathlib:mathlib_base.obj
 0002:0001f9b0       ?DistToSqr@Vector2D@@QBEMABV1@@Z 100729b0 f i mathlib:mathlib_base.obj
 0002:0001f9d0       ??ZVector@@QAEAAV0@ABV0@@Z 100729d0 f i mathlib:mathlib_base.obj
 0002:0001fa10       ?VectorAdd@@YAXABVVector@@0AAV1@@Z 10072a10 f i mathlib:mathlib_base.obj
 0002:0001fa60       ?VectorScale@@YAXABVVector@@MAAV1@@Z 10072a60 f i mathlib:mathlib_base.obj
 0002:0001fab0       ?VectorDivide@@YAXABVVector@@MAAV1@@Z 10072ab0 f i mathlib:mathlib_base.obj
 0002:0001fb00       ?MulAdd@Vector@@QAEXABV1@0M@Z 10072b00 f i mathlib:mathlib_base.obj
 0002:0001fb60       ?VectorLerp@@YAXABVVector@@0MAAV1@@Z 10072b60 f i mathlib:mathlib_base.obj
 0002:0001fbe0       ?DotProductAbs@@YAMABVVector@@PBM@Z 10072be0 f i mathlib:mathlib_base.obj
 0002:0001fc10       ?DistTo@Vector@@QBEMABV1@@Z 10072c10 f i mathlib:mathlib_base.obj
 0002:0001fc80       ??HVector@@QBE?AV0@ABV0@@Z 10072c80 f i mathlib:mathlib_base.obj
 0002:0001fcd0       ??GVector@@QBE?AV0@ABV0@@Z 10072cd0 f i mathlib:mathlib_base.obj
 0002:0001fd20       ??KVector@@QBE?AV0@M@Z     10072d20 f i mathlib:mathlib_base.obj
 0002:0001fd70       ??D@YA?AVVector@@MABV0@@Z  10072d70 f i mathlib:mathlib_base.obj
 0002:0001fdc0       ?CrossProduct@@YA?AVVector@@ABV1@0@Z 10072dc0 f i mathlib:mathlib_base.obj
 0002:0001fe40       ??0Quaternion@@QAE@XZ      10072e40 f i mathlib:mathlib_base.obj
 0002:0001fe50       ??0Quaternion@@QAE@MMMM@Z  10072e50 f i mathlib:mathlib_base.obj
 0002:0001fe90       ?Init@Quaternion@@QAEXMMMM@Z 10072e90 f i mathlib:mathlib_base.obj
 0002:0001fed0       ??AQuaternion@@QAEAAMH@Z   10072ed0 f i mathlib:mathlib_base.obj
 0002:0001fee0       ??AQuaternion@@QBEMH@Z     10072ee0 f i mathlib:mathlib_base.obj
 0002:0001fef0       ?Init@RadianEuler@@QAEXMMM@Z 10072ef0 f i mathlib:mathlib_base.obj
 0002:0001ff20       ??0QAngle@@QAE@XZ          10072f20 f i mathlib:mathlib_base.obj
 0002:0001ff30       ??0QAngle@@QAE@MMM@Z       10072f30 f i mathlib:mathlib_base.obj
 0002:0001ff60       ??4QAngle@@QAEAAV0@ABV0@@Z 10072f60 f i mathlib:mathlib_base.obj
 0002:0001ff80       ?VectorNormalizeFast@@YAXAAVVector@@@Z 10072f80 f i mathlib:mathlib_base.obj
 0002:00020040       ??0matrix3x4_t@@QAE@XZ     10073040 f i mathlib:mathlib_base.obj
 0002:00020050       ??Amatrix3x4_t@@QAEPAMH@Z  10073050 f i mathlib:mathlib_base.obj
 0002:00020060       ??Amatrix3x4_t@@QBEPBMH@Z  10073060 f i mathlib:mathlib_base.obj
 0002:00020070       ?DotProduct@@YAMPBM0@Z     10073070 f i mathlib:mathlib_base.obj
 0002:000200a0       ?VectorScale@@YAXPBMMPAM@Z 100730a0 f i mathlib:mathlib_base.obj
 0002:000200f0       ?anglemod@@YAMM@Z          100730f0 f i mathlib:mathlib_base.obj
 0002:00020120       ?RemapVal@@YAMMMMMM@Z      10073120 f i mathlib:mathlib_base.obj
 0002:000201e0       ?Floor2Int@@YAHM@Z         100731e0 f i mathlib:mathlib_base.obj
 0002:00020220       ?Init@VPlane@@QAEXABVVector@@M@Z 10073220 f i mathlib:mathlib_base.obj
 0002:00020250       ?StoreAlignedSIMD@@YAXPIAMABT__m128@@@Z 10073250 f i mathlib:mathlib_base.obj
 0002:00020270       ?StoreUnalignedSIMD@@YAXPIAMABT__m128@@@Z 10073270 f i mathlib:mathlib_base.obj
 0002:00020290       ?LoadAlignedSIMD@@YA?AT__m128@@PBX@Z 10073290 f i mathlib:mathlib_base.obj
 0002:000202b0       ?AndSIMD@@YA?AT__m128@@ABT1@0@Z 100732b0 f i mathlib:mathlib_base.obj
 0002:000202d0       ?AndNotSIMD@@YA?AT__m128@@ABT1@0@Z 100732d0 f i mathlib:mathlib_base.obj
 0002:000202f0       ?OrSIMD@@YA?AT__m128@@ABT1@0@Z 100732f0 f i mathlib:mathlib_base.obj
 0002:00020310       ?LoadUnalignedSIMD@@YA?AT__m128@@PBX@Z 10073310 f i mathlib:mathlib_base.obj
 0002:00020330       ?SubFloat@@YAMABT__m128@@H@Z 10073330 f i mathlib:mathlib_base.obj
 0002:00020340       ?SubFloat@@YAAAMAAT__m128@@H@Z 10073340 f i mathlib:mathlib_base.obj
 0002:00020350       ?MaskedAssign@@YA?AT__m128@@ABT1@00@Z 10073350 f i mathlib:mathlib_base.obj
 0002:00020380       ?SplatXSIMD@@YA?AT__m128@@ABT1@@Z 10073380 f i mathlib:mathlib_base.obj
 0002:000203a0       ?SplatYSIMD@@YA?AT__m128@@ABT1@@Z 100733a0 f i mathlib:mathlib_base.obj
 0002:000203c0       ?SplatZSIMD@@YA?AT__m128@@ABT1@@Z 100733c0 f i mathlib:mathlib_base.obj
 0002:000203e0       ?AddSIMD@@YA?AT__m128@@ABT1@0@Z 100733e0 f i mathlib:mathlib_base.obj
 0002:00020400       ?MulSIMD@@YA?AT__m128@@ABT1@0@Z 10073400 f i mathlib:mathlib_base.obj
 0002:00020420       ?TestSignSIMD@@YAHABT__m128@@@Z 10073420 f i mathlib:mathlib_base.obj
 0002:00020440       ?IsAnyNegative@@YA_NABT__m128@@@Z 10073440 f i mathlib:mathlib_base.obj
 0002:00020460       ?CmpLtSIMD@@YA?AT__m128@@ABT1@0@Z 10073460 f i mathlib:mathlib_base.obj
 0002:00020480       ?TransposeSIMD@@YAXAAT__m128@@000@Z 10073480 f i mathlib:mathlib_base.obj
 0002:00020500       ?fabs@@YA?AT__m128@@ABT1@@Z 10073500 f i mathlib:mathlib_base.obj
 0002:00020520       ?_sqrtf@@YAMM@Z            10073520 f   mathlib:mathlib_base.obj
 0002:00020530       ?_rsqrtf@@YAMM@Z           10073530 f   mathlib:mathlib_base.obj
 0002:00020540       ?VectorNormalize@@YAMAAVVector@@@Z 10073540 f   mathlib:mathlib_base.obj
 0002:000205d0       ?_VectorNormalizeFast@@YIXAAVVector@@@Z 100735d0 f   mathlib:mathlib_base.obj
 0002:00020650       ?_InvRSquared@@YAMPBM@Z    10073650 f   mathlib:mathlib_base.obj
 0002:000206b0       ?InitSinCosTable@@YAXXZ    100736b0 f   mathlib:mathlib_base.obj
 0002:000206f0       ?VectorsEqual@@YAHPBM0@Z   100736f0 f   mathlib:mathlib_base.obj
 0002:00020740       ?MatrixAngles@@YAXABUmatrix3x4_t@@PAM@Z 10073740 f   mathlib:mathlib_base.obj
 0002:000208d0       ?VectorTransform@@YAXPBMABUmatrix3x4_t@@PAM@Z 100738d0 f   mathlib:mathlib_base.obj
 0002:000209a0       ?VectorITransform@@YAXPBMABUmatrix3x4_t@@PAM@Z 100739a0 f   mathlib:mathlib_base.obj
 0002:00020a70       ?VectorRotate@@YAXPBMABUmatrix3x4_t@@PAM@Z 10073a70 f   mathlib:mathlib_base.obj
 0002:00020b30       ?VectorIRotate@@YAXPBMABUmatrix3x4_t@@PAM@Z 10073b30 f   mathlib:mathlib_base.obj
 0002:00020bf0       ?MatrixCopy@@YAXABUmatrix3x4_t@@AAU1@@Z 10073bf0 f   mathlib:mathlib_base.obj
 0002:00020c50       ?MatricesAreEqual@@YA_NABUmatrix3x4_t@@0M@Z 10073c50 f   mathlib:mathlib_base.obj
 0002:00020cc0       ?MatrixGetColumn@@YAXABUmatrix3x4_t@@HAAVVector@@@Z 10073cc0 f   mathlib:mathlib_base.obj
 0002:00020cf0       ?MatrixSetColumn@@YAXABVVector@@HAAUmatrix3x4_t@@@Z 10073cf0 f   mathlib:mathlib_base.obj
 0002:00020d20       ?VectorCompare@@YAHPBM0@Z  10073d20 f   mathlib:mathlib_base.obj
 0002:00020d70       ?CrossProduct@@YAXPBM0PAM@Z 10073d70 f   mathlib:mathlib_base.obj
 0002:00020df0       ?Q_log2@@YAII@Z            10073df0 f   mathlib:mathlib_base.obj
 0002:00020e10       ?MatrixVectors@@YAXABUmatrix3x4_t@@PAVVector@@11@Z 10073e10 f   mathlib:mathlib_base.obj
 0002:00020ea0       ?VectorVectors@@YAXABVVector@@AAV1@1@Z 10073ea0 f   mathlib:mathlib_base.obj
 0002:000210e0       ?VectorMatrix@@YAXABVVector@@AAUmatrix3x4_t@@@Z 100740e0 f   mathlib:mathlib_base.obj
 0002:00021190       ?VectorAngles@@YAXPBMPAM@Z 10074190 f   mathlib:mathlib_base.obj
 0002:00021300       ?ConcatRotations@@YAXQAY02$$CBM0QAY02M@Z 10074300 f   mathlib:mathlib_base.obj
 0002:000214f0       ?ConcatTransforms_Aligned@@YAXABVmatrix3x4a_t@@0AAV1@@Z 100744f0 f   mathlib:mathlib_base.obj
 0002:000215f0       ?ConcatTransforms@@YAXABUmatrix3x4_t@@0AAU1@@Z 100745f0 f   mathlib:mathlib_base.obj
 0002:000216f0       ?FloorDivMod@@YAXNNPAH0@Z  100746f0 f   mathlib:mathlib_base.obj
 0002:000218e0       ?GreatestCommonDivisor@@YAHHH@Z 100748e0 f   mathlib:mathlib_base.obj
 0002:00021920       ?IsDenormal@@YA_NABM@Z     10074920 f   mathlib:mathlib_base.obj
 0002:00021950       ?SignbitsForPlane@@YAHPAUcplane_t@@@Z 10074950 f   mathlib:mathlib_base.obj
 0002:00021980       ?BoxOnPlaneSide@@YAHPBM0PBUcplane_t@@@Z 10074980 f   mathlib:mathlib_base.obj
 0002:00021d30       ?AngleVectors@@YAXABVQAngle@@PAVVector@@@Z 10074d30 f   mathlib:mathlib_base.obj
 0002:00021e00       ?AngleVectors@@YAXABVQAngle@@PAVVector@@11@Z 10074e00 f   mathlib:mathlib_base.obj
 0002:00022000       ?AngleVectorsTranspose@@YAXABVQAngle@@PAVVector@@11@Z 10075000 f   mathlib:mathlib_base.obj
 0002:000221f0       ?VectorAngles@@YAXABVVector@@AAVQAngle@@@Z 100751f0 f   mathlib:mathlib_base.obj
 0002:00022360       ?VectorAngles@@YAXABVVector@@0AAVQAngle@@@Z 10075360 f   mathlib:mathlib_base.obj
 0002:000225e0       ?SetIdentityMatrix@@YAXAAUmatrix3x4_t@@@Z 100755e0 f   mathlib:mathlib_base.obj
 0002:00022620       ?SetScaleMatrix@@YAXMMMAAUmatrix3x4_t@@@Z 10075620 f   mathlib:mathlib_base.obj
 0002:00022690       ?MatrixBuildRotationAboutAxis@@YAXABVVector@@MAAUmatrix3x4_t@@@Z 10075690 f   mathlib:mathlib_base.obj
 0002:00022860       ?MatrixTranspose@@YAXAAUmatrix3x4_t@@@Z 10075860 f   mathlib:mathlib_base.obj
 0002:000228b0       ?MatrixTranspose@@YAXABUmatrix3x4_t@@AAU1@@Z 100758b0 f   mathlib:mathlib_base.obj
 0002:00022920       ?AngleMatrix@@YAXABVQAngle@@AAUmatrix3x4_t@@@Z 10075920 f   mathlib:mathlib_base.obj
 0002:00022b00       ?AngleIMatrix@@YAXABVQAngle@@AAUmatrix3x4_t@@@Z 10075b00 f   mathlib:mathlib_base.obj
 0002:00022ce0       ?ClearBounds@@YAXAAVVector@@0@Z 10075ce0 f   mathlib:mathlib_base.obj
 0002:00022d30       ?AddPointToBounds@@YAXABVVector@@AAV1@1@Z 10075d30 f   mathlib:mathlib_base.obj
 0002:00022db0       ?AreBoundsValid@@YA_NABVVector@@0@Z 10075db0 f   mathlib:mathlib_base.obj
 0002:00022df0       ?IsPointInBounds@@YA_NABVVector@@00@Z 10075df0 f   mathlib:mathlib_base.obj
 0002:00022e40       ?SolveQuadratic@@YA_NMMMAAM0@Z 10075e40 f   mathlib:mathlib_base.obj
 0002:00022f50       ?SolveInverseQuadratic@@YA_NMMMMMMAAM00@Z 10075f50 f   mathlib:mathlib_base.obj
 0002:000230e0       ?SolveInverseReciprocalQuadratic@@YA_NMMMMMMAAM00@Z 100760e0 f   mathlib:mathlib_base.obj
 0002:000232c0       ?VectorYawRotate@@YAXABVVector@@MAAV1@@Z 100762c0 f   mathlib:mathlib_base.obj
 0002:000233c0       ?Bias@@YAMMM@Z             100763c0 f   mathlib:mathlib_base.obj
 0002:00023420       ?Gain@@YAMMM@Z             10076420 f   mathlib:mathlib_base.obj
 0002:00023500       ?SmoothCurve@@YAMM@Z       10076500 f   mathlib:mathlib_base.obj
 0002:00023520       ?MovePeak@@YAMMM@Z         10076520 f i mathlib:mathlib_base.obj
 0002:00023570       ?SmoothCurve_Tweak@@YAMMMM@Z 10076570 f   mathlib:mathlib_base.obj
 0002:00023610       ?QuaternionAlign@@YAXABVQuaternion@@0AAV1@@Z 10076610 f   mathlib:mathlib_base.obj
 0002:00023780       ?QuaternionSlerpNoAlign@@YAXABVQuaternion@@0MAAV1@@Z 10076780 f   mathlib:mathlib_base.obj
 0002:00023a50       ?QuaternionConjugate@@YAXABVQuaternion@@AAV1@@Z 10076a50 f   mathlib:mathlib_base.obj
 0002:00023aa0       ?QuaternionNormalize@@YAMAAVQuaternion@@@Z 10076aa0 f   mathlib:mathlib_base.obj
 0002:00023b70       ?QuaternionScale@@YAXABVQuaternion@@MAAV1@@Z 10076b70 f   mathlib:mathlib_base.obj
 0002:00023cb0       ?QuaternionAdd@@YAXABVQuaternion@@0AAV1@@Z 10076cb0 f   mathlib:mathlib_base.obj
 0002:00023d30       ?QuaternionDotProduct@@YAMABVQuaternion@@0@Z 10076d30 f   mathlib:mathlib_base.obj
 0002:00023d60       ?QuaternionMult@@YAXABVQuaternion@@0AAV1@@Z 10076d60 f   mathlib:mathlib_base.obj
 0002:00023ef0       ?QuaternionExp@@YAXABVQuaternion@@AAV1@@Z 10076ef0 f   mathlib:mathlib_base.obj
 0002:00023ff0       ?QuaternionLn@@YAXABVQuaternion@@AAV1@@Z 10076ff0 f   mathlib:mathlib_base.obj
 0002:00024120       ?QuaternionAverageExponential@@YAXAAVQuaternion@@HPBV1@PBM@Z 10077120 f   mathlib:mathlib_base.obj
 0002:000246b0       ?QuaternionMatrix@@YAXABVQuaternion@@AAUmatrix3x4_t@@@Z 100776b0 f   mathlib:mathlib_base.obj
 0002:000248d0       ?QuaternionAxisAngle@@YAXABVQuaternion@@AAVVector@@AAM@Z 100778d0 f   mathlib:mathlib_base.obj
 0002:000249c0       ?AxisAngleQuaternion@@YAXABVVector@@MAAVQuaternion@@@Z 100779c0 f   mathlib:mathlib_base.obj
 0002:00024a70       ?AngleQuaternion@@YAXABVRadianEuler@@AAVQuaternion@@@Z 10077a70 f   mathlib:mathlib_base.obj
 0002:00024bf0       ?AngleQuaternion@@YAXABVQAngle@@AAVQuaternion@@@Z 10077bf0 f   mathlib:mathlib_base.obj
 0002:00024d90       ?Spline_Normalize@@YAXABVVector@@000AAV1@1@Z 10077d90 f   mathlib:mathlib_base.obj
 0002:00024f00       ?Catmull_Rom_Spline@@YAXABVVector@@000MAAV1@@Z 10077f00 f   mathlib:mathlib_base.obj
 0002:000252b0       ?Catmull_Rom_Spline_Tangent@@YAXABVVector@@000MAAV1@@Z 100782b0 f   mathlib:mathlib_base.obj
 0002:00025620       ?Catmull_Rom_Spline_Integral@@YAXABVVector@@000MAAV1@@Z 10078620 f   mathlib:mathlib_base.obj
 0002:00025b20       ?Catmull_Rom_Spline_Integral@@YAXABVVector@@000AAV1@@Z 10078b20 f   mathlib:mathlib_base.obj
 0002:00025c70       ?Catmull_Rom_Spline_Normalize@@YAXABVVector@@000MAAV1@@Z 10078c70 f   mathlib:mathlib_base.obj
 0002:00025eb0       ?Catmull_Rom_Spline_Integral_Normalize@@YAXABVVector@@000MAAV1@@Z 10078eb0 f   mathlib:mathlib_base.obj
 0002:000260f0       ?Catmull_Rom_Spline_NormalizeX@@YAXABVVector@@000MAAV1@@Z 100790f0 f   mathlib:mathlib_base.obj
 0002:00026160       ?Hermite_Spline@@YAXABVVector@@000MAAV1@@Z 10079160 f   mathlib:mathlib_base.obj
 0002:000262f0       ?Hermite_Spline@@YAMMMMMM@Z 100792f0 f   mathlib:mathlib_base.obj
 0002:000263a0       ?Hermite_SplineBasis@@YAXMQAM@Z 100793a0 f   mathlib:mathlib_base.obj
 0002:00026430       ?Hermite_Spline@@YAXABVVector@@00MAAV1@@Z 10079430 f   mathlib:mathlib_base.obj
 0002:00026520       ?Hermite_Spline@@YAMMMMM@Z 10079520 f   mathlib:mathlib_base.obj
 0002:000265d0       ?Hermite_Spline@@YAXABVQuaternion@@00MAAV1@@Z 100795d0 f   mathlib:mathlib_base.obj
 0002:00026780       ?Kochanek_Bartels_Spline@@YAXMMMABVVector@@000MAAV1@@Z 10079780 f   mathlib:mathlib_base.obj
 0002:00026cb0       ?Kochanek_Bartels_Spline_NormalizeX@@YAXMMMABVVector@@000MAAV1@@Z 10079cb0 f   mathlib:mathlib_base.obj
 0002:00026d40       ?Cubic_Spline@@YAXABVVector@@000MAAV1@@Z 10079d40 f   mathlib:mathlib_base.obj
 0002:00026ed0       ?Cubic_Spline_NormalizeX@@YAXABVVector@@000MAAV1@@Z 10079ed0 f   mathlib:mathlib_base.obj
 0002:00027090       ?BSpline@@YAXABVVector@@000MAAV1@@Z 1007a090 f   mathlib:mathlib_base.obj
 0002:00027460       ?BSpline_NormalizeX@@YAXABVVector@@000MAAV1@@Z 1007a460 f   mathlib:mathlib_base.obj
 0002:000274d0       ?Parabolic_Spline@@YAXABVVector@@000MAAV1@@Z 1007a4d0 f   mathlib:mathlib_base.obj
 0002:00027710       ?Parabolic_Spline_NormalizeX@@YAXABVVector@@000MAAV1@@Z 1007a710 f   mathlib:mathlib_base.obj
 0002:000279a0       ?CubicBasis0@@YAMM@Z       1007a9a0 f   mathlib:mathlib_base.obj
 0002:000279b0       ?CubicBasis1@@YAMM@Z       1007a9b0 f   mathlib:mathlib_base.obj
 0002:000279d0       ?CubicBasis2@@YAMM@Z       1007a9d0 f   mathlib:mathlib_base.obj
 0002:000279f0       ?CubicBasis3@@YAMM@Z       1007a9f0 f   mathlib:mathlib_base.obj
 0002:00027a00       ?RangeCompressor@@YAMMMMM@Z 1007aa00 f   mathlib:mathlib_base.obj
 0002:00027b70       ?CalcSqrDistanceToAABB@@YAMABVVector@@00@Z 1007ab70 f   mathlib:mathlib_base.obj
 0002:00027c80       ?CalcClosestPointOnAABB@@YAXABVVector@@00AAV1@@Z 1007ac80 f   mathlib:mathlib_base.obj
 0002:00027d20       ?CalcSqrDistAndClosestPointOnAABB@@YAXABVVector@@00AAV1@AAM@Z 1007ad20 f   mathlib:mathlib_base.obj
 0002:00027e70       ?CalcClosestPointToLineT@@YAMABVVector@@00AAV1@@Z 1007ae70 f   mathlib:mathlib_base.obj
 0002:00027f70       ?CalcClosestPointOnLine@@YAXABVVector@@00AAV1@PAM@Z 1007af70 f   mathlib:mathlib_base.obj
 0002:00028010       ?CalcDistanceToLine@@YAMABVVector@@00PAM@Z 1007b010 f   mathlib:mathlib_base.obj
 0002:000280f0       ?CalcClosestPointOnLineSegment@@YAXABVVector@@00AAV1@PAM@Z 1007b0f0 f   mathlib:mathlib_base.obj
 0002:000281b0       ?CalcDistanceToLineSegment@@YAMABVVector@@00PAM@Z 1007b1b0 f   mathlib:mathlib_base.obj
 0002:00028250       ?CalcClosestPointToLineT2D@@YAMABVVector2D@@00AAV1@@Z 1007b250 f   mathlib:mathlib_base.obj
 0002:00028300       ?CalcClosestPointOnLine2D@@YAXABVVector2D@@00AAV1@PAM@Z 1007b300 f   mathlib:mathlib_base.obj
 0002:000283d0       ?CalcDistanceToLine2D@@YAMABVVector2D@@00PAM@Z 1007b3d0 f   mathlib:mathlib_base.obj
 0002:000284d0       ?CalcDistanceSqrToLine2D@@YAMABVVector2D@@00PAM@Z 1007b4d0 f   mathlib:mathlib_base.obj
 0002:000285c0       ?CalcClosestPointOnLineSegment2D@@YAXABVVector2D@@00AAV1@PAM@Z 1007b5c0 f   mathlib:mathlib_base.obj
 0002:000286b0       ?CalcDistanceToLineSegment2D@@YAMABVVector2D@@00PAM@Z 1007b6b0 f   mathlib:mathlib_base.obj
 0002:000287d0       ?CalcDistanceSqrToLineSegment2D@@YAMABVVector2D@@00PAM@Z 1007b7d0 f   mathlib:mathlib_base.obj
 0002:000288e0       ?CalcLineToLineIntersectionSegment@@YA_NABVVector@@000PAV1@1PAM2@Z 1007b8e0 f   mathlib:mathlib_base.obj
 0002:00028c90       ?MathLib_Init@@YAXMMMH_N000@Z 1007bc90 f   mathlib:mathlib_base.obj
 0002:00028d60       ?MathLib_MMXEnabled@@YA_NXZ 1007bd60 f   mathlib:mathlib_base.obj
 0002:00028d70       ?MathLib_SSEEnabled@@YA_NXZ 1007bd70 f   mathlib:mathlib_base.obj
 0002:00028d80       ?MathLib_SSE2Enabled@@YA_NXZ 1007bd80 f   mathlib:mathlib_base.obj
 0002:00028d90       ?ApproachAngle@@YAMMMM@Z   1007bd90 f   mathlib:mathlib_base.obj
 0002:00028e90       ?AngleDiff@@YAMMM@Z        1007be90 f   mathlib:mathlib_base.obj
 0002:00028f10       ?AngleDistance@@YAMMM@Z    1007bf10 f   mathlib:mathlib_base.obj
 0002:00028f80       ?AngleNormalize@@YAMM@Z    1007bf80 f   mathlib:mathlib_base.obj
 0002:00029000       ?AngleNormalizePositive@@YAMM@Z 1007c000 f   mathlib:mathlib_base.obj
 0002:00029050       ?AnglesAreEqual@@YA_NMMM@Z 1007c050 f   mathlib:mathlib_base.obj
 0002:000290e0       ?RotationDeltaAxisAngle@@YAXABVQAngle@@0AAVVector@@AAM@Z 1007c0e0 f   mathlib:mathlib_base.obj
 0002:000293d0       ?ClipLineSegmentToPlane@@YAXABVVector@@0PAV1@1M@Z 1007c3d0 f   mathlib:mathlib_base.obj
 0002:00029690       ?ComputeTrianglePlane@@YAXABVVector@@00AAV1@AAM@Z 1007c690 f   mathlib:mathlib_base.obj
 0002:000297c0       ?TetrahedronVolume@@YAMABVVector@@000@Z 1007c7c0 f   mathlib:mathlib_base.obj
 0002:000298e0       ?TriangleArea@@YAMABVVector@@00@Z 1007c8e0 f   mathlib:mathlib_base.obj
 0002:000299c0       ?PolyFromPlane@@YAHPAVVector@@ABV1@MM@Z 1007c9c0 f   mathlib:mathlib_base.obj
 0002:00029d70       ?ClipPolyToPlane@@YAHPAVVector@@H0ABV1@MM@Z 1007cd70 f   mathlib:mathlib_base.obj
 0002:0002a1a0       ?ClipPolyToPlane_Precise@@YAHPANH0PBNNN@Z 1007d1a0 f   mathlib:mathlib_base.obj
 0002:0002a4d0       ?CeilPow2@@YAHH@Z          1007d4d0 f   mathlib:mathlib_base.obj
 0002:0002a4f0       ?FloorPow2@@YAHH@Z         1007d4f0 f   mathlib:mathlib_base.obj
 0002:0002a510       ?CalcFovY@@YAMMM@Z         1007d510 f   mathlib:mathlib_base.obj
 0002:0002a580       ?CalcFovX@@YAMMM@Z         1007d580 f   mathlib:mathlib_base.obj
 0002:0002a5b0       ?GeneratePerspectiveFrustum@@YAXABVVector@@000MMMMPAVVPlane@@@Z 1007d5b0 f   mathlib:mathlib_base.obj
 0002:0002aa30       ?GenerateOrthoFrustum@@YAXABVVector@@000MMMMMMPAVVPlane@@@Z 1007da30 f   mathlib:mathlib_base.obj
 0002:0002ac30       ?ComputeSignbits@fourplanes_t@@QAEXXZ 1007dc30 f   mathlib:mathlib_base.obj
 0002:0002acc0       ?GetPlane@fourplanes_t@@QBEXHPAVVector@@PAM@Z 1007dcc0 f   mathlib:mathlib_base.obj
 0002:0002ad00       ?SetPlane@fourplanes_t@@QAEXHABVVector@@M@Z 1007dd00 f   mathlib:mathlib_base.obj
 0002:0002ad40       ?Set4Planes@fourplanes_t@@QAEXPBVVPlane@@@Z 1007dd40 f   mathlib:mathlib_base.obj
 0002:0002ade0       ?Set2Planes@fourplanes_t@@QAEXPBVVPlane@@@Z 1007dde0 f   mathlib:mathlib_base.obj
 0002:0002ae90       ?Get4Planes@fourplanes_t@@QAEXPAVVPlane@@@Z 1007de90 f   mathlib:mathlib_base.obj
 0002:0002af00       ?Get2Planes@fourplanes_t@@QAEXPAVVPlane@@@Z 1007df00 f   mathlib:mathlib_base.obj
 0002:0002af50       ??0Frustum_t@@QAE@XZ       1007df50 f   mathlib:mathlib_base.obj
 0002:0002af70       ?SetPlane@Frustum_t@@QAEXHABVVector@@M@Z 1007df70 f   mathlib:mathlib_base.obj
 0002:0002afe0       ?GetPlane@Frustum_t@@QBEXHPAVVector@@PAM@Z 1007dfe0 f   mathlib:mathlib_base.obj
 0002:0002b050       ?SetPlanes@Frustum_t@@QAEXPBVVPlane@@@Z 1007e050 f   mathlib:mathlib_base.obj
 0002:0002b080       ?GetPlanes@Frustum_t@@QAEXPAVVPlane@@@Z 1007e080 f   mathlib:mathlib_base.obj
 0002:0002b0f0       ?CullBox@Frustum_t@@QBE_NABVVector@@0@Z 1007e0f0 f   mathlib:mathlib_base.obj
 0002:0002b1f0       ?CullBox@Frustum_t@@QBE_NABT__m128@@0@Z 1007e1f0 f   mathlib:mathlib_base.obj
 0002:0002b2f0       ?CullBoxCenterExtents@Frustum_t@@QBE_NABVVector@@0@Z 1007e2f0 f   mathlib:mathlib_base.obj
 0002:0002b3c0       ?CullBoxCenterExtents@Frustum_t@@QBE_NABT__m128@@0@Z 1007e3c0 f   mathlib:mathlib_base.obj
 0002:0002b4a0       ?CalcTriangleTangentSpace@@YAXABVVector@@00ABVVector2D@@11AAV1@2@Z 1007e4a0 f   mathlib:mathlib_base.obj
 0002:0002b8a0       ?RGBtoHSV@@YAXABVVector@@AAV1@@Z 1007e8a0 f   mathlib:mathlib_base.obj
 0002:0002b9f0       ?HSVtoRGB@@YAXABVVector@@AAV1@@Z 1007e9f0 f   mathlib:mathlib_base.obj
 0002:0002bba0       ?GetInterpolationData@@YAXPBM0HHM_NPAM22@Z 1007eba0 f   mathlib:mathlib_base.obj
 0002:0002bd70       ?RandomVectorInUnitSphere@@YAMPAVVector@@@Z 1007ed70 f   mathlib:mathlib_base.obj
 0002:0002bef0       ?RandomVectorInUnitCircle@@YAMPAVVector2D@@@Z 1007eef0 f   mathlib:mathlib_base.obj
 0002:0002bfc0       ??$V_swap@M@@YAXAAM0@Z     1007efc0 f i mathlib:mathlib_base.obj
 0002:0002bfe0       ?NormalizeInPlace@Vector@@QAEMXZ 1007efe0 f i mathlib:mathlib_base.obj
 0002:0002c070       ?VectorRotate@@YAXABVVector@@ABUmatrix3x4_t@@AAV1@@Z 1007f070 f i mathlib:mathlib_base.obj
 0002:0002c120       ?VectorIRotate@@YAXABVVector@@ABUmatrix3x4_t@@AAV1@@Z 1007f120 f i mathlib:mathlib_base.obj
 0002:0002c1d0       ?MatrixAngles@@YAXABUmatrix3x4_t@@AAVQAngle@@@Z 1007f1d0 f i mathlib:mathlib_base.obj
 0002:0002c1e0       ?MatrixAngles@@YAXABUmatrix3x4_t@@AAVRadianEuler@@@Z 1007f1e0 f i mathlib:mathlib_base.obj
 0002:0002c240       ?VectorTransform@@YAXABVVector@@ABUmatrix3x4_t@@AAV1@@Z 1007f240 f i mathlib:mathlib_base.obj
 0002:0002c300       ?VectorITransform@@YAXABVVector@@ABUmatrix3x4_t@@AAV1@@Z 1007f300 f i mathlib:mathlib_base.obj
 0002:0002c3d0       ?MatrixAngles@@YAXABUmatrix3x4_t@@AAVRadianEuler@@AAVVector@@@Z 1007f3d0 f   mathlib:mathlib_base.obj
 0002:0002c440       ?MatrixAngles@@YAXABUmatrix3x4_t@@AAVQuaternion@@AAVVector@@@Z 1007f440 f   mathlib:mathlib_base.obj
 0002:0002c690       ?VectorRotate@@YAXABVVector@@ABVQAngle@@AAV1@@Z 1007f690 f   mathlib:mathlib_base.obj
 0002:0002c760       ?VectorRotate@@YAXABVVector@@ABVQuaternion@@AAV1@@Z 1007f760 f   mathlib:mathlib_base.obj
 0002:0002c990       ?TransformAnglesToWorldSpace@@YA?AVQAngle@@ABV1@ABUmatrix3x4_t@@@Z 1007f990 f   mathlib:mathlib_base.obj
 0002:0002c9e0       ?MatrixInitialize@@YAXAAUmatrix3x4_t@@ABVVector@@111@Z 1007f9e0 f   mathlib:mathlib_base.obj
 0002:0002ca50       ?MatrixInvert@@YAXABUmatrix3x4_t@@AAU1@@Z 1007fa50 f   mathlib:mathlib_base.obj
 0002:0002cbb0       ?VectorPerpendicularToVector@@YAXABVVector@@PAV1@@Z 1007fbb0 f   mathlib:mathlib_base.obj
 0002:0002cd40       ?AngleMatrix@@YAXABVRadianEuler@@AAUmatrix3x4_t@@@Z 1007fd40 f   mathlib:mathlib_base.obj
 0002:0002cda0       ?AngleMatrix@@YAXABVQAngle@@ABVVector@@AAUmatrix3x4_t@@@Z 1007fda0 f   mathlib:mathlib_base.obj
 0002:0002cde0       ?AngleIMatrix@@YAXABVRadianEuler@@AAUmatrix3x4_t@@@Z 1007fde0 f   mathlib:mathlib_base.obj
 0002:0002ce40       ?AngleIMatrix@@YAXABVQAngle@@ABVVector@@AAUmatrix3x4_t@@@Z 1007fe40 f   mathlib:mathlib_base.obj
 0002:0002cf20       ?SolveInverseQuadraticMonotonic@@YA_NMMMMMMAAM00@Z 1007ff20 f   mathlib:mathlib_base.obj
 0002:0002d260       ?QuaternionBlendNoAlign@@YAXABVQuaternion@@0MAAV1@@Z 10080260 f   mathlib:mathlib_base.obj
 0002:0002d3b0       ?QuaternionIdentityBlend@@YAXABVQuaternion@@MAAV1@@Z 100803b0 f   mathlib:mathlib_base.obj
 0002:0002d4d0       ?QuaternionSlerp@@YAXABVQuaternion@@0MAAV1@@Z 100804d0 f   mathlib:mathlib_base.obj
 0002:0002d520       ?QuaternionAngleDiff@@YAMABVQuaternion@@0@Z 10080520 f   mathlib:mathlib_base.obj
 0002:0002d620       ?QuaternionInvert@@YAXABVQuaternion@@AAV1@@Z 10080620 f   mathlib:mathlib_base.obj
 0002:0002d710       ?QuaternionLookAt@@YAXABVVector@@0AAVQuaternion@@@Z 10080710 f   mathlib:mathlib_base.obj
 0002:0002da00       ?QuaternionMatrix@@YAXABVQuaternion@@ABVVector@@AAUmatrix3x4_t@@@Z 10080a00 f   mathlib:mathlib_base.obj
 0002:0002dc40       ?QuaternionAngles@@YAXABVQuaternion@@AAVQAngle@@@Z 10080c40 f   mathlib:mathlib_base.obj
 0002:0002de20       ?BasisToQuaternion@@YAXABVVector@@00AAVQuaternion@@@Z 10080e20 f   mathlib:mathlib_base.obj
 0002:0002def0       ?MatrixQuaternion@@YAXABUmatrix3x4_t@@AAVQuaternion@@@Z 10080ef0 f   mathlib:mathlib_base.obj
 0002:0002df20       ?QuaternionAngles@@YAXABVQuaternion@@AAVRadianEuler@@@Z 10080f20 f   mathlib:mathlib_base.obj
 0002:0002e150       ?TransformAABB@@YAXABUmatrix3x4_t@@ABVVector@@1AAV2@2@Z 10081150 f   mathlib:mathlib_base.obj
 0002:0002e3b0       ?ITransformAABB@@YAXABUmatrix3x4_t@@ABVVector@@1AAV2@2@Z 100813b0 f   mathlib:mathlib_base.obj
 0002:0002e5e0       ?RotateAABB@@YAXABUmatrix3x4_t@@ABVVector@@1AAV2@2@Z 100815e0 f   mathlib:mathlib_base.obj
 0002:0002e830       ?IRotateAABB@@YAXABUmatrix3x4_t@@ABVVector@@1AAV2@2@Z 10081830 f   mathlib:mathlib_base.obj
 0002:0002ea50       ?CalcDistanceSqrToLine@@YAMABVVector@@00PAM@Z 10081a50 f   mathlib:mathlib_base.obj
 0002:0002eb30       ?CalcDistanceSqrToLineSegment@@YAMABVVector@@00PAM@Z 10081b30 f   mathlib:mathlib_base.obj
 0002:0002eb90       ?RotationDelta@@YAXABVQAngle@@0PAV1@@Z 10081b90 f   mathlib:mathlib_base.obj
 0002:0002ec50       ?GeneratePerspectiveFrustum@@YAXABVVector@@ABVQAngle@@MMMMAAVFrustum_t@@@Z 10081c50 f   mathlib:mathlib_base.obj
 0002:0002eda0       ?TransformAnglesToLocalSpace@@YA?AVQAngle@@ABV1@ABUmatrix3x4_t@@@Z 10081da0 f   mathlib:mathlib_base.obj
 0002:0002ee10       ?AngleMatrix@@YAXABVRadianEuler@@ABVVector@@AAUmatrix3x4_t@@@Z 10081e10 f   mathlib:mathlib_base.obj
 0002:0002ee90       ?QuaternionBlend@@YAXABVQuaternion@@0MAAV1@@Z 10081e90 f   mathlib:mathlib_base.obj
 0002:0002f000       ?ReplicateX4@@YA?AT__m128@@M@Z 10082000 f i mathlib:sseconst.obj
 0002:0002f020       ?SubSIMD@@YA?AT__m128@@ABT1@0@Z 10082020 f i mathlib:sseconst.obj
 0002:0002f040       ?DivSIMD@@YA?AT__m128@@ABT1@0@Z 10082040 f i mathlib:sseconst.obj
 0002:0002f060       ?MaddSIMD@@YA?AT__m128@@ABT1@00@Z 10082060 f i mathlib:sseconst.obj
 0002:0002f090       ??0FourVectors@@QAE@XZ     10082090 f i mathlib:sseconst.obj
 0002:0002f0a0       ??YFourVectors@@QAEXABV0@@Z 100820a0 f i mathlib:sseconst.obj
 0002:0002f0f0       ??ZFourVectors@@QAEXABV0@@Z 100820f0 f i mathlib:sseconst.obj
 0002:0002f140       ??XFourVectors@@QAEXABT__m128@@@Z 10082140 f i mathlib:sseconst.obj
 0002:0002f190       ??DFourVectors@@QBE?AT__m128@@ABV0@@Z 10082190 f i mathlib:sseconst.obj
 0002:0002f1e0       ??4FourVectors@@QAEXABV0@@Z 100821e0 f i mathlib:sseconst.obj
 0002:0002f210       ?RotateManyBy@FourVectors@@SAXPIAV1@IABUmatrix3x4_t@@@Z 10082210 f   mathlib:sseconst.obj
 0002:0002f380       ?CalcClosestPointToLineTSIMD@FourVectors@@SA?AT__m128@@ABV1@00AAV1@@Z 10082380 f   mathlib:sseconst.obj
 0002:0002f460       ?RotateManyBy@FourVectors@@SAXPIAV1@IABUmatrix3x4_t@@0@Z 10082460 f   mathlib:sseconst.obj
 0002:0002f5a0       ?CalcClosestPointOnLineSIMD@FourVectors@@SAXABV1@00AAV1@PAT__m128@@@Z 100825a0 f   mathlib:sseconst.obj
 0002:0002f630       ?ThreadInterlockedAssignIf@@YA_NPCHHH@Z 10082630 f i mathlib:randsse.obj
 0002:0002f660       ?CmpGeSIMD@@YA?AT__m128@@ABT1@0@Z 10082660 f i mathlib:randsse.obj
 0002:0002f690       ?Seed@SIMDRandStreamContext@@QAEXI@Z 10082690 f i mathlib:randsse.obj
 0002:0002f7b0       ?RandSIMD@SIMDRandStreamContext@@QAE?AT__m128@@XZ 100827b0 f i mathlib:randsse.obj
 0002:0002f850       ?SeedRandSIMD@@YAXI@Z      10082850 f   mathlib:randsse.obj
 0002:0002f890       ?RandSIMD@@YA?AT__m128@@H@Z 10082890 f   mathlib:randsse.obj
 0002:0002f8d0       ?GetSIMDRandContext@@YAHXZ 100828d0 f   mathlib:randsse.obj
 0002:0002f930       ?ReleaseSIMDRandContext@@YAXH@Z 10082930 f   mathlib:randsse.obj
 0002:0002f950       ?RandSIMD@@YA?AT__m128@@XZ 10082950 f   mathlib:randsse.obj
 0002:0002f980       ??0CBaseShader@@QAE@XZ     10082980 f   shaderlib:BaseShader.obj
 0002:0002fa20       ??0IShader@@QAE@XZ         10082a20 f i shaderlib:BaseShader.obj
 0002:0002fa70       ?GetParamCount@CBaseShader@@UBEHXZ 10082a70 f   shaderlib:BaseShader.obj
 0002:0002fab0       ?GetParamInfo@CBaseShader@@UBEABUShaderParamInfo_t@@H@Z 10082ab0 f   shaderlib:BaseShader.obj
 0002:0002fb00       ?InitShaderParams@CBaseShader@@UAEXPAPAVIMaterialVar@@PBD@Z 10082b00 f   shaderlib:BaseShader.obj
 0002:0002fb90       ?InitShaderInstance@CBaseShader@@UAEXPAPAVIMaterialVar@@PAVIShaderInit@@PBD2@Z 10082b90 f   shaderlib:BaseShader.obj
 0002:0002fc50       ?DrawElements@CBaseShader@@UAEXPAPAVIMaterialVar@@HPAVIShaderShadow@@PAVIShaderDynamicAPI@@W4VertexCompressionType_t@@PAPAVCBasePerMaterialContextData@@PAPAVCBasePerInstanceContextData@@@Z 10082c50 f   shaderlib:BaseShader.obj
 0002:0002fd80       ?SetInitialShadowState@CBaseShader@@QAEXXZ 10082d80 f   shaderlib:BaseShader.obj
 0002:0002ff70       ?Draw@CBaseShader@@QAEX_N@Z 10082f70 f   shaderlib:BaseShader.obj
 0002:00030180       ?GetShaderSystem@@YAPAVIShaderSystem@@XZ 10083180 f i shaderlib:BaseShader.obj
 0002:000301c0       ?CShader_IsFlag2Set@@YA_NPAPAVIMaterialVar@@W4MaterialVarFlags2_t@@@Z 100831c0 f i shaderlib:BaseShader.obj
 0002:00030220       ?PI_BeginCommandBuffer@CBaseShader@@QAEXXZ 10083220 f   shaderlib:BaseShader.obj
 0002:00030280       ?PI_EndCommandBuffer@CBaseShader@@QAEXXZ 10083280 f   shaderlib:BaseShader.obj
 0002:00030490       ??0CPerInstanceContextData@@QAE@XZ 10083490 f i shaderlib:BaseShader.obj
 0002:00030510       ??_ECPerInstanceContextData@@UAEPAXI@Z 10083510 f i shaderlib:BaseShader.obj
 0002:00030510       ??_GCPerInstanceContextData@@UAEPAXI@Z 10083510 f i shaderlib:BaseShader.obj
 0002:00030580       ??1CPerInstanceContextData@@UAE@XZ 10083580 f i shaderlib:BaseShader.obj
 0002:00030610       ??1CBasePerInstanceContextData@@UAE@XZ 10083610 f i shaderlib:BaseShader.obj
 0002:00030650       ??_ECBasePerInstanceContextData@@UAEPAXI@Z 10083650 f i shaderlib:BaseShader.obj
 0002:00030650       ??_GCBasePerInstanceContextData@@UAEPAXI@Z 10083650 f i shaderlib:BaseShader.obj
 0002:000306c0       ??0CBasePerInstanceContextData@@QAE@XZ 100836c0 f i shaderlib:BaseShader.obj
 0002:00030710       ?PI_SetPixelShaderAmbientLightCube@CBaseShader@@QAEXH@Z 10083710 f   shaderlib:BaseShader.obj
 0002:00030770       ?PI_SetPixelShaderLocalLighting@CBaseShader@@QAEXH@Z 10083770 f   shaderlib:BaseShader.obj
 0002:000307d0       ?PI_SetVertexShaderAmbientLightCube@CBaseShader@@QAEXXZ 100837d0 f   shaderlib:BaseShader.obj
 0002:00030830       ?PI_SetVertexShaderLocalLighting@CBaseShader@@AAEXXZ 10083830 f   shaderlib:BaseShader.obj
 0002:00030890       ?PI_SetSkinningMatrices@CBaseShader@@AAEXXZ 10083890 f   shaderlib:BaseShader.obj
 0002:000308f0       ?PI_SetPixelShaderAmbientLightCubeLuminance@CBaseShader@@QAEXH@Z 100838f0 f   shaderlib:BaseShader.obj
 0002:00030950       ?PI_SetPixelShaderGlintDamping@CBaseShader@@QAEXH@Z 10083950 f   shaderlib:BaseShader.obj
 0002:000309b0       ?PI_SetModulationPixelShaderDynamicState_LinearColorSpace_LinearScale@CBaseShader@@QAEXHM@Z 100839b0 f   shaderlib:BaseShader.obj
 0002:00030ab0       ?PI_SetModulationPixelShaderDynamicState_LinearScale@CBaseShader@@QAEXHM@Z 10083ab0 f   shaderlib:BaseShader.obj
 0002:00030bb0       ?PI_SetModulationPixelShaderDynamicState_LinearScale_ScaleInW@CBaseShader@@QAEXHM@Z 10083bb0 f   shaderlib:BaseShader.obj
 0002:00030cb0       ?PI_SetModulationPixelShaderDynamicState_LinearColorSpace@CBaseShader@@QAEXH@Z 10083cb0 f   shaderlib:BaseShader.obj
 0002:00030da0       ?PI_SetModulationPixelShaderDynamicState@CBaseShader@@QAEXH@Z 10083da0 f   shaderlib:BaseShader.obj
 0002:00030e90       ?PI_SetModulationVertexShaderDynamicState@CBaseShader@@QAEXXZ 10083e90 f   shaderlib:BaseShader.obj
 0002:00030f80       ?PI_SetModulationVertexShaderDynamicState_LinearScale@CBaseShader@@QAEXM@Z 10083f80 f   shaderlib:BaseShader.obj
 0002:00031080       ?PI_SetModulationPixelShaderDynamicState_Identity@CBaseShader@@QAEXH@Z 10084080 f   shaderlib:BaseShader.obj
 0002:000310e0       ?FindParamIndex@CBaseShader@@QBEHPBD@Z 100840e0 f   shaderlib:BaseShader.obj
 0002:000311b0       ?IsUsingGraphics@CBaseShader@@QAE_NXZ 100841b0 f   shaderlib:BaseShader.obj
 0002:00031230       ?CanUseEditorMaterials@CBaseShader@@QBE_NXZ 10084230 f   shaderlib:BaseShader.obj
 0002:000312b0       ?LoadTexture@CBaseShader@@QAEXHH@Z 100842b0 f   shaderlib:BaseShader.obj
 0002:00031380       ?LoadBumpMap@CBaseShader@@QAEXH@Z 10084380 f   shaderlib:BaseShader.obj
 0002:00031450       ?LoadCubeMap@CBaseShader@@QAEXHH@Z 10084450 f   shaderlib:BaseShader.obj
 0002:00031520       ?GetShaderAPITextureBindHandle@CBaseShader@@QAEHHHH@Z 10084520 f   shaderlib:BaseShader.obj
 0002:00031640       ?BindVertexTexture@CBaseShader@@QAEXW4VertexTextureSampler_t@@HH@Z 10084640 f   shaderlib:BaseShader.obj
 0002:00031700       ?GetShaderAPITextureBindHandle@CBaseShader@@QAEHPAVITexture@@HH@Z 10084700 f   shaderlib:BaseShader.obj
 0002:00031790       ?BindTexture@CBaseShader@@QAEXW4Sampler_t@@HH@Z 10084790 f   shaderlib:BaseShader.obj
 0002:00031800       ?BindTexture@CBaseShader@@QAEXW4Sampler_t@@0HH@Z 10084800 f   shaderlib:BaseShader.obj
 0002:000319a0       ?BindTexture@CBaseShader@@QAEXW4Sampler_t@@PAVITexture@@H@Z 100849a0 f   shaderlib:BaseShader.obj
 0002:00031a10       ?BindTexture@CBaseShader@@QAEXW4Sampler_t@@0PAVITexture@@H@Z 10084a10 f   shaderlib:BaseShader.obj
 0002:00031af0       ?TextureIsTranslucent@CBaseShader@@QAE_NH_N@Z 10084af0 f   shaderlib:BaseShader.obj
 0002:00031d20       ?CurrentMaterialVarFlags2@CBaseShader@@QBEHXZ 10084d20 f i shaderlib:BaseShader.obj
 0002:00031d80       ?IsAlphaModulating@CBaseShader@@QAE_NXZ 10084d80 f   shaderlib:BaseShader.obj
 0002:00031dd0       ?ComputeModulationColor@CBaseShader@@QAEXPAM@Z 10084dd0 f   shaderlib:BaseShader.obj
 0002:00031f70       ?ComputeModulationFlags@CBaseShader@@UAEHPAPAVIMaterialVar@@PAVIShaderDynamicAPI@@@Z 10084f70 f   shaderlib:BaseShader.obj
 0002:000320d0       ?NeedsPowerOfTwoFrameBufferTexture@CBaseShader@@UBE_NPAPAVIMaterialVar@@_N@Z 100850d0 f   shaderlib:BaseShader.obj
 0002:00032130       ?NeedsFullFrameBufferTexture@CBaseShader@@UBE_NPAPAVIMaterialVar@@_N@Z 10085130 f   shaderlib:BaseShader.obj
 0002:00032190       ?IsTranslucent@CBaseShader@@UBE_NPAPAVIMaterialVar@@@Z 10085190 f   shaderlib:BaseShader.obj
 0002:000321f0       ?ApplyColor2Factor@CBaseShader@@QBEXPAM@Z 100851f0 f   shaderlib:BaseShader.obj
 0002:00032410       ?EnableAlphaBlending@CBaseShader@@QAEXW4ShaderBlendFactor_t@@0@Z 10085410 f   shaderlib:BaseShader.obj
 0002:000324d0       ?DisableAlphaBlending@CBaseShader@@QAEXXZ 100854d0 f   shaderlib:BaseShader.obj
 0002:00032540       ?SetNormalBlendingShadowState@CBaseShader@@QAEXH_N@Z 10085540 f   shaderlib:BaseShader.obj
 0002:00032660       ?SetAdditiveBlendingShadowState@CBaseShader@@QAEXH_N@Z 10085660 f   shaderlib:BaseShader.obj
 0002:00032790       ?SetDefaultBlendingShadowState@CBaseShader@@QAEXH_N@Z 10085790 f   shaderlib:BaseShader.obj
 0002:00032820       ?SetBlendingShadowState@CBaseShader@@QAEXW4BlendType_t@@@Z 10085820 f   shaderlib:BaseShader.obj
 0002:000328f0       ?SingleTextureLightmapBlendMode@CBaseShader@@QAEXXZ 100858f0 f   shaderlib:BaseShader.obj
 0002:00032980       ?FogToOOOverbright@CBaseShader@@QAEXXZ 10085980 f   shaderlib:BaseShader.obj
 0002:000329e0       ?SetFogMode@CBaseShader@@AAEXW4ShaderFogMode_t@@@Z 100859e0 f i shaderlib:BaseShader.obj
 0002:00032ab0       ?FogToWhite@CBaseShader@@QAEXXZ 10085ab0 f   shaderlib:BaseShader.obj
 0002:00032b10       ?FogToBlack@CBaseShader@@QAEXXZ 10085b10 f   shaderlib:BaseShader.obj
 0002:00032b70       ?FogToGrey@CBaseShader@@QAEXXZ 10085b70 f   shaderlib:BaseShader.obj
 0002:00032bd0       ?FogToFogColor@CBaseShader@@QAEXXZ 10085bd0 f   shaderlib:BaseShader.obj
 0002:00032c30       ?DisableFog@CBaseShader@@QAEXXZ 10085c30 f   shaderlib:BaseShader.obj
 0002:00032ca0       ?DefaultFog@CBaseShader@@QAEXXZ 10085ca0 f   shaderlib:BaseShader.obj
 0002:00032d10       ?UsingFlashlight@CBaseShader@@QBE_NPAPAVIMaterialVar@@@Z 10085d10 f   shaderlib:BaseShader.obj
 0002:00032db0       ?UsingEditor@CBaseShader@@QBE_NPAPAVIMaterialVar@@@Z 10085db0 f   shaderlib:BaseShader.obj
 0002:00032e50       ?IsHDREnabled@CBaseShader@@QAE_NXZ 10085e50 f   shaderlib:BaseShader.obj
 0002:00032ef0       ?HashShadow2DJitter@CBaseShader@@QAEXMPAM0@Z 10085ef0 f   shaderlib:BaseShader.obj
 0002:00032ff0       ?EvaluateBlendRequirements@CBaseShader@@QAE?AW4BlendType_t@@H_NH@Z 10085ff0 f   shaderlib:BaseShader.obj
 0002:00033150       ?SetVertexShaderTextureTransform@CBaseShader@@QAEXHH@Z 10086150 f   shaderlib:BaseShader.obj
 0002:00033410       ?End@?$CInstanceCommandBufferBuilder@V?$CFixedCommandStorageBuffer@$0CAA@@@@@QAEXXZ 10086410 f i shaderlib:BaseShader.obj
 0002:00033470       ?SetPixelShaderLocalLighting@?$CInstanceCommandBufferBuilder@V?$CFixedCommandStorageBuffer@$0CAA@@@@@QAEXH@Z 10086470 f i shaderlib:BaseShader.obj
 0002:000334e0       ?SetPixelShaderAmbientLightCube@?$CInstanceCommandBufferBuilder@V?$CFixedCommandStorageBuffer@$0CAA@@@@@QAEXH@Z 100864e0 f i shaderlib:BaseShader.obj
 0002:00033550       ?SetVertexShaderLocalLighting@?$CInstanceCommandBufferBuilder@V?$CFixedCommandStorageBuffer@$0CAA@@@@@QAEXXZ 10086550 f i shaderlib:BaseShader.obj
 0002:000335b0       ?SetVertexShaderAmbientLightCube@?$CInstanceCommandBufferBuilder@V?$CFixedCommandStorageBuffer@$0CAA@@@@@QAEXXZ 100865b0 f i shaderlib:BaseShader.obj
 0002:00033610       ?SetSkinningMatrices@?$CInstanceCommandBufferBuilder@V?$CFixedCommandStorageBuffer@$0CAA@@@@@QAEXXZ 10086610 f i shaderlib:BaseShader.obj
 0002:00033670       ?SetPixelShaderAmbientLightCubeLuminance@?$CInstanceCommandBufferBuilder@V?$CFixedCommandStorageBuffer@$0CAA@@@@@QAEXH@Z 10086670 f i shaderlib:BaseShader.obj
 0002:000336e0       ?SetPixelShaderGlintDamping@?$CInstanceCommandBufferBuilder@V?$CFixedCommandStorageBuffer@$0CAA@@@@@QAEXH@Z 100866e0 f i shaderlib:BaseShader.obj
 0002:00033750       ?SetModulationPixelShaderDynamicState_LinearColorSpace_LinearScale@?$CInstanceCommandBufferBuilder@V?$CFixedCommandStorageBuffer@$0CAA@@@@@QAEXHABVVector@@M@Z 10086750 f i shaderlib:BaseShader.obj
 0002:000337e0       ?SetModulationPixelShaderDynamicState_LinearScale@?$CInstanceCommandBufferBuilder@V?$CFixedCommandStorageBuffer@$0CAA@@@@@QAEXHABVVector@@M@Z 100867e0 f i shaderlib:BaseShader.obj
 0002:00033870       ?SetModulationPixelShaderDynamicState_LinearScale_ScaleInW@?$CInstanceCommandBufferBuilder@V?$CFixedCommandStorageBuffer@$0CAA@@@@@QAEXHABVVector@@M@Z 10086870 f i shaderlib:BaseShader.obj
 0002:00033900       ?SetModulationPixelShaderDynamicState_LinearColorSpace@?$CInstanceCommandBufferBuilder@V?$CFixedCommandStorageBuffer@$0CAA@@@@@QAEXHABVVector@@@Z 10086900 f i shaderlib:BaseShader.obj
 0002:00033980       ?SetModulationPixelShaderDynamicState@?$CInstanceCommandBufferBuilder@V?$CFixedCommandStorageBuffer@$0CAA@@@@@QAEXHABVVector@@@Z 10086980 f i shaderlib:BaseShader.obj
 0002:00033a00       ?SetModulationPixelShaderDynamicState_Identity@?$CInstanceCommandBufferBuilder@V?$CFixedCommandStorageBuffer@$0CAA@@@@@QAEXH@Z 10086a00 f i shaderlib:BaseShader.obj
 0002:00033a70       ?SetModulationVertexShaderDynamicState@?$CInstanceCommandBufferBuilder@V?$CFixedCommandStorageBuffer@$0CAA@@@@@QAEXHABVVector@@@Z 10086a70 f i shaderlib:BaseShader.obj
 0002:00033af0       ?SetModulationVertexShaderDynamicState_LinearScale@?$CInstanceCommandBufferBuilder@V?$CFixedCommandStorageBuffer@$0CAA@@@@@QAEXHABVVector@@M@Z 10086af0 f i shaderlib:BaseShader.obj
 0002:00033b80       ?Reset@?$CBaseCommandBufferBuilder@V?$CFixedCommandStorageBuffer@$0CAA@@@@@QAEXXZ 10086b80 f i shaderlib:BaseShader.obj
 0002:00033bd0       ?Size@?$CBaseCommandBufferBuilder@V?$CFixedCommandStorageBuffer@$0CAA@@@@@QBEIXZ 10086bd0 f i shaderlib:BaseShader.obj
 0002:00033c20       ?Base@?$CBaseCommandBufferBuilder@V?$CFixedCommandStorageBuffer@$0CAA@@@@@QAEPAEXZ 10086c20 f i shaderlib:BaseShader.obj
 0002:00033c70       ?PutInt@?$CFixedCommandStorageBuffer@$0CAA@@@QAEXH@Z 10086c70 f i shaderlib:BaseShader.obj
 0002:00033cd0       ?PutFloat@?$CFixedCommandStorageBuffer@$0CAA@@@QAEXM@Z 10086cd0 f i shaderlib:BaseShader.obj
 0002:00033d30       ?Base@?$CFixedCommandStorageBuffer@$0CAA@@@QAEPAEXZ 10086d30 f i shaderlib:BaseShader.obj
 0002:00033d70       ?Reset@?$CFixedCommandStorageBuffer@$0CAA@@@QAEXXZ 10086d70 f i shaderlib:BaseShader.obj
 0002:00033dc0       ?Size@?$CFixedCommandStorageBuffer@$0CAA@@@QBEIXZ 10086dc0 f i shaderlib:BaseShader.obj
 0002:00033e10       ??$Put@VVector@@@?$CFixedCommandStorageBuffer@$0CAA@@@QAEXABVVector@@@Z 10086e10 f i shaderlib:BaseShader.obj
 0002:00033ea0       ??$Put@H@?$CFixedCommandStorageBuffer@$0CAA@@@QAEXABH@Z 10086ea0 f i shaderlib:BaseShader.obj
 0002:00033f30       ??$Put@M@?$CFixedCommandStorageBuffer@$0CAA@@@QAEXABM@Z 10086f30 f i shaderlib:BaseShader.obj
 0002:00033fc0       ?EnsureCapacity@?$CFixedCommandStorageBuffer@$0CAA@@@QAEXI@Z 10086fc0 f i shaderlib:BaseShader.obj
 0002:00034000       ??0?$CInstanceCommandBufferBuilder@V?$CFixedCommandStorageBuffer@$0CAA@@@@@QAE@XZ 10087000 f i shaderlib:BaseShader.obj
 0002:00034060       ??0?$CBaseCommandBufferBuilder@V?$CFixedCommandStorageBuffer@$0CAA@@@@@QAE@XZ 10087060 f i shaderlib:BaseShader.obj
 0002:000340c0       ??0?$CFixedCommandStorageBuffer@$0CAA@@@QAE@XZ 100870c0 f i shaderlib:BaseShader.obj
 0002:00034110       ?GetShaderDLL@@YAPAVIShaderDLL@@XZ 10087110 f   shaderlib:ShaderDLL.obj
 0002:00034200       ?GetShaderDLLInternal@@YAPAVIShaderDLLInternal@@XZ 10087200 f   shaderlib:ShaderDLL.obj
 0002:000342c0       ??0CShaderDLL@@QAE@XZ      100872c0 f   shaderlib:ShaderDLL.obj
 0002:000343a0       ?ShaderComboSemanticsCount@CShaderDLL@@UBEHXZ 100873a0 f i shaderlib:ShaderDLL.obj
 0002:00034400       ?GetComboSemantics@CShaderDLL@@UAEPBUShaderComboSemantics_t@@H@Z 10087400 f i shaderlib:ShaderDLL.obj
 0002:00034490       ?AddShaderComboInformation@CShaderDLL@@UAEXPBUShaderComboSemantics_t@@@Z 10087490 f i shaderlib:ShaderDLL.obj
 0002:000344f0       ??0IShaderDLLInternal@@QAE@XZ 100874f0 f i shaderlib:ShaderDLL.obj
 0002:00034540       ??0IShaderDLL@@QAE@XZ      10087540 f i shaderlib:ShaderDLL.obj
 0002:00034590       ?Connect@CShaderDLL@@UAE_NP6APAXPBDPAH@Z_N@Z 10087590 f   shaderlib:ShaderDLL.obj
 0002:00034690       ?Disconnect@CShaderDLL@@UAEX_N@Z 10087690 f   shaderlib:ShaderDLL.obj
 0002:00034720       ?Connect@CShaderDLL@@UAE_NP6APAXPBDPAH@Z@Z 10087720 f   shaderlib:ShaderDLL.obj
 0002:00034760       ?Disconnect@CShaderDLL@@UAEXXZ 10087760 f   shaderlib:ShaderDLL.obj
 0002:000347d0       ?ShaderCount@CShaderDLL@@UBEHXZ 100877d0 f   shaderlib:ShaderDLL.obj
 0002:00034830       ?GetShader@CShaderDLL@@UAEPAVIShader@@H@Z 10087830 f   shaderlib:ShaderDLL.obj
 0002:000348b0       ?InsertShader@CShaderDLL@@UAEXPAVIShader@@@Z 100878b0 f   shaderlib:ShaderDLL.obj
 0002:00034910       ??A?$CUtlVector@PBUShaderComboSemantics_t@@V?$CUtlMemory@PBUShaderComboSemantics_t@@H@@@@QAEAAPBUShaderComboSemantics_t@@H@Z 10087910 f i shaderlib:ShaderDLL.obj
 0002:00034970       ?Count@?$CUtlVector@PBUShaderComboSemantics_t@@V?$CUtlMemory@PBUShaderComboSemantics_t@@H@@@@QBEHXZ 10087970 f i shaderlib:ShaderDLL.obj
 0002:000349b0       ?AddToTail@?$CUtlVector@PBUShaderComboSemantics_t@@V?$CUtlMemory@PBUShaderComboSemantics_t@@H@@@@QAEHABQBUShaderComboSemantics_t@@@Z 100879b0 f i shaderlib:ShaderDLL.obj
 0002:00034a10       ??0?$CUtlVector@PAVIShader@@V?$CUtlMemory@PAVIShader@@H@@@@QAE@HH@Z 10087a10 f i shaderlib:ShaderDLL.obj
 0002:00034a90       ??A?$CUtlVector@PAVIShader@@V?$CUtlMemory@PAVIShader@@H@@@@QAEAAPAVIShader@@H@Z 10087a90 f i shaderlib:ShaderDLL.obj
 0002:00034af0       ?Count@?$CUtlVector@PAVIShader@@V?$CUtlMemory@PAVIShader@@H@@@@QBEHXZ 10087af0 f i shaderlib:ShaderDLL.obj
 0002:00034b30       ?AddToTail@?$CUtlVector@PAVIShader@@V?$CUtlMemory@PAVIShader@@H@@@@QAEHABQAVIShader@@@Z 10087b30 f i shaderlib:ShaderDLL.obj
 0002:00034b90       ?ResetDbgInfo@?$CUtlVector@PAVIShader@@V?$CUtlMemory@PAVIShader@@H@@@@IAEXXZ 10087b90 f i shaderlib:ShaderDLL.obj
 0002:00034bf0       ?Base@?$CUtlVector@PAVIShader@@V?$CUtlMemory@PAVIShader@@H@@@@QAEPAPAVIShader@@XZ 10087bf0 f i shaderlib:ShaderDLL.obj
 0002:00034c40       ?InsertBefore@?$CUtlVector@PBUShaderComboSemantics_t@@V?$CUtlMemory@PBUShaderComboSemantics_t@@H@@@@QAEHHABQBUShaderComboSemantics_t@@@Z 10087c40 f i shaderlib:ShaderDLL.obj
 0002:00034cd0       ??A?$CUtlMemory@PBUShaderComboSemantics_t@@H@@QAEAAPBUShaderComboSemantics_t@@H@Z 10087cd0 f i shaderlib:ShaderDLL.obj
 0002:00034d20       ?InsertBefore@?$CUtlVector@PAVIShader@@V?$CUtlMemory@PAVIShader@@H@@@@QAEHHABQAVIShader@@@Z 10087d20 f i shaderlib:ShaderDLL.obj
 0002:00034db0       ??0?$CUtlMemory@PAVIShader@@H@@QAE@HH@Z 10087db0 f i shaderlib:ShaderDLL.obj
 0002:00034ee0       ??A?$CUtlMemory@PAVIShader@@H@@QAEAAPAVIShader@@H@Z 10087ee0 f i shaderlib:ShaderDLL.obj
 0002:00034f30       ?Base@?$CUtlMemory@PAVIShader@@H@@QAEPAPAVIShader@@XZ 10087f30 f i shaderlib:ShaderDLL.obj
 0002:00034f70       ?ValidateGrowSize@?$CUtlMemory@PAVIShader@@H@@IAEXXZ 10087f70 f i shaderlib:ShaderDLL.obj
 0002:00034fb0       ?Element@?$CUtlVector@PBUShaderComboSemantics_t@@V?$CUtlMemory@PBUShaderComboSemantics_t@@H@@@@QAEAAPBUShaderComboSemantics_t@@H@Z 10087fb0 f i shaderlib:ShaderDLL.obj
 0002:00035010       ?GrowVector@?$CUtlVector@PBUShaderComboSemantics_t@@V?$CUtlMemory@PBUShaderComboSemantics_t@@H@@@@IAEXH@Z 10088010 f i shaderlib:ShaderDLL.obj
 0002:00035130       ?ResetDbgInfo@?$CUtlVector@PBUShaderComboSemantics_t@@V?$CUtlMemory@PBUShaderComboSemantics_t@@H@@@@IAEXXZ 10088130 f i shaderlib:ShaderDLL.obj
 0002:00035190       ?Base@?$CUtlVector@PBUShaderComboSemantics_t@@V?$CUtlMemory@PBUShaderComboSemantics_t@@H@@@@QAEPAPBUShaderComboSemantics_t@@XZ 10088190 f i shaderlib:ShaderDLL.obj
 0002:000351e0       ?Base@?$CUtlMemory@PBUShaderComboSemantics_t@@H@@QAEPAPBUShaderComboSemantics_t@@XZ 100881e0 f i shaderlib:ShaderDLL.obj
 0002:00035220       ?ShiftElementsRight@?$CUtlVector@PBUShaderComboSemantics_t@@V?$CUtlMemory@PBUShaderComboSemantics_t@@H@@@@IAEXHH@Z 10088220 f i shaderlib:ShaderDLL.obj
 0002:000352c0       ??$CopyConstruct@PBUShaderComboSemantics_t@@@@YAPAPBUShaderComboSemantics_t@@PAPBU0@ABQBU0@@Z 100882c0 f i shaderlib:ShaderDLL.obj
 0002:00035360       ?Element@?$CUtlVector@PAVIShader@@V?$CUtlMemory@PAVIShader@@H@@@@QAEAAPAVIShader@@H@Z 10088360 f i shaderlib:ShaderDLL.obj
 0002:000353c0       ?GrowVector@?$CUtlVector@PAVIShader@@V?$CUtlMemory@PAVIShader@@H@@@@IAEXH@Z 100883c0 f i shaderlib:ShaderDLL.obj
 0002:000354e0       ?ShiftElementsRight@?$CUtlVector@PAVIShader@@V?$CUtlMemory@PAVIShader@@H@@@@IAEXHH@Z 100884e0 f i shaderlib:ShaderDLL.obj
 0002:00035580       ??$CopyConstruct@PAVIShader@@@@YAPAPAVIShader@@PAPAV0@ABQAV0@@Z 10088580 f i shaderlib:ShaderDLL.obj
 0002:00035620       ??$MemAllocClassName@V?$CUtlMemory@PAVIShader@@H@@@@YAPBDPAV?$CUtlMemory@PAVIShader@@H@@@Z 10088620 f i shaderlib:ShaderDLL.obj
 0002:000356a0       ?NumAllocated@?$CUtlMemory@PBUShaderComboSemantics_t@@H@@QBEHXZ 100886a0 f i shaderlib:ShaderDLL.obj
 0002:000356e0       ?Grow@?$CUtlMemory@PBUShaderComboSemantics_t@@H@@QAEXH@Z 100886e0 f i shaderlib:ShaderDLL.obj
 0002:00035940       ??$MemAllocClassName@V?$CUtlMemory@PBUShaderComboSemantics_t@@H@@@@YAPBDPAV?$CUtlMemory@PBUShaderComboSemantics_t@@H@@@Z 10088940 f i shaderlib:ShaderDLL.obj
 0002:000359c0       ?IsExternallyAllocated@?$CUtlMemory@PBUShaderComboSemantics_t@@H@@QBE_NXZ 100889c0 f i shaderlib:ShaderDLL.obj
 0002:00035a10       ??$MemAllocClassName@V?$CUtlVector@PBUShaderComboSemantics_t@@V?$CUtlMemory@PBUShaderComboSemantics_t@@H@@@@@@YAPBDPAV?$CUtlVector@PBUShaderComboSemantics_t@@V?$CUtlMemory@PBUShaderComboSemantics_t@@H@@@@@Z 10088a10 f i shaderlib:ShaderDLL.obj
 0002:00035a90       ?NumAllocated@?$CUtlMemory@PAVIShader@@H@@QBEHXZ 10088a90 f i shaderlib:ShaderDLL.obj
 0002:00035ad0       ?Grow@?$CUtlMemory@PAVIShader@@H@@QAEXH@Z 10088ad0 f i shaderlib:ShaderDLL.obj
 0002:00035d30       ?IsExternallyAllocated@?$CUtlMemory@PAVIShader@@H@@QBE_NXZ 10088d30 f i shaderlib:ShaderDLL.obj
 0002:00035d80       ??$MemAllocClassName@V?$CUtlVector@PAVIShader@@V?$CUtlMemory@PAVIShader@@H@@@@@@YAPBDPAV?$CUtlVector@PAVIShader@@V?$CUtlMemory@PAVIShader@@H@@@@@Z 10088d80 f i shaderlib:ShaderDLL.obj
 0002:00035e00       ??0?$CUtlVector@PBUShaderComboSemantics_t@@V?$CUtlMemory@PBUShaderComboSemantics_t@@H@@@@QAE@HH@Z 10088e00 f i shaderlib:ShaderDLL.obj
 0002:00035e80       ??0?$CUtlMemory@PBUShaderComboSemantics_t@@H@@QAE@HH@Z 10088e80 f i shaderlib:ShaderDLL.obj
 0002:00035fb0       ?ValidateGrowSize@?$CUtlMemory@PBUShaderComboSemantics_t@@H@@IAEXXZ 10088fb0 f i shaderlib:ShaderDLL.obj
 0002:00035ff0       ??1?$CUtlVector@PBUShaderComboSemantics_t@@V?$CUtlMemory@PBUShaderComboSemantics_t@@H@@@@QAE@XZ 10088ff0 f i shaderlib:ShaderDLL.obj
 0002:00036050       ?Purge@?$CUtlVector@PBUShaderComboSemantics_t@@V?$CUtlMemory@PBUShaderComboSemantics_t@@H@@@@QAEXXZ 10089050 f i shaderlib:ShaderDLL.obj
 0002:000360c0       ??1?$CUtlMemory@PBUShaderComboSemantics_t@@H@@QAE@XZ 100890c0 f i shaderlib:ShaderDLL.obj
 0002:00036110       ?RemoveAll@?$CUtlVector@PBUShaderComboSemantics_t@@V?$CUtlMemory@PBUShaderComboSemantics_t@@H@@@@QAEXXZ 10089110 f i shaderlib:ShaderDLL.obj
 0002:000361a0       ?Purge@?$CUtlMemory@PBUShaderComboSemantics_t@@H@@QAEXXZ 100891a0 f i shaderlib:ShaderDLL.obj
 0002:00036250       ??$Destruct@PBUShaderComboSemantics_t@@@@YAXPAPBUShaderComboSemantics_t@@@Z 10089250 f i shaderlib:ShaderDLL.obj
 0002:000362b0       ?InitShaderLibCVars@@YAXP6APAXPBDPAH@Z@Z 100892b0 f   shaderlib:shaderlib_cvar.obj
 0002:00036310       ??0CShaderLibConVarAccessor@@QAE@XZ 10089310 f i shaderlib:shaderlib_cvar.obj
 0002:00036370       ?RegisterConCommandBase@CShaderLibConVarAccessor@@UAE_NPAVConCommandBase@@@Z 10089370 f i shaderlib:shaderlib_cvar.obj
 0002:00036480       ??0IConCommandBaseAccessor@@QAE@XZ 10089480 f i shaderlib:shaderlib_cvar.obj
 0002:000364c4       __ExitOnFatalAssert        100894c4 f   tier0:tier0.dll
 0002:000364ca       _DoNewAssertDialog         100894ca f   tier0:tier0.dll
 0002:000364d0       _ShouldUseNewAssertDialog  100894d0 f   tier0:tier0.dll
 0002:000364d6       _LoggingSystem_LogAssert   100894d6 f   tier0:tier0.dll
 0002:000364dc       _CommandLine               100894dc f   tier0:tier0.dll
 0002:000364e2       _g_pMemAlloc               100894e2 f   tier0:tier0.dll
 0002:000364e8       _Error                     100894e8 f   tier0:tier0.dll
 0002:000364ee       _GetCPUInformation         100894ee f   tier0:tier0.dll
 0002:000364f4       _ThreadSleep               100894f4 f   tier0:tier0.dll
 0002:00036500       ?CRC32_Init@@YAXPAK@Z      10089500 f   tier1:checksum_crc.obj
 0002:00036510       ?CRC32_Final@@YAXPAK@Z     10089510 f   tier1:checksum_crc.obj
 0002:00036520       ?CRC32_GetTableEntry@@YAKI@Z 10089520 f   tier1:checksum_crc.obj
 0002:00036530       ?CRC32_ProcessBuffer@@YAXPAKPBXH@Z 10089530 f   tier1:checksum_crc.obj
 0002:00036fb0       ?MD5Init@@YAXPAUMD5Context_t@@@Z 10089fb0 f   tier1:checksum_md5.obj
 0002:00036ff0       ?MD5Update@@YAXPAUMD5Context_t@@PBEI@Z 10089ff0 f   tier1:checksum_md5.obj
 0002:000370e0       ?MD5Final@@YAXQAEPAUMD5Context_t@@@Z 1008a0e0 f   tier1:checksum_md5.obj
 0002:000371a0       ?MD5_Print@@YAPADPAEH@Z    1008a1a0 f   tier1:checksum_md5.obj
 0002:000371d0       ?MD5_PseudoRandom@@YAII@Z  1008a1d0 f   tier1:checksum_md5.obj
 0002:00037260       ??0Color@@QAE@XZ           1008a260 f i tier1:convar.obj
 0002:00037270       ??AColor@@QAEAAEH@Z        1008a270 f i tier1:convar.obj
 0002:00037280       ?IndirectAlloc@IMemAlloc@@QAEPAXI@Z 1008a280 f i tier1:convar.obj
 0002:00037290       ?MemAlloc_Alloc@@YAPAXI@Z  1008a290 f i tier1:convar.obj
 0002:000372b0       ?ArgC@CCommand@@QBEHXZ     1008a2b0 f i tier1:convar.obj
 0002:000372c0       ?Arg@CCommand@@QBEPBDH@Z   1008a2c0 f i tier1:convar.obj
 0002:000372f0       ?GetString@ConVar@@QBEPBDXZ 1008a2f0 f i tier1:convar.obj
 0002:00037320       ?TellGet@CUtlBuffer@@QBEHXZ 1008a320 f i tier1:convar.obj
 0002:00037330       ?IsValid@CUtlBuffer@@QBE_NXZ 1008a330 f i tier1:convar.obj
 0002:00037340       ?ConVar_Register@@YAXHPAVIConCommandBaseAccessor@@@Z 1008a340 f   tier1:convar.obj
 0002:00037420       ?ConVar_Unregister@@YAXXZ  1008a420 f   tier1:convar.obj
 0002:00037480       ??0ConCommandBase@@QAE@XZ  1008a480 f   tier1:convar.obj
 0002:000374a0       ??1ConCommandBase@@UAE@XZ  1008a4a0 f   tier1:convar.obj
 0002:000374b0       ?IsCommand@ConCommandBase@@UBE_NXZ 1008a4b0 f   tier1:convar.obj
 0002:000374c0       ?GetDLLIdentifier@ConCommandBase@@UBEHXZ 1008a4c0 f   tier1:convar.obj
 0002:000374d0       ?Create@ConCommandBase@@MAEXPBD0H@Z 1008a4d0 f   tier1:convar.obj
 0002:00037530       ?Init@ConCommandBase@@MAEXXZ 1008a530 f   tier1:convar.obj
 0002:00037550       ?Shutdown@ConCommandBase@@IAEXXZ 1008a550 f   tier1:convar.obj
 0002:00037570       ?GetName@ConCommandBase@@UBEPBDXZ 1008a570 f   tier1:convar.obj
 0002:00037580       ?IsFlagSet@ConCommandBase@@UBE_NH@Z 1008a580 f   tier1:convar.obj
 0002:00037590       ?AddFlags@ConCommandBase@@UAEXH@Z 1008a590 f   tier1:convar.obj
 0002:000375a0       ?RemoveFlags@ConCommandBase@@UAEXH@Z 1008a5a0 f   tier1:convar.obj
 0002:000375b0       ?GetFlags@ConCommandBase@@UBEHXZ 1008a5b0 f   tier1:convar.obj
 0002:000375c0       ?GetNext@ConCommandBase@@QBEPBV1@XZ 1008a5c0 f   tier1:convar.obj
 0002:000375d0       ?GetNext@ConCommandBase@@QAEPAV1@XZ 1008a5d0 f   tier1:convar.obj
 0002:000375e0       ?CopyString@ConCommandBase@@IAEPADPBD@Z 1008a5e0 f   tier1:convar.obj
 0002:00037650       ?GetHelpText@ConCommandBase@@UBEPBDXZ 1008a650 f   tier1:convar.obj
 0002:00037660       ?IsRegistered@ConCommandBase@@UBE_NXZ 1008a660 f   tier1:convar.obj
 0002:00037670       ?Reset@CCommand@@QAEXXZ    1008a670 f   tier1:convar.obj
 0002:00037680       ?DefaultBreakSet@CCommand@@SAPAUcharacterset_t@@XZ 1008a680 f   tier1:convar.obj
 0002:00037690       ?FindArg@CCommand@@QBEPBDPBD@Z 1008a690 f   tier1:convar.obj
 0002:00037730       ?FindArgInt@CCommand@@QBEHPBDH@Z 1008a730 f   tier1:convar.obj
 0002:00037760       ?DefaultCompletionFunc@@YAHPBDQAY0EA@D@Z 1008a760 f   tier1:convar.obj
 0002:00037770       ??0ConCommand@@QAE@PBDP6AXXZ0HP6AH0QAY0EA@D@Z@Z 1008a770 f   tier1:convar.obj
 0002:00037830       ??0ConCommand@@QAE@PBDP6AXABVCCommand@@@Z0HP6AH0QAY0EA@D@Z@Z 1008a830 f   tier1:convar.obj
 0002:000378f0       ??0ConCommand@@QAE@PBDPAVICommandCallback@@0HPAVICommandCompletionCallback@@@Z 1008a8f0 f   tier1:convar.obj
 0002:000379a0       ??1ConCommand@@UAE@XZ      1008a9a0 f   tier1:convar.obj
 0002:000379b0       ?IsCommand@ConCommand@@UBE_NXZ 1008a9b0 f   tier1:convar.obj
 0002:000379c0       ?Dispatch@ConCommand@@UAEXABVCCommand@@@Z 1008a9c0 f   tier1:convar.obj
 0002:00037a10       ?CanAutoComplete@ConCommand@@UAE_NXZ 1008aa10 f   tier1:convar.obj
 0002:00037a20       ??0IConVar@@QAE@XZ         1008aa20 f i tier1:convar.obj
 0002:00037a30       ?IsFlagSet@ConVar@@UBE_NH@Z 1008aa30 f   tier1:convar.obj
 0002:00037a50       ?GetFlags@ConVar@@UBEHXZ   1008aa50 f   tier1:convar.obj
 0002:00037a60       ?GetHelpText@ConVar@@UBEPBDXZ 1008aa60 f   tier1:convar.obj
 0002:00037a70       ?AddFlags@ConVar@@UAEXH@Z  1008aa70 f   tier1:convar.obj
 0002:00037a80       ?IsRegistered@ConVar@@UBE_NXZ 1008aa80 f   tier1:convar.obj
 0002:00037a90       ?GetName@ConVar@@UBEPBDXZ  1008aa90 f   tier1:convar.obj
 0002:00037aa0       ?GetBaseName@ConVar@@UBEPBDXZ 1008aaa0 f   tier1:convar.obj
 0002:00037ab0       ?GetSplitScreenPlayerSlot@ConVar@@UBEHXZ 1008aab0 f   tier1:convar.obj
 0002:00037ac0       ?IsCommand@ConVar@@UBE_NXZ 1008aac0 f   tier1:convar.obj
 0002:00037ad0       ?Init@ConVar@@EAEXXZ       1008aad0 f   tier1:convar.obj
 0002:00037af0       ?InternalSetColorFromString@ConVar@@AAE_NPBD@Z 1008aaf0 f   tier1:convar.obj
 0002:00037bc0       ?InternalSetValue@ConVar@@EAEXPBD@Z 1008abc0 f   tier1:convar.obj
 0002:00037d30       ?ClampValue@ConVar@@EAE_NAAM@Z 1008ad30 f   tier1:convar.obj
 0002:00037d80       ?InternalSetFloatValue@ConVar@@EAEXM@Z 1008ad80 f   tier1:convar.obj
 0002:00037e90       ?InternalSetIntValue@ConVar@@EAEXH@Z 1008ae90 f   tier1:convar.obj
 0002:00037f90       ?InternalSetColorValue@ConVar@@EAEXVColor@@@Z 1008af90 f   tier1:convar.obj
 0002:00037fd0       ?SetValue@ConVar@@UAEXPBD@Z 1008afd0 f   tier1:convar.obj
 0002:00037fe0       ?SetValue@ConVar@@UAEXM@Z  1008afe0 f   tier1:convar.obj
 0002:00038000       ?SetValue@ConVar@@UAEXH@Z  1008b000 f   tier1:convar.obj
 0002:00038010       ?SetValue@ConVar@@UAEXVColor@@@Z 1008b010 f   tier1:convar.obj
 0002:00038020       ?Revert@ConVar@@QAEXXZ     1008b020 f   tier1:convar.obj
 0002:00038040       ?GetMin@ConVar@@QBE_NAAM@Z 1008b040 f   tier1:convar.obj
 0002:00038060       ?GetMax@ConVar@@QBE_NAAM@Z 1008b060 f   tier1:convar.obj
 0002:00038080       ?GetMinValue@ConVar@@QBEMXZ 1008b080 f   tier1:convar.obj
 0002:00038090       ?GetMaxValue@ConVar@@QBEMXZ 1008b090 f   tier1:convar.obj
 0002:000380a0       ?HasMin@ConVar@@QBE_NXZ    1008b0a0 f   tier1:convar.obj
 0002:000380b0       ?HasMax@ConVar@@QBE_NXZ    1008b0b0 f   tier1:convar.obj
 0002:000380c0       ?GetDefault@ConVar@@QBEPBDXZ 1008b0c0 f   tier1:convar.obj
 0002:000380d0       ??0ConVarRef@@QAE@PAVIConVar@@@Z 1008b0d0 f   tier1:convar.obj
 0002:00038100       ?IsValid@ConVarRef@@QBE_NXZ 1008b100 f   tier1:convar.obj
 0002:00038110       ??0SplitScreenConVarRef@@QAE@PAVIConVar@@@Z 1008b110 f   tier1:convar.obj
 0002:00038230       ?IsValid@SplitScreenConVarRef@@QBE_NXZ 1008b230 f   tier1:convar.obj
 0002:00038240       ?ConVar_AppendFlags@@YAXPBVConCommandBase@@PADI@Z 1008b240 f   tier1:convar.obj
 0002:00038350       ?ConVar_PrintDescription@@YAXPBVConCommandBase@@@Z 1008b350 f   tier1:convar.obj
 0002:000386f0       ?IsExternallyAllocated@?$CUtlMemory@EH@@QBE_NXZ 1008b6f0 f i tier1:convar.obj
 0002:00038700       ?Count@?$CUtlVector@P6AXPAVIConVar@@PBDM@ZV?$CUtlMemory@P6AXPAVIConVar@@PBDM@ZH@@@@QBEHXZ 1008b700 f i tier1:convar.obj
 0002:00038710       ?InvalidIndex@?$CUtlVector@P6AXPAVIConVar@@PBDM@ZV?$CUtlMemory@P6AXPAVIConVar@@PBDM@ZH@@@@SAHXZ 1008b710 f i tier1:convar.obj
 0002:00038720       ??A?$CUtlMemory@P6AXPAVIConVar@@PBDM@ZH@@QAEAAP6AXPAVIConVar@@PBDM@ZH@Z 1008b720 f i tier1:convar.obj
 0002:00038730       ?Base@?$CUtlMemory@P6AXPAVIConVar@@PBDM@ZH@@QAEPAP6AXPAVIConVar@@PBDM@ZXZ 1008b730 f i tier1:convar.obj
 0002:00038740       ?ValidateGrowSize@?$CUtlMemory@P6AXPAVIConVar@@PBDM@ZH@@IAEXXZ 1008b740 f i tier1:convar.obj
 0002:00038750       ?Element@?$CUtlVector@P6AXPAVIConVar@@PBDM@ZV?$CUtlMemory@P6AXPAVIConVar@@PBDM@ZH@@@@QAEAAP6AXPAVIConVar@@PBDM@ZH@Z 1008b750 f i tier1:convar.obj
 0002:00038760       ?ShiftElementsRight@?$CUtlVector@P6AXPAVIConVar@@PBDM@ZV?$CUtlMemory@P6AXPAVIConVar@@PBDM@ZH@@@@IAEXHH@Z 1008b760 f i tier1:convar.obj
 0002:000387b0       ?ShiftElementsLeft@?$CUtlVector@P6AXPAVIConVar@@PBDM@ZV?$CUtlMemory@P6AXPAVIConVar@@PBDM@ZH@@@@IAEXHH@Z 1008b7b0 f i tier1:convar.obj
 0002:00038800       ??A?$CUtlMemory@P6AXPAVIConVar@@PBDM@ZH@@QBEABQ6AXPAVIConVar@@PBDM@ZH@Z 1008b800 f i tier1:convar.obj
 0002:00038810       ??$CopyConstruct@P6AXPAVIConVar@@PBDM@Z@@YAPAP6AXPAVIConVar@@PBDM@ZPAP6AX01M@ZABQ6AX01M@Z@Z 1008b810 f i tier1:convar.obj
 0002:00038830       ??$Destruct@P6AXPAVIConVar@@PBDM@Z@@YAXPAP6AXPAVIConVar@@PBDM@Z@Z 1008b830 f i tier1:convar.obj
 0002:00038840       ??$CopyConstruct@VCUtlString@@@@YAPAVCUtlString@@PAV0@ABV0@@Z 1008b840 f i tier1:convar.obj
 0002:00038860       ?NumAllocated@?$CUtlMemory@P6AXPAVIConVar@@PBDM@ZH@@QBEHXZ 1008b860 f i tier1:convar.obj
 0002:00038870       ?IsExternallyAllocated@?$CUtlMemory@P6AXPAVIConVar@@PBDM@ZH@@QBE_NXZ 1008b870 f i tier1:convar.obj
 0002:00038880       ??A?$CUtlMemory@VCUtlString@@H@@QAEAAVCUtlString@@H@Z 1008b880 f i tier1:convar.obj
 0002:00038890       ?Base@?$CUtlMemory@VCUtlString@@H@@QAEPAVCUtlString@@XZ 1008b890 f i tier1:convar.obj
 0002:000388a0       ?NumAllocated@?$CUtlMemory@VCUtlString@@H@@QBEHXZ 1008b8a0 f i tier1:convar.obj
 0002:000388b0       ?IsExternallyAllocated@?$CUtlMemory@VCUtlString@@H@@QBE_NXZ 1008b8b0 f i tier1:convar.obj
 0002:000388c0       ??0CDefaultAccessor@@QAE@XZ 1008b8c0 f i tier1:convar.obj
 0002:000388d0       ?RegisterConCommandBase@CDefaultAccessor@@UAE_NPAVConCommandBase@@@Z 1008b8d0 f i tier1:convar.obj
 0002:000388f0       ??_GConCommandBase@@UAEPAXI@Z 1008b8f0 f i tier1:convar.obj
 0002:000388f0       ??_EConCommandBase@@UAEPAXI@Z 1008b8f0 f i tier1:convar.obj
 0002:00038920       ??0ConCommandBase@@QAE@PBD0H@Z 1008b920 f   tier1:convar.obj
 0002:000389a0       ??0CCommand@@QAE@XZ        1008b9a0 f   tier1:convar.obj
 0002:000389f0       ??0CCommand@@QAE@HPAPBD@Z  1008b9f0 f   tier1:convar.obj
 0002:00038b60       ??_EConCommand@@UAEPAXI@Z  1008bb60 f i tier1:convar.obj
 0002:00038b60       ??_GConCommand@@UAEPAXI@Z  1008bb60 f i tier1:convar.obj
 0002:00038b90       ?Init@ConVarRef@@QAEXPBD_N@Z 1008bb90 f   tier1:convar.obj
 0002:00038c30       ?Init@SplitScreenConVarRef@@QAEXPBD_N@Z 1008bc30 f   tier1:convar.obj
 0002:00038d60       ?Purge@?$CUtlMemory@EH@@QAEXXZ 1008bd60 f i tier1:convar.obj
 0002:00038da0       ??A?$CUtlVector@P6AXPAVIConVar@@PBDM@ZV?$CUtlMemory@P6AXPAVIConVar@@PBDM@ZH@@@@QAEAAP6AXPAVIConVar@@PBDM@ZH@Z 1008bda0 f i tier1:convar.obj
 0002:00038db0       ?Base@?$CUtlVector@P6AXPAVIConVar@@PBDM@ZV?$CUtlMemory@P6AXPAVIConVar@@PBDM@ZH@@@@QAEPAP6AXPAVIConVar@@PBDM@ZXZ 1008bdb0 f i tier1:convar.obj
 0002:00038dc0       ?Element@?$CUtlVector@P6AXPAVIConVar@@PBDM@ZV?$CUtlMemory@P6AXPAVIConVar@@PBDM@ZH@@@@QBEABQ6AXPAVIConVar@@PBDM@ZH@Z 1008bdc0 f i tier1:convar.obj
 0002:00038dd0       ?Remove@?$CUtlVector@P6AXPAVIConVar@@PBDM@ZV?$CUtlMemory@P6AXPAVIConVar@@PBDM@ZH@@@@QAEXH@Z 1008bdd0 f i tier1:convar.obj
 0002:00038e10       ??0?$CUtlMemory@P6AXPAVIConVar@@PBDM@ZH@@QAE@HH@Z 1008be10 f i tier1:convar.obj
 0002:00038e60       ?RemoveAll@?$CUtlVector@P6AXPAVIConVar@@PBDM@ZV?$CUtlMemory@P6AXPAVIConVar@@PBDM@ZH@@@@QAEXXZ 1008be60 f i tier1:convar.obj
 0002:00038e70       ?Purge@?$CUtlMemory@P6AXPAVIConVar@@PBDM@ZH@@QAEXXZ 1008be70 f i tier1:convar.obj
 0002:00038eb0       ?Element@?$CUtlVector@VCUtlString@@V?$CUtlMemory@VCUtlString@@H@@@@QAEAAVCUtlString@@H@Z 1008beb0 f i tier1:convar.obj
 0002:00038ec0       ?ShiftElementsRight@?$CUtlVector@VCUtlString@@V?$CUtlMemory@VCUtlString@@H@@@@IAEXHH@Z 1008bec0 f i tier1:convar.obj
 0002:00038f10       ?Base@?$CUtlVector@VCUtlString@@V?$CUtlMemory@VCUtlString@@H@@@@QAEPAVCUtlString@@XZ 1008bf10 f i tier1:convar.obj
 0002:00038f20       ?Grow@?$CUtlMemory@P6AXPAVIConVar@@PBDM@ZH@@QAEXH@Z 1008bf20 f i tier1:convar.obj
 0002:00038fe0       ?Grow@?$CUtlMemory@VCUtlString@@H@@QAEXH@Z 1008bfe0 f i tier1:convar.obj
 0002:00039090       ?ChangeStringValue@ConVar@@EAEXPBDM@Z 1008c090 f   tier1:convar.obj
 0002:00039170       ??0ConVarRef@@QAE@PBD@Z    1008c170 f   tier1:convar.obj
 0002:00039190       ??0ConVarRef@@QAE@PBD_N@Z  1008c190 f   tier1:convar.obj
 0002:000391b0       ??0SplitScreenConVarRef@@QAE@PBD@Z 1008c1b0 f   tier1:convar.obj
 0002:000391d0       ??0SplitScreenConVarRef@@QAE@PBD_N@Z 1008c1d0 f   tier1:convar.obj
 0002:000391f0       ??1?$CUtlMemory@EH@@QAE@XZ 1008c1f0 f i tier1:convar.obj
 0002:00039230       ?Find@?$CUtlVector@P6AXPAVIConVar@@PBDM@ZV?$CUtlMemory@P6AXPAVIConVar@@PBDM@ZH@@@@QBEHABQ6AXPAVIConVar@@PBDM@Z@Z 1008c230 f i tier1:convar.obj
 0002:00039260       ?FindAndRemove@?$CUtlVector@P6AXPAVIConVar@@PBDM@ZV?$CUtlMemory@P6AXPAVIConVar@@PBDM@ZH@@@@QAE_NABQ6AXPAVIConVar@@PBDM@Z@Z 1008c260 f i tier1:convar.obj
 0002:000392e0       ?ResetDbgInfo@?$CUtlVector@P6AXPAVIConVar@@PBDM@ZV?$CUtlMemory@P6AXPAVIConVar@@PBDM@ZH@@@@IAEXXZ 1008c2e0 f i tier1:convar.obj
 0002:000392f0       ?Purge@?$CUtlVector@P6AXPAVIConVar@@PBDM@ZV?$CUtlMemory@P6AXPAVIConVar@@PBDM@ZH@@@@QAEXXZ 1008c2f0 f i tier1:convar.obj
 0002:00039350       ??1?$CUtlMemory@P6AXPAVIConVar@@PBDM@ZH@@QAE@XZ 1008c350 f i tier1:convar.obj
 0002:00039390       ?GrowVector@?$CUtlVector@P6AXPAVIConVar@@PBDM@ZV?$CUtlMemory@P6AXPAVIConVar@@PBDM@ZH@@@@IAEXH@Z 1008c390 f i tier1:convar.obj
 0002:000393d0       ?ResetDbgInfo@?$CUtlVector@VCUtlString@@V?$CUtlMemory@VCUtlString@@H@@@@IAEXXZ 1008c3d0 f i tier1:convar.obj
 0002:000393e0       ??1CUtlBuffer@@QAE@XZ      1008c3e0 f i tier1:convar.obj
 0002:00039420       ??1CUtlBinaryBlock@@QAE@XZ 1008c420 f i tier1:convar.obj
 0002:00039460       ?RemoveChangeCallback@ConVar@@QAEXP6AXPAVIConVar@@PBDM@Z@Z 1008c460 f   tier1:convar.obj
 0002:00039480       ??0?$CUtlVector@P6AXPAVIConVar@@PBDM@ZV?$CUtlMemory@P6AXPAVIConVar@@PBDM@ZH@@@@QAE@HH@Z 1008c480 f i tier1:convar.obj
 0002:000394e0       ??1?$CUtlVector@P6AXPAVIConVar@@PBDM@ZV?$CUtlMemory@P6AXPAVIConVar@@PBDM@ZH@@@@QAE@XZ 1008c4e0 f i tier1:convar.obj
 0002:00039560       ?InsertBefore@?$CUtlVector@P6AXPAVIConVar@@PBDM@ZV?$CUtlMemory@P6AXPAVIConVar@@PBDM@ZH@@@@QAEHHABQ6AXPAVIConVar@@PBDM@Z@Z 1008c560 f i tier1:convar.obj
 0002:000395e0       ?GrowVector@?$CUtlVector@VCUtlString@@V?$CUtlMemory@VCUtlString@@H@@@@IAEXH@Z 1008c5e0 f i tier1:convar.obj
 0002:00039620       ?Tokenize@CCommand@@QAE_NPBDPAUcharacterset_t@@@Z 1008c620 f   tier1:convar.obj
 0002:00039820       ??1CUtlString@@QAE@XZ      1008c820 f i tier1:convar.obj
 0002:00039860       ??1ConVar@@UAE@XZ          1008c860 f   tier1:convar.obj
 0002:000398b0       ?GetName@ConVar@@WBI@BEPBDXZ 1008c8b0 f i tier1:convar.obj
 0002:000398c0       ?IsFlagSet@ConVar@@WBI@BE_NH@Z 1008c8c0 f i tier1:convar.obj
 0002:000398d0       ??1CEmptyConVar@@UAE@XZ    1008c8d0 f i tier1:convar.obj
 0002:00039920       ?AddToTail@?$CUtlVector@P6AXPAVIConVar@@PBDM@ZV?$CUtlMemory@P6AXPAVIConVar@@PBDM@ZH@@@@QAEHABQ6AXPAVIConVar@@PBDM@Z@Z 1008c920 f i tier1:convar.obj
 0002:00039940       ?InsertBefore@?$CUtlVector@VCUtlString@@V?$CUtlMemory@VCUtlString@@H@@@@QAEHHABVCUtlString@@@Z 1008c940 f i tier1:convar.obj
 0002:000399d0       ??_EConVar@@UAEPAXI@Z      1008c9d0 f i tier1:convar.obj
 0002:000399d0       ??_GConVar@@UAEPAXI@Z      1008c9d0 f i tier1:convar.obj
 0002:00039a30       ?InstallChangeCallback@ConVar@@QAEXP6AXPAVIConVar@@PBDM@Z_N@Z 1008ca30 f   tier1:convar.obj
 0002:00039ae0       ?Create@ConVar@@EAEXPBD0H0_NM1MP6AXPAVIConVar@@0M@Z@Z 1008cae0 f   tier1:convar.obj
 0002:00039c70       ?AddToTail@?$CUtlVector@VCUtlString@@V?$CUtlMemory@VCUtlString@@H@@@@QAEHABVCUtlString@@@Z 1008cc70 f i tier1:convar.obj
 0002:00039c90       ?AutoCompleteSuggest@ConCommand@@UAEHPBDAAV?$CUtlVector@VCUtlString@@V?$CUtlMemory@VCUtlString@@H@@@@@Z 1008cc90 f   tier1:convar.obj
 0002:00039da0       ??0ConVar@@QAE@PBD0H@Z     1008cda0 f   tier1:convar.obj
 0002:00039e20       ??0ConVar@@QAE@PBD0H0@Z    1008ce20 f   tier1:convar.obj
 0002:00039ea0       ??0ConVar@@QAE@PBD0H0_NM1M@Z 1008cea0 f   tier1:convar.obj
 0002:00039f30       ??0ConVar@@QAE@PBD0H0P6AXPAVIConVar@@0M@Z@Z 1008cf30 f   tier1:convar.obj
 0002:00039fc0       ??0ConVar@@QAE@PBD0H0_NM1MP6AXPAVIConVar@@0M@Z@Z 1008cfc0 f   tier1:convar.obj
 0002:0003a060       ??0CEmptyConVar@@QAE@XZ    1008d060 f i tier1:convar.obj
 0002:0003a090       ?SetValue@CEmptyConVar@@UAEXPBD@Z 1008d090 f i tier1:convar.obj
 0002:0003a0a0       ?SetValue@CEmptyConVar@@UAEXM@Z 1008d0a0 f i tier1:convar.obj
 0002:0003a0b0       ?SetValue@CEmptyConVar@@UAEXH@Z 1008d0b0 f i tier1:convar.obj
 0002:0003a0c0       ?GetName@CEmptyConVar@@UBEPBDXZ 1008d0c0 f i tier1:convar.obj
 0002:0003a0d0       ?IsFlagSet@CEmptyConVar@@UBE_NH@Z 1008d0d0 f i tier1:convar.obj
 0002:0003a0e0       ?GetName@CEmptyConVar@@WBI@BEPBDXZ 1008d0e0 f i tier1:convar.obj
 0002:0003a0f0       ?IsFlagSet@CEmptyConVar@@WBI@BE_NH@Z 1008d0f0 f i tier1:convar.obj
 0002:0003a100       ??_GCEmptyConVar@@UAEPAXI@Z 1008d100 f i tier1:convar.obj
 0002:0003a100       ??_ECEmptyConVar@@UAEPAXI@Z 1008d100 f i tier1:convar.obj
 0002:0003a160       ?strchr@@YAPADPADH@Z       1008d160 f i tier1:strtools.obj
 0002:0003a170       ?strstr@@YAPADPADPBD@Z     1008d170 f i tier1:strtools.obj
 0002:0003a180       ?_V_strlen@@YAHPBD@Z       1008d180 f   tier1:strtools.obj
 0002:0003a1c0       ?_V_wcslen@@YAHPB_W@Z      1008d1c0 f   tier1:strtools.obj
 0002:0003a1e0       ?_V_strrchr@@YAPADPBDD@Z   1008d1e0 f   tier1:strtools.obj
 0002:0003a250       ?_V_strcmp@@YAHPBD0@Z      1008d250 f   tier1:strtools.obj
 0002:0003a2c0       ?_V_wcscmp@@YAHPB_W0@Z     1008d2c0 f   tier1:strtools.obj
 0002:0003a300       ?_V_stricmp@@YAHPBD0@Z     1008d300 f   tier1:strtools.obj
 0002:0003a3a0       ?_V_stricmp_NegativeForUnequal@@YAHPBD0@Z 1008d3a0 f   tier1:strtools.obj
 0002:0003a460       ?_V_strstr@@YAPADPBD0@Z    1008d460 f   tier1:strtools.obj
 0002:0003a4a0       ?_V_strupr@@YAPADPAD@Z     1008d4a0 f   tier1:strtools.obj
 0002:0003a4d0       ?_V_strlower@@YAPADPAD@Z   1008d4d0 f   tier1:strtools.obj
 0002:0003a500       ?V_strncmp@@YAHPBD0H@Z     1008d500 f   tier1:strtools.obj
 0002:0003a570       ?V_strnlwr@@YAPADPADI@Z    1008d570 f   tier1:strtools.obj
 0002:0003a5d0       ?V_strncasecmp@@YAHPBD0H@Z 1008d5d0 f   tier1:strtools.obj
 0002:0003a670       ?V_strcasecmp@@YAHPBD0@Z   1008d670 f   tier1:strtools.obj
 0002:0003a6b0       ?V_strnicmp@@YAHPBD0H@Z    1008d6b0 f   tier1:strtools.obj
 0002:0003a700       ?StringAfterPrefix@@YAPBDPBD0@Z 1008d700 f   tier1:strtools.obj
 0002:0003a770       ?StringAfterPrefixCaseSensitive@@YAPBDPBD0@Z 1008d770 f   tier1:strtools.obj
 0002:0003a7d0       ?V_atoi64@@YA_JPBD@Z       1008d7d0 f   tier1:strtools.obj
 0002:0003a9e0       ?V_atoui64@@YA_KPBD@Z      1008d9e0 f   tier1:strtools.obj
 0002:0003ab80       ?V_atoi@@YAHPBD@Z          1008db80 f   tier1:strtools.obj
 0002:0003ab90       ?V_normalizeFloatString@@YAXPAD@Z 1008db90 f   tier1:strtools.obj
 0002:0003ac20       ?tolower_fast@@YAEE@Z      1008dc20 f i tier1:strtools.obj
 0002:0003ac40       ?V_stristr@@YAPBDPBD0@Z    1008dc40 f   tier1:strtools.obj
 0002:0003ad50       ?V_stristr@@YAPADPADPBD@Z  1008dd50 f   tier1:strtools.obj
 0002:0003ad90       ?V_strnistr@@YAPBDPBD0H@Z  1008dd90 f   tier1:strtools.obj
 0002:0003aec0       ?V_strnchr@@YAPBDPBDDH@Z   1008dec0 f   tier1:strtools.obj
 0002:0003af00       ?V_strncat@@YAPADPADPBDIH@Z 1008df00 f   tier1:strtools.obj
 0002:0003aff0       ?V_hextobinary@@YAXPBDHPAEH@Z 1008dff0 f   tier1:strtools.obj
 0002:0003b120       ?V_StripTrailingSlash@@YAXPAD@Z 1008e120 f   tier1:strtools.obj
 0002:0003b180       ?V_StripFilename@@YAXPAD@Z 1008e180 f   tier1:strtools.obj
 0002:0003b1e0       ?V_FixSlashes@@YAXPADD@Z   1008e1e0 f   tier1:strtools.obj
 0002:0003b210       ?V_UnqualifiedFileName@@YAPBDPBD@Z 1008e210 f   tier1:strtools.obj
 0002:0003b260       ?V_ExtractFilePath@@YA_NPBDPADH@Z 1008e260 f   tier1:strtools.obj
 0002:0003b300       ?V_GetFileExtension@@YAPBDPBD@Z 1008e300 f   tier1:strtools.obj
 0002:0003b360       ?V_RemoveDotSlashes@@YA_NPADD@Z 1008e360 f   tier1:strtools.obj
 0002:0003b510       ?V_AppendSlash@@YAXPADH@Z  1008e510 f   tier1:strtools.obj
 0002:0003b590       ?V_MakeRelativePath@@YA_NPBD0PADH@Z 1008e590 f   tier1:strtools.obj
 0002:0003b720       ?V_IsAbsolutePath@@YA_NPBD@Z 1008e720 f   tier1:strtools.obj
 0002:0003b7c0       ?V_GetCurrentDirectory@@YA_NPADH@Z 1008e7c0 f   tier1:strtools.obj
 0002:0003b7f0       ?V_SetCurrentDirectory@@YA_NPBD@Z 1008e7f0 f   tier1:strtools.obj
 0002:0003b810       ?V_StrSlice@@YAXPBDHHPADH@Z 1008e810 f   tier1:strtools.obj
 0002:0003b8f0       ?V_StrLeft@@YAXPBDHPADH@Z  1008e8f0 f   tier1:strtools.obj
 0002:0003b930       ?V_strtowcs@@YAXPBDHPA_WH@Z 1008e930 f   tier1:strtools.obj
 0002:0003b970       ?V_wcstostr@@YAXPB_WHPADH@Z 1008e970 f   tier1:strtools.obj
 0002:0003b9b0       ?V_AddBackSlashesToSpecialChars@@YAPADPBD@Z 1008e9b0 f   tier1:strtools.obj
 0002:0003ba80       ?CopyMemory3D@@YAXPAXPBXHHHHHHH@Z 1008ea80 f   tier1:strtools.obj
 0002:0003bbb0       ?V_TranslateLineFeedsToUnix@@YAXPAD@Z 1008ebb0 f   tier1:strtools.obj
 0002:0003bbf0       ?HexToValue@@YAHD@Z        1008ebf0 f   tier1:strtools.obj
 0002:0003bc40       ?V_StringToBin@@YA_NPBDPAXI@Z 1008ec40 f   tier1:strtools.obj
 0002:0003bd70       ?V_BinToString@@YA_NPADPAXI@Z 1008ed70 f   tier1:strtools.obj
 0002:0003bdf0       ??$_Pow_int@N@@YANNH@Z     1008edf0 f i tier1:strtools.obj
 0002:0003be70       ??$AssertValidWritePtr@X@@YAXPAXH@Z 1008ee70 f i tier1:strtools.obj
 0002:0003be80       ??$AssertValidReadPtr@$$CBX@@YAXPBXH@Z 1008ee80 f i tier1:strtools.obj
 0002:0003be90       ??$AssertValidWritePtr@D@@YAXPADH@Z 1008ee90 f i tier1:strtools.obj
 0002:0003bea0       ??$AssertValidWritePtr@_W@@YAXPA_WH@Z 1008eea0 f i tier1:strtools.obj
 0002:0003beb0       ??$AssertValidReadPtr@$$CB_W@@YAXPB_WH@Z 1008eeb0 f i tier1:strtools.obj
 0002:0003bec0       ??A?$CUtlMemory@PADH@@QAEAAPADH@Z 1008eec0 f i tier1:strtools.obj
 0002:0003bed0       ?Base@?$CUtlMemory@PADH@@QAEPAPADXZ 1008eed0 f i tier1:strtools.obj
 0002:0003bee0       ?Element@?$CUtlVector@PADV?$CUtlMemory@PADH@@@@QAEAAPADH@Z 1008eee0 f i tier1:strtools.obj
 0002:0003bef0       ??$CopyConstruct@PAD@@YAPAPADPAPADABQAD@Z 1008eef0 f i tier1:strtools.obj
 0002:0003bf10       ??$Destruct@PAD@@YAXPAPAD@Z 1008ef10 f i tier1:strtools.obj
 0002:0003bf20       ?IsExternallyAllocated@?$CUtlMemory@PADH@@QBE_NXZ 1008ef20 f i tier1:strtools.obj
 0002:0003bf30       ?NumAllocated@?$CUtlMemory@PADH@@QBEHXZ 1008ef30 f i tier1:strtools.obj
 0002:0003bf40       ?Grow@?$CUtlMemory@PADH@@QAEXH@Z 1008ef40 f i tier1:strtools.obj
 0002:0003c000       ?pow@@YANNH@Z              1008f000 f i tier1:strtools.obj
 0002:0003c020       ?_V_memset@@YAXPAXHH@Z     1008f020 f   tier1:strtools.obj
 0002:0003c050       ?_V_memcpy@@YAXPAXPBXH@Z   1008f050 f   tier1:strtools.obj
 0002:0003c090       ?_V_memmove@@YAXPAXPBXH@Z  1008f090 f   tier1:strtools.obj
 0002:0003c0d0       ?_V_memcmp@@YAHPBX0H@Z     1008f0d0 f   tier1:strtools.obj
 0002:0003c1b0       ?_V_strcpy@@YAXPADPBD@Z    1008f1b0 f   tier1:strtools.obj
 0002:0003c200       ?V_atof@@YAMPBD@Z          1008f200 f   tier1:strtools.obj
 0002:0003c470       ?V_strncpy@@YAXPADPBDH@Z   1008f470 f   tier1:strtools.obj
 0002:0003c4c0       ?V_wcsncpy@@YAXPA_WPB_WH@Z 1008f4c0 f   tier1:strtools.obj
 0002:0003c510       ?V_snwprintf@@YAHPA_WHPB_WZZ 1008f510 f   tier1:strtools.obj
 0002:0003c570       ?V_snprintf@@YAHPADHPBDZZ  1008f570 f   tier1:strtools.obj
 0002:0003c5d0       ?V_vsnprintf@@YAHPADHPBD0@Z 1008f5d0 f   tier1:strtools.obj
 0002:0003c630       ?V_pretifymem@@YAPADMH_N@Z 1008f630 f   tier1:strtools.obj
 0002:0003c850       ?V_pretifynum@@YAPAD_J@Z   1008f850 f   tier1:strtools.obj
 0002:0003cc00       ?V_UTF8ToUnicode@@YAHPBDPA_WH@Z 1008fc00 f   tier1:strtools.obj
 0002:0003cc70       ?V_UnicodeToUTF8@@YAHPB_WPADH@Z 1008fc70 f   tier1:strtools.obj
 0002:0003ccd0       ?V_UCS2ToUnicode@@YAHPB_WPA_WH@Z 1008fcd0 f   tier1:strtools.obj
 0002:0003cd60       ?V_UCS2ToUTF8@@YAHPB_WPADH@Z 1008fd60 f   tier1:strtools.obj
 0002:0003cdc0       ?V_binarytohex@@YAXPBEHPADH@Z 1008fdc0 f   tier1:strtools.obj
 0002:0003cea0       ?V_FileBase@@YAXPBDPADH@Z  1008fea0 f   tier1:strtools.obj
 0002:0003cfa0       ?V_StripExtension@@YAXPBDPADH@Z 1008ffa0 f   tier1:strtools.obj
 0002:0003d090       ?V_DefaultExtension@@YAXPADPBDH@Z 10090090 f   tier1:strtools.obj
 0002:0003d1f0       ?V_SetExtension@@YAXPADPBDH@Z 100901f0 f   tier1:strtools.obj
 0002:0003d220       ?V_FixDoubleSlashes@@YAXPAD@Z 10090220 f   tier1:strtools.obj
 0002:0003d300       ?V_StripLastDir@@YA_NPADH@Z 10090300 f   tier1:strtools.obj
 0002:0003d3d0       ?V_ComposeFileName@@YAXPBD0PADH@Z 100903d0 f   tier1:strtools.obj
 0002:0003d4f0       ?V_ExtractFileExtension@@YAXPBDPADH@Z 100904f0 f   tier1:strtools.obj
 0002:0003d550       ?V_MakeAbsolutePath@@YAXPADHPBD1@Z 10090550 f   tier1:strtools.obj
 0002:0003d6b0       ?V_FixupPathName@@YAXPADIPBD@Z 100906b0 f   tier1:strtools.obj
 0002:0003d750       ?V_StrSubst@@YA_NPBD00PADH_N@Z 10090750 f   tier1:strtools.obj
 0002:0003d890       ?AllocString@@YAPADPBDH@Z  10090890 f   tier1:strtools.obj
 0002:0003d930       ?V_StrRight@@YAXPBDHPADH@Z 10090930 f   tier1:strtools.obj
 0002:0003d9e0       ?V_StringToIntArray@@YAXPAHHPBD@Z 100909e0 f   tier1:strtools.obj
 0002:0003dac0       ?V_StringToColor32@@YAXPAUcolor32_s@@PBD@Z 10090ac0 f   tier1:strtools.obj
 0002:0003db10       ?Base@?$CUtlVector@PADV?$CUtlMemory@PADH@@@@QAEPAPADXZ 10090b10 f i tier1:strtools.obj
 0002:0003db20       ?RemoveAll@?$CUtlVector@PADV?$CUtlMemory@PADH@@@@QAEXXZ 10090b20 f i tier1:strtools.obj
 0002:0003db30       ?Purge@?$CUtlMemory@PADH@@QAEXXZ 10090b30 f i tier1:strtools.obj
 0002:0003db70       ?ShiftElementsRight@?$CUtlVector@PADV?$CUtlMemory@PADH@@@@IAEXHH@Z 10090b70 f i tier1:strtools.obj
 0002:0003dbd0       ?ResetDbgInfo@?$CUtlVector@PADV?$CUtlMemory@PADH@@@@IAEXXZ 10090bd0 f i tier1:strtools.obj
 0002:0003dbe0       ?GrowVector@?$CUtlVector@PADV?$CUtlMemory@PADH@@@@IAEXH@Z 10090be0 f i tier1:strtools.obj
 0002:0003dc20       ?Purge@?$CUtlVector@PADV?$CUtlMemory@PADH@@@@QAEXXZ 10090c20 f i tier1:strtools.obj
 0002:0003dc80       ?InsertBefore@?$CUtlVector@PADV?$CUtlMemory@PADH@@@@QAEHHABQAD@Z 10090c80 f i tier1:strtools.obj
 0002:0003dd30       ?AddToTail@?$CUtlVector@PADV?$CUtlMemory@PADH@@@@QAEHABQAD@Z 10090d30 f i tier1:strtools.obj
 0002:0003dd50       ?V_SplitString2@@YAXPBDPAPBDHAAV?$CUtlVector@PADV?$CUtlMemory@PADH@@@@@Z 10090d50 f   tier1:strtools.obj
 0002:0003ded0       ?V_SplitString@@YAXPBD0AAV?$CUtlVector@PADV?$CUtlMemory@PADH@@@@@Z 10090ed0 f   tier1:strtools.obj
 0002:0003def0       ?ConnectTier1Libraries@@YAXPAP6APAXPBDPAH@ZH@Z 10090ef0 f   tier1:tier1.obj
 0002:0003df00       ?DisconnectTier1Libraries@@YAXXZ 10090f00 f   tier1:tier1.obj
 0002:0003df10       ??0InterfaceReg@@QAE@P6APAXXZPBD@Z 10090f10 f   tier1:interface.obj
 0002:0003df40       ?CreateInterfaceInternal@@YAPAXPBDPAH@Z 10090f40 f   tier1:interface.obj
 0002:0003dfd0       _CreateInterface           10090fd0 f   tier1:interface.obj
 0002:0003e010       ?Sys_IsDebuggerPresent@@YA_NXZ 10091010 f   tier1:interface.obj
 0002:0003e020       ??0ThreadedLoadLibaryContext_t@@QAE@XZ 10091020 f i tier1:interface.obj
 0002:0003e040       ?ThreadedLoadLibraryFunc@@YAIPAX@Z 10091040 f   tier1:interface.obj
 0002:0003e2e0       ?Sys_LoadModule@@YAPAVCSysModule@@PBD@Z 100912e0 f   tier1:interface.obj
 0002:0003e520       ?Sys_RunningWithDebugModules@@YA_NXZ 10091520 f   tier1:interface.obj
 0002:0003e5a0       ?Sys_UnloadModule@@YAXPAVCSysModule@@@Z 100915a0 f   tier1:interface.obj
 0002:0003e5c0       ?Sys_GetFactory@@YAP6APAXPBDPAH@ZPAVCSysModule@@@Z 100915c0 f   tier1:interface.obj
 0002:0003e5e0       ?Sys_GetFactoryThis@@YAP6APAXPBDPAH@ZXZ 100915e0 f   tier1:interface.obj
 0002:0003e5f0       ?Sys_GetFactory@@YAP6APAXPBDPAH@Z0@Z 100915f0 f   tier1:interface.obj
 0002:0003e610       ?Sys_LoadInterface@@YA_NPBD0PAPAVCSysModule@@PAPAX@Z 10091610 f   tier1:interface.obj
 0002:0003e680       ??0CDllDemandLoader@@QAE@PBD@Z 10091680 f   tier1:interface.obj
 0002:0003e6a0       ?GetFactory@CDllDemandLoader@@QAEP6APAXPBDPAH@ZXZ 100916a0 f   tier1:interface.obj
 0002:0003e6f0       ?Unload@CDllDemandLoader@@QAEXXZ 100916f0 f   tier1:interface.obj
 0002:0003e710       ??1CDllDemandLoader@@UAE@XZ 10091710 f   tier1:interface.obj
 0002:0003e740       ??_GCDllDemandLoader@@UAEPAXI@Z 10091740 f i tier1:interface.obj
 0002:0003e740       ??_ECDllDemandLoader@@UAEPAXI@Z 10091740 f i tier1:interface.obj
 0002:0003e790       ?Length@CUtlBinaryBlock@@QBEHXZ 10091790 f i tier1:utlstring.obj
 0002:0003e7a0       ?Length@CUtlString@@QBEHXZ 100917a0 f   tier1:utlstring.obj
 0002:0003e7c0       ??0?$CUtlMemory@EH@@QAE@PBEH@Z 100917c0 f i tier1:utlstring.obj
 0002:0003e7e0       ??0?$CUtlMemory@EH@@QAE@PAEH@Z 100917e0 f i tier1:utlstring.obj
 0002:0003e800       ??A?$CUtlMemory@EH@@QAEAAEH@Z 10091800 f i tier1:utlstring.obj
 0002:0003e810       ?Base@?$CUtlMemory@EH@@QBEPBEXZ 10091810 f i tier1:utlstring.obj
 0002:0003e820       ?Base@?$CUtlMemory@EH@@QAEPAEXZ 10091820 f i tier1:utlstring.obj
 0002:0003e830       ?NumAllocated@?$CUtlMemory@EH@@QBEHXZ 10091830 f i tier1:utlstring.obj
 0002:0003e840       ?ValidateGrowSize@?$CUtlMemory@EH@@IAEXXZ 10091840 f i tier1:utlstring.obj
 0002:0003e850       ?Get@CUtlBinaryBlock@@QBEPBXXZ 10091850 f i tier1:utlstring.obj
 0002:0003e860       ?Get@CUtlBinaryBlock@@QAEPAXXZ 10091860 f i tier1:utlstring.obj
 0002:0003e870       ??ACUtlBinaryBlock@@QAEAAEH@Z 10091870 f i tier1:utlstring.obj
 0002:0003e880       ?IsEmpty@CUtlString@@QBE_NXZ 10091880 f i tier1:utlstring.obj
 0002:0003e8b0       ?Get@CUtlBinaryBlock@@QBEXPAXH@Z 100918b0 f   tier1:utlstring.obj
 0002:0003e8e0       ??8CUtlBinaryBlock@@QBE_NABV0@@Z 100918e0 f   tier1:utlstring.obj
 0002:0003e9c0       ?Get@CUtlString@@QBEPBDXZ  100919c0 f   tier1:utlstring.obj
 0002:0003e9e0       ??BCUtlString@@QBEPBDXZ    100919e0 f   tier1:utlstring.obj
 0002:0003ea00       ??8CUtlString@@QBE_NABV0@@Z 10091a00 f   tier1:utlstring.obj
 0002:0003ea10       ??8CUtlString@@QBE_NPBD@Z  10091a10 f   tier1:utlstring.obj
 0002:0003ea70       ??0?$CUtlMemory@EH@@QAE@HH@Z 10091a70 f i tier1:utlstring.obj
 0002:0003eab0       ?Grow@?$CUtlMemory@EH@@QAEXH@Z 10091ab0 f i tier1:utlstring.obj
 0002:0003eb60       ?String@CUtlString@@QBEPBDXZ 10091b60 f i tier1:utlstring.obj
 0002:0003eb80       ?SetLength@CUtlBinaryBlock@@QAEXH@Z 10091b80 f   tier1:utlstring.obj
 0002:0003ebc0       ?Set@CUtlBinaryBlock@@QAEXPBXH@Z 10091bc0 f   tier1:utlstring.obj
 0002:0003ec50       ??4CUtlBinaryBlock@@QAEAAV0@ABV0@@Z 10091c50 f   tier1:utlstring.obj
 0002:0003ec80       ?SetDirect@CUtlString@@QAEXPBDH@Z 10091c80 f   tier1:utlstring.obj
 0002:0003ed10       ?Set@CUtlString@@QAEXPBD@Z 10091d10 f   tier1:utlstring.obj
 0002:0003ed60       ?SetLength@CUtlString@@QAEXH@Z 10091d60 f   tier1:utlstring.obj
 0002:0003edb0       ?Get@CUtlString@@QAEPADXZ  10091db0 f   tier1:utlstring.obj
 0002:0003ee00       ??4CUtlString@@QAEAAV0@ABV0@@Z 10091e00 f   tier1:utlstring.obj
 0002:0003ee30       ??4CUtlString@@QAEAAV0@PBD@Z 10091e30 f   tier1:utlstring.obj
 0002:0003ee80       ??YCUtlString@@QAEAAV0@ABV0@@Z 10091e80 f   tier1:utlstring.obj
 0002:0003ef90       ??YCUtlString@@QAEAAV0@PBD@Z 10091f90 f   tier1:utlstring.obj
 0002:0003f080       ??YCUtlString@@QAEAAV0@D@Z 10092080 f   tier1:utlstring.obj
 0002:0003f0f0       ??YCUtlString@@QAEAAV0@H@Z 100920f0 f   tier1:utlstring.obj
 0002:0003f140       ??YCUtlString@@QAEAAV0@N@Z 10092140 f   tier1:utlstring.obj
 0002:0003f1a0       ?Format@CUtlString@@QAAHPBDZZ 100921a0 f   tier1:utlstring.obj
 0002:0003f230       ?StripTrailingSlash@CUtlString@@QAEXXZ 10092230 f   tier1:utlstring.obj
 0002:0003f2a0       ?Clear@CUtlBinaryBlock@@QAEXXZ 100922a0 f i tier1:utlstring.obj
 0002:0003f2d0       ?Purge@CUtlBinaryBlock@@QAEXXZ 100922d0 f i tier1:utlstring.obj
 0002:0003f340       ??0CUtlBinaryBlock@@QAE@HH@Z 10092340 f   tier1:utlstring.obj
 0002:0003f390       ??0CUtlBinaryBlock@@QAE@PAXHH@Z 10092390 f   tier1:utlstring.obj
 0002:0003f3c0       ??0CUtlBinaryBlock@@QAE@PBXH@Z 100923c0 f   tier1:utlstring.obj
 0002:0003f3f0       ??0CUtlBinaryBlock@@QAE@ABV0@@Z 100923f0 f   tier1:utlstring.obj
 0002:0003f420       ??0CUtlString@@QAE@PBD@Z   10092420 f   tier1:utlstring.obj
 0002:0003f470       ??0CUtlString@@QAE@ABV0@@Z 10092470 f   tier1:utlstring.obj
 0002:0003f4d0       ??0CUtlString@@QAE@PAXHH@Z 100924d0 f   tier1:utlstring.obj
 0002:0003f500       ??0CUtlString@@QAE@PBXH@Z  10092500 f   tier1:utlstring.obj
 0002:0003f530       ?Clear@CUtlString@@QAEXXZ  10092530 f   tier1:utlstring.obj
 0002:0003f560       ?Purge@CUtlString@@QAEXXZ  10092560 f   tier1:utlstring.obj
 0002:0003f570       ?Replace@CUtlString@@QAE?AV1@DD@Z 10092570 f   tier1:utlstring.obj
 0002:0003f630       ?AbsPath@CUtlString@@QAE?AV1@PBD@Z 10092630 f   tier1:utlstring.obj
 0002:0003f6d0       ?UnqualifiedFilename@CUtlString@@QAE?AV1@XZ 100926d0 f   tier1:utlstring.obj
 0002:0003f760       ?DirName@CUtlString@@QAE?AV1@XZ 10092760 f   tier1:utlstring.obj
 0002:0003f7d0       ?PathJoin@CUtlString@@SA?AV1@PBD0@Z 100927d0 f   tier1:utlstring.obj
 0002:0003f850       ??HCUtlString@@QAE?AV0@PBD@Z 10092850 f   tier1:utlstring.obj
 0002:0003f8b0       ??0CUtlString@@QAE@XZ      100928b0 f   tier1:utlstring.obj
 0002:0003f8d0       ??HCUtlString@@QAE?AV0@H@Z 100928d0 f   tier1:utlstring.obj
 0002:0003f980       ?Slice@CUtlString@@QAE?AV1@HH@Z 10092980 f   tier1:utlstring.obj
 0002:0003fbf0       ?Left@CUtlString@@QAE?AV1@H@Z 10092bf0 f   tier1:utlstring.obj
 0002:0003fc10       ?Right@CUtlString@@QAE?AV1@H@Z 10092c10 f   tier1:utlstring.obj
 0002:0003fc40       ?CharacterSetBuild@@YAXPAUcharacterset_t@@PBD@Z 10092c40 f   tier1:characterset.obj
 0002:0003fca0       ?V_isspace@@YA_NH@Z        10092ca0 f i tier1:utlbuffer.obj
 0002:0003fcc0       ?IsMachineBigEndian@CByteswap@@SA_NXZ 10092cc0 f i tier1:utlbuffer.obj
 0002:0003fcd0       ?SetTargetBigEndian@CByteswap@@QAEX_N@Z 10092cd0 f i tier1:utlbuffer.obj
 0002:0003fd00       ?ActivateByteSwapping@CByteswap@@QAEX_N@Z 10092d00 f i tier1:utlbuffer.obj
 0002:0003fd30       ?IsSwappingBytes@CByteswap@@QAE_NXZ 10092d30 f i tier1:utlbuffer.obj
 0002:0003fd40       ?IsTargetBigEndian@CByteswap@@QAE_NXZ 10092d40 f i tier1:utlbuffer.obj
 0002:0003fd50       ??$StringToNumber@F@@YAFPADPAPADH@Z 10092d50 f i tier1:utlbuffer.obj
 0002:0003fd60       ??$StringToNumber@G@@YAGPADPAPADH@Z 10092d60 f i tier1:utlbuffer.obj
 0002:0003fd70       ??$StringToNumber@H@@YAHPADPAPADH@Z 10092d70 f i tier1:utlbuffer.obj
 0002:0003fd80       ??$StringToNumber@I@@YAIPADPAPADH@Z 10092d80 f i tier1:utlbuffer.obj
 0002:0003fd90       ??$StringToNumber@_J@@YA_JPADPAPADH@Z 10092d90 f i tier1:utlbuffer.obj
 0002:0003fda0       ??$StringToNumber@M@@YAMPADPAPADH@Z 10092da0 f i tier1:utlbuffer.obj
 0002:0003fdc0       ??$StringToNumber@N@@YANPADPAPADH@Z 10092dc0 f i tier1:utlbuffer.obj
 0002:0003fde0       ?TellPut@CUtlBuffer@@QBEHXZ 10092de0 f i tier1:utlbuffer.obj
 0002:0003fdf0       ?TellMaxPut@CUtlBuffer@@QBEHXZ 10092df0 f i tier1:utlbuffer.obj
 0002:0003fe00       ?IsText@CUtlBuffer@@QBE_NXZ 10092e00 f i tier1:utlbuffer.obj
 0002:0003fe10       ?IsGrowable@CUtlBuffer@@QBE_NXZ 10092e10 f i tier1:utlbuffer.obj
 0002:0003fe20       ?ContainsCRLF@CUtlBuffer@@QBE_NXZ 10092e20 f i tier1:utlbuffer.obj
 0002:0003fe40       ?IsReadOnly@CUtlBuffer@@QBE_NXZ 10092e40 f i tier1:utlbuffer.obj
 0002:0003fe50       ?GetCStringCharConversion@@YAPAVCUtlCharConversion@@XZ 10092e50 f   tier1:utlbuffer.obj
 0002:0003fe60       ?GetNoEscCharConversion@@YAPAVCUtlCharConversion@@XZ 10092e60 f   tier1:utlbuffer.obj
 0002:0003fe70       ?FindConversion@CUtlCStringConversion@@UAEDPBDPAH@Z 10092e70 f   tier1:utlbuffer.obj
 0002:0003fea0       ??0CUtlCharConversion@@QAE@DPBDHPAUConversionArray_t@0@@Z 10092ea0 f   tier1:utlbuffer.obj
 0002:0003ff60       ?GetEscapeChar@CUtlCharConversion@@QBEDXZ 10092f60 f   tier1:utlbuffer.obj
 0002:0003ff70       ?GetDelimiter@CUtlCharConversion@@QBEPBDXZ 10092f70 f   tier1:utlbuffer.obj
 0002:0003ff80       ?GetDelimiterLength@CUtlCharConversion@@QBEHXZ 10092f80 f   tier1:utlbuffer.obj
 0002:0003ff90       ?GetConversionString@CUtlCharConversion@@QBEPBDD@Z 10092f90 f   tier1:utlbuffer.obj
 0002:0003ffb0       ?GetConversionLength@CUtlCharConversion@@QBEHD@Z 10092fb0 f   tier1:utlbuffer.obj
 0002:0003ffd0       ?MaxConversionLength@CUtlCharConversion@@QBEHXZ 10092fd0 f   tier1:utlbuffer.obj
 0002:0003ffe0       ?FindConversion@CUtlCharConversion@@UAEDPBDPAH@Z 10092fe0 f   tier1:utlbuffer.obj
 0002:00040060       ?SetBufferType@CUtlBuffer@@QAEX_N0@Z 10093060 f   tier1:utlbuffer.obj
 0002:00040090       ?SetOverflowFuncs@CUtlBuffer@@IAEXP81@AE_NH@Z0@Z 10093090 f   tier1:utlbuffer.obj
 0002:000400b0       ?OnPutOverflow@CUtlBuffer@@IAE_NH@Z 100930b0 f   tier1:utlbuffer.obj
 0002:000400c0       ?OnGetOverflow@CUtlBuffer@@IAE_NH@Z 100930c0 f   tier1:utlbuffer.obj
 0002:000400d0       ?GetOverflow@CUtlBuffer@@IAE_NH@Z 100930d0 f   tier1:utlbuffer.obj
 0002:000400e0       ?ActivateByteSwapping@CUtlBuffer@@QAEX_N@Z 100930e0 f   tier1:utlbuffer.obj
 0002:00040110       ?SetBigEndian@CUtlBuffer@@QAEX_N@Z 10093110 f   tier1:utlbuffer.obj
 0002:00040140       ?IsBigEndian@CUtlBuffer@@QAE_NXZ 10093140 f   tier1:utlbuffer.obj
 0002:00040150       ??A?$CUtlMemory@EH@@QBEABEH@Z 10093150 f i tier1:utlbuffer.obj
 0002:00040160       ??$LowLevelByteSwap@D@CByteswap@@CAXPAD0@Z 10093160 f i tier1:utlbuffer.obj
 0002:00040190       ??0CByteswap@@QAE@XZ       10093190 f i tier1:utlbuffer.obj
 0002:000401a0       ?PeekGet@CUtlBuffer@@QBEPBXH@Z 100931a0 f i tier1:utlbuffer.obj
 0002:000401c0       ?PeekPut@CUtlBuffer@@QAEPAXH@Z 100931c0 f i tier1:utlbuffer.obj
 0002:000401e0       ?WasLastCharacterCR@CUtlBuffer@@IAE_NXZ 100931e0 f i tier1:utlbuffer.obj
 0002:00040210       ?Base@CUtlBuffer@@QAEPAXXZ 10093210 f i tier1:utlbuffer.obj
 0002:00040220       ?Size@CUtlBuffer@@QBEHXZ   10093220 f i tier1:utlbuffer.obj
 0002:00040230       ??0CUtlNoEscConversion@@QAE@DPBDHPAUConversionArray_t@CUtlCharConversion@@@Z 10093230 f i tier1:utlbuffer.obj
 0002:00040270       ?FindConversion@CUtlNoEscConversion@@UAEDPBDPAH@Z 10093270 f i tier1:utlbuffer.obj
 0002:00040290       ??0CUtlCStringConversion@@QAE@DPBDHPAUConversionArray_t@CUtlCharConversion@@@Z 10093290 f   tier1:utlbuffer.obj
 0002:00040310       ?CheckGet@CUtlBuffer@@IAE_NH@Z 10093310 f   tier1:utlbuffer.obj
 0002:00040380       ?CheckPeekGet@CUtlBuffer@@IAE_NHH@Z 10093380 f   tier1:utlbuffer.obj
 0002:000403c0       ?CheckArbitraryPeekGet@CUtlBuffer@@IAE_NHAAH@Z 100933c0 f   tier1:utlbuffer.obj
 0002:00040450       ?PeekGet@CUtlBuffer@@QAEPBXHH@Z 10093450 f   tier1:utlbuffer.obj
 0002:000404a0       ?SeekGet@CUtlBuffer@@QAEXW4SeekType_t@1@H@Z 100934a0 f   tier1:utlbuffer.obj
 0002:00040520       ?GetToken@CUtlBuffer@@QAE_NPBD@Z 10093520 f   tier1:utlbuffer.obj
 0002:00040720       ?CheckPut@CUtlBuffer@@IAE_NH@Z 10093720 f   tier1:utlbuffer.obj
 0002:00040780       ?AddNullTermination@CUtlBuffer@@IAEXXZ 10093780 f   tier1:utlbuffer.obj
 0002:000407e0       ?DetachMemory@?$CUtlMemory@EH@@QAEPAXXZ 100937e0 f i tier1:utlbuffer.obj
 0002:00040800       ?ConvertToGrowableMemory@?$CUtlMemory@EH@@QAEXH@Z 10093800 f i tier1:utlbuffer.obj
 0002:00040860       ?EnsureCapacity@?$CUtlMemory@EH@@QAEXH@Z 10093860 f i tier1:utlbuffer.obj
 0002:000408c0       ??$GetTypeText@I@CUtlBuffer@@IAE_NAAIH@Z 100938c0 f i tier1:utlbuffer.obj
 0002:00040950       ??$GetTypeText@F@CUtlBuffer@@IAE_NAAFH@Z 10093950 f i tier1:utlbuffer.obj
 0002:000409e0       ??$GetTypeText@G@CUtlBuffer@@IAE_NAAGH@Z 100939e0 f i tier1:utlbuffer.obj
 0002:00040a70       ??$GetTypeText@_J@CUtlBuffer@@IAE_NAA_JH@Z 10093a70 f i tier1:utlbuffer.obj
 0002:00040b10       ??$GetTypeText@H@CUtlBuffer@@IAE_NAAHH@Z 10093b10 f i tier1:utlbuffer.obj
 0002:00040ba0       ??$GetTypeText@N@CUtlBuffer@@IAE_NAANH@Z 10093ba0 f i tier1:utlbuffer.obj
 0002:00040c30       ??$GetTypeText@M@CUtlBuffer@@IAE_NAAMH@Z 10093c30 f i tier1:utlbuffer.obj
 0002:00040cc0       ??$SwapBufferToTargetEndian@D@CByteswap@@QAEXPAD0H@Z 10093cc0 f i tier1:utlbuffer.obj
 0002:00040d00       ?Purge@CUtlBuffer@@QAEXXZ  10093d00 f i tier1:utlbuffer.obj
 0002:00040d50       ?DetachMemory@CUtlBuffer@@QAEPAXXZ 10093d50 f   tier1:utlbuffer.obj
 0002:00040d80       ?EnsureCapacity@CUtlBuffer@@QAEXH@Z 10093d80 f   tier1:utlbuffer.obj
 0002:00040e00       ?Get@CUtlBuffer@@QAEXPAXH@Z 10093e00 f   tier1:utlbuffer.obj
 0002:00040e50       ?GetUpTo@CUtlBuffer@@QAEHPAXH@Z 10093e50 f   tier1:utlbuffer.obj
 0002:00040ea0       ?EatWhiteSpace@CUtlBuffer@@QAEXXZ 10093ea0 f   tier1:utlbuffer.obj
 0002:00040f30       ?PeekWhiteSpace@CUtlBuffer@@IAEHH@Z 10093f30 f   tier1:utlbuffer.obj
 0002:00040ff0       ?PeekStringLength@CUtlBuffer@@QAEHXZ 10093ff0 f   tier1:utlbuffer.obj
 0002:000411a0       ?PeekLineLength@CUtlBuffer@@IAEHXZ 100941a0 f   tier1:utlbuffer.obj
 0002:000412d0       ?PeekStringMatch@CUtlBuffer@@IAE_NHPBDH@Z 100942d0 f   tier1:utlbuffer.obj
 0002:00041340       ?PeekDelimitedStringLength@CUtlBuffer@@QAEHPAVCUtlCharConversion@@_N@Z 10094340 f   tier1:utlbuffer.obj
 0002:000414e0       ?GetLine@CUtlBuffer@@QAEXPADH@Z 100944e0 f   tier1:utlbuffer.obj
 0002:000415c0       ?Put@CUtlBuffer@@QAEXPBXH@Z 100945c0 f   tier1:utlbuffer.obj
 0002:00041640       ?PutOverflow@CUtlBuffer@@IAE_NH@Z 10094640 f   tier1:utlbuffer.obj
 0002:000416a0       ?SeekPut@CUtlBuffer@@QAEXW4SeekType_t@1@H@Z 100946a0 f   tier1:utlbuffer.obj
 0002:00041740       ?InplaceGetLinePtr@CUtlInplaceBuffer@@QAE_NPAPADPAH@Z 10094740 f   tier1:utlbuffer.obj
 0002:000417f0       ?InplaceGetLinePtr@CUtlInplaceBuffer@@QAEPADXZ 100947f0 f   tier1:utlbuffer.obj
 0002:00041860       ?SetExternalBuffer@?$CUtlMemory@EH@@QAEXPAEH@Z 10094860 f i tier1:utlbuffer.obj
 0002:000418c0       ?AssumeMemory@?$CUtlMemory@EH@@QAEXPAEH@Z 100948c0 f i tier1:utlbuffer.obj
 0002:00041930       ??$GetTypeBin@D@CUtlBuffer@@IAEXAAD@Z 10094930 f i tier1:utlbuffer.obj
 0002:00041970       ??$PutTypeBin@D@CUtlBuffer@@IAEXD@Z 10094970 f i tier1:utlbuffer.obj
 0002:00041a30       ?GetChar@CUtlBuffer@@QAEDXZ 10094a30 f i tier1:utlbuffer.obj
 0002:00041a60       ?PutTabs@CUtlBuffer@@IAEXXZ 10094a60 f i tier1:utlbuffer.obj
 0002:00041aa0       ?PutChar@CUtlBuffer@@QAEXD@Z 10094aa0 f i tier1:utlbuffer.obj
 0002:00041b10       ??0CUtlBuffer@@QAE@HHH@Z   10094b10 f   tier1:utlbuffer.obj
 0002:00041bb0       ??0CUtlBuffer@@QAE@PBXHH@Z 10094bb0 f   tier1:utlbuffer.obj
 0002:00041c60       ?SetExternalBuffer@CUtlBuffer@@QAEXPAXHHH@Z 10094c60 f   tier1:utlbuffer.obj
 0002:00041d20       ?AssumeMemory@CUtlBuffer@@QAEXPAXHHH@Z 10094d20 f   tier1:utlbuffer.obj
 0002:00041de0       ?EatCPPComment@CUtlBuffer@@QAE_NXZ 10094de0 f   tier1:utlbuffer.obj
 0002:00041e60       ?GetString@CUtlBuffer@@QAEXPADH@Z 10094e60 f   tier1:utlbuffer.obj
 0002:00041f60       ?GetDelimitedCharInternal@CUtlBuffer@@IAEDPAVCUtlCharConversion@@@Z 10094f60 f   tier1:utlbuffer.obj
 0002:00042040       ?GetDelimitedChar@CUtlBuffer@@QAEDPAVCUtlCharConversion@@@Z 10095040 f   tier1:utlbuffer.obj
 0002:000420a0       ?GetDelimitedString@CUtlBuffer@@QAEXPAVCUtlCharConversion@@PADH@Z 100950a0 f   tier1:utlbuffer.obj
 0002:00042210       ?VaScanf@CUtlBuffer@@QAEHPBDPAD@Z 10095210 f   tier1:utlbuffer.obj
 0002:00042580       ?Scanf@CUtlBuffer@@QAAHPBDZZ 10095580 f   tier1:utlbuffer.obj
 0002:000425a0       ?ParseToken@CUtlBuffer@@QAE_NPBD0PADH@Z 100955a0 f   tier1:utlbuffer.obj
 0002:00042840       ?ParseToken@CUtlBuffer@@QAEHPAUcharacterset_t@@PADH_N@Z 10095840 f   tier1:utlbuffer.obj
 0002:00042aa0       ?PutString@CUtlBuffer@@QAEXPBD@Z 10095aa0 f   tier1:utlbuffer.obj
 0002:00042bd0       ?PutDelimitedCharInternal@CUtlBuffer@@IAEXPAVCUtlCharConversion@@D@Z 10095bd0 f i tier1:utlbuffer.obj
 0002:00042c30       ?PutDelimitedChar@CUtlBuffer@@QAEXPAVCUtlCharConversion@@D@Z 10095c30 f   tier1:utlbuffer.obj
 0002:00042c60       ?PutDelimitedString@CUtlBuffer@@QAEXPAVCUtlCharConversion@@PBD@Z 10095c60 f   tier1:utlbuffer.obj
 0002:00042df0       ?VaPrintf@CUtlBuffer@@QAEXPBDPAD@Z 10095df0 f   tier1:utlbuffer.obj
 0002:00042e40       ?Printf@CUtlBuffer@@QAAXPBDZZ 10095e40 f   tier1:utlbuffer.obj
 0002:00042e90       ?ConvertCRLF@CUtlBuffer@@QAE_NAAV1@@Z 10095e90 f   tier1:utlbuffer.obj
 0002:00043120       ??0CUtlInplaceBuffer@@QAE@HHH@Z 10096120 f   tier1:utlbuffer.obj
 0002:00043150       __RTC_InitBase             10096150 f   LIBCMTD:_init_.obj
 0002:00043190       __RTC_Shutdown             10096190 f   LIBCMTD:_init_.obj
 0002:000431b0       _memcpy                    100961b0 f   LIBCMTD:memcpy.obj
 0002:000435f0       __RTC_CheckEsp             100965f0 f   LIBCMTD:_stack_.obj
 0002:00043620       @_RTC_CheckStackVars@8     10096620 f   LIBCMTD:_stack_.obj
 0002:000436a0       @_RTC_AllocaHelper@12      100966a0 f   LIBCMTD:_stack_.obj
 0002:000436e0       @_RTC_CheckStackVars2@12   100966e0 f   LIBCMTD:_stack_.obj
 0002:000437f0       ?name@type_info@@QBEPBDPAU__type_info_node@@@Z 100967f0 f   LIBCMTD:typinfo.obj
 0002:00043820       ??1type_info@@UAE@XZ       10096820 f   LIBCMTD:typinfo.obj
 0002:00043850       ??_Gtype_info@@UAEPAXI@Z   10096850 f i LIBCMTD:typinfo.obj
 0002:00043850       ??_Etype_info@@UAEPAXI@Z   10096850 f i LIBCMTD:typinfo.obj
 0002:00043890       ?_name_internal_method@type_info@@QBEPBDPAU__type_info_node@@@Z 10096890 f   LIBCMTD:typinfo.obj
 0002:000438c0       ?_type_info_dtor_internal_method@type_info@@QAEXXZ 100968c0 f   LIBCMTD:typinfo.obj
 0002:000438e0       ??8type_info@@QBE_NABV0@@Z 100968e0 f   LIBCMTD:typinfo.obj
 0002:00043920       ??9type_info@@QBE_NABV0@@Z 10096920 f   LIBCMTD:typinfo.obj
 0002:00043960       ?before@type_info@@QBEHABV1@@Z 10096960 f   LIBCMTD:typinfo.obj
 0002:000439a0       ?raw_name@type_info@@QBEPBDXZ 100969a0 f   LIBCMTD:typinfo.obj
 0002:000439c0       ??0type_info@@AAE@ABV0@@Z  100969c0 f   LIBCMTD:typinfo.obj
 0002:000439f0       ??4type_info@@AAEAAV0@ABV0@@Z 100969f0 f   LIBCMTD:typinfo.obj
 0002:00043a10       __purecall                 10096a10 f   LIBCMTD:purevirt.obj
 0002:00043a60       __set_purecall_handler     10096a60 f   LIBCMTD:purevirt.obj
 0002:00043aa0       __get_purecall_handler     10096aa0 f   LIBCMTD:purevirt.obj
 0002:00043ac0       __fpmath                   10096ac0 f   LIBCMTD:_fpinit_.obj
 0002:00043ae0       __cfltcvt_init             10096ae0 f   LIBCMTD:_fpinit_.obj
 0002:00043b70       ___setfflag                10096b70 f   LIBCMTD:_fpinit_.obj
 0002:00043ba0       __ftol2_sse                10096ba0 f   LIBCMTD:ftol2.obj
 0002:00043ba9       __ftol2_pentium4           10096ba9 f   LIBCMTD:ftol2.obj
 0002:00043bbc       __ftol2_sse_excpt          10096bbc f   LIBCMTD:ftol2.obj
 0002:00043bd6       __ftol2                    10096bd6 f   LIBCMTD:ftol2.obj
 0002:00043c80       _fmod                      10096c80 f   LIBCMTD:_87fmod_.obj
 0002:00043c8a       __CIfmod                   10096c8a f   LIBCMTD:_87fmod_.obj
 0002:00043cb0       __onexit                   10096cb0 f   LIBCMTD:onexit.obj
 0002:00043ef0       _atexit                    10096ef0 f   LIBCMTD:onexit.obj
 0002:00043f20       ___onexitinit              10096f20 f   LIBCMTD:onexit.obj
 0002:00043f90       ___clean_type_info_names   10096f90 f   LIBCMTD:tncleanup.obj
 0002:00043fb0       _memset                    10096fb0 f   LIBCMTD:memset.obj
 0002:00044050       _printf                    10097050 f   LIBCMTD:printf.obj
 0002:000441e0       __printf_l                 100971e0 f   LIBCMTD:printf.obj
 0002:00044210       __printf_s_l               10097210 f   LIBCMTD:printf.obj
 0002:00044240       _printf_s                  10097240 f   LIBCMTD:printf.obj
 0002:00044270       __printf_p_l               10097270 f   LIBCMTD:printf.obj
 0002:000442a0       __printf_p                 100972a0 f   LIBCMTD:printf.obj
 0002:000442d0       __set_printf_count_output  100972d0 f   LIBCMTD:printf.obj
 0002:00044330       __get_printf_count_output  10097330 f   LIBCMTD:printf.obj
 0002:00044360       __CRT_INIT@12              10097360 f   LIBCMTD:dllcrt0.obj
 0002:00044600       __DllMainCRTStartup@12     10097600 f   LIBCMTD:dllcrt0.obj
 0002:00044860       _floor                     10097860 f   LIBCMTD:_floor_pentium4_.obj
 0002:000448a0       __floor_pentium4           100978a0 f   LIBCMTD:_floor_pentium4_.obj
 0002:000449d0       _pow                       100979d0 f   LIBCMTD:_pow_.obj
 0002:00044a10       __CIpow                    10097a10 f   LIBCMTD:_pow_.obj
 0002:00044a4b       __CIpow_default            10097a4b f   LIBCMTD:_pow_.obj
 0002:00044a64       __pow_default              10097a64     LIBCMTD:_pow_.obj
 0002:00044d00       ___libm_sse2_pow           10097d00 f   LIBCMTD:_pow_sse2_.obj
 0002:00045a20       _acos                      10098a20 f   LIBCMTD:_acos_.obj
 0002:00045a60       __CIacos                   10098a60 f   LIBCMTD:_acos_.obj
 0002:00045a9b       __CIacos_default           10098a9b f   LIBCMTD:_acos_.obj
 0002:00045aaf       __acos_default             10098aaf     LIBCMTD:_acos_.obj
 0002:00045bc0       ___libm_sse2_atan2         10098bc0 f   LIBCMTD:_atan2_sse2_.obj
 0002:00046220       ___libm_sse2_acos          10099220 f   LIBCMTD:_acos_sse2_.obj
 0002:000467f0       ___libm_sse2_cos           100997f0 f   LIBCMTD:_cos_sse2_.obj
 0002:00046a10       ___libm_sse2_sin           10099a10 f   LIBCMTD:_sin_sse2_.obj
 0002:00046c40       ___libm_sse2_tan           10099c40 f   LIBCMTD:_tan_sse2_.obj
 0002:00046f30       _asin                      10099f30 f   LIBCMTD:_asin_.obj
 0002:00046f70       __CIasin                   10099f70 f   LIBCMTD:_asin_.obj
 0002:00046fab       __CIasin_default           10099fab f   LIBCMTD:_asin_.obj
 0002:00046fbf       __asin_default             10099fbf     LIBCMTD:_asin_.obj
 0002:000470d0       ___libm_sse2_log           1009a0d0 f   LIBCMTD:_log_sse2_.obj
 0002:00047380       ___libm_sse2_asin          1009a380 f   LIBCMTD:_asin_sse2_.obj
 0002:000478e0       ___libm_sse2_exp           1009a8e0 f   LIBCMTD:_exp_sse2_.obj
 0002:00047b80       __alloca_probe_16          1009ab80 f   LIBCMTD:alloca16.obj
 0002:00047b96       __alloca_probe_8           1009ab96     LIBCMTD:alloca16.obj
 0002:00047bc0       _srand                     1009abc0 f   LIBCMTD:rand.obj
 0002:00047be0       _rand                      1009abe0 f   LIBCMTD:rand.obj
 0002:00047c30       ___libm_sse2_atan          1009ac30 f   LIBCMTD:_atan_sse2_.obj
 0002:00047ed0       ??2@YAPAXIHPBDH@Z          1009aed0 f   LIBCMTD:dbgnew.obj
 0002:00047f70       ??0bad_alloc@std@@QAE@XZ   1009af70 f i LIBCMTD:dbgnew.obj
 0002:00047fb0       ??1bad_alloc@std@@UAE@XZ   1009afb0 f i LIBCMTD:dbgnew.obj
 0002:00047fe0       ??_Gbad_alloc@std@@UAEPAXI@Z 1009afe0 f i LIBCMTD:dbgnew.obj
 0002:00047fe0       ??_Ebad_alloc@std@@UAEPAXI@Z 1009afe0 f i LIBCMTD:dbgnew.obj
 0002:00048020       ??0bad_alloc@std@@QAE@ABV01@@Z 1009b020 f i LIBCMTD:dbgnew.obj
 0002:00048050       ??_U@YAPAXIHPBDH@Z         1009b050 f   LIBCMTD:dbgnew.obj
 0002:00048090       ??3@YAXPAX@Z               1009b090 f   LIBCMTD:dbgdel.obj
 0002:000481b0       ??2@YAPAXI@Z               1009b1b0 f   LIBCMTD:new.obj
 0002:00048250       _atol                      1009b250 f   LIBCMTD:atox.obj
 0002:00048270       __atol_l                   1009b270 f   LIBCMTD:atox.obj
 0002:000482a0       _atoi                      1009b2a0 f   LIBCMTD:atox.obj
 0002:000482c0       __atoi_l                   1009b2c0 f   LIBCMTD:atox.obj
 0002:000482e0       __atoi64                   1009b2e0 f   LIBCMTD:atox.obj
 0002:00048300       __atoi64_l                 1009b300 f   LIBCMTD:atox.obj
 0002:00048330       _sscanf                    1009b330 f   LIBCMTD:sscanf.obj
 0002:00048520       __sscanf_l                 1009b520 f   LIBCMTD:sscanf.obj
 0002:00048560       _sscanf_s                  1009b560 f   LIBCMTD:sscanf.obj
 0002:000485a0       __sscanf_s_l               1009b5a0 f   LIBCMTD:sscanf.obj
 0002:000485e0       __atof_l                   1009b5e0 f   LIBCMTD:atof.obj
 0002:00048760       ??0_LocaleUpdate@@QAE@PAUlocaleinfo_struct@@@Z 1009b760 f i LIBCMTD:atof.obj
 0002:00048870       ??1_LocaleUpdate@@QAE@XZ   1009b870 f i LIBCMTD:atof.obj
 0002:000488b0       ?GetLocaleT@_LocaleUpdate@@QAEPAUlocaleinfo_struct@@XZ 1009b8b0 f i LIBCMTD:atof.obj
 0002:000488d0       _atof                      1009b8d0 f   LIBCMTD:atof.obj
 0002:000488f0       ___strgtold12              1009b8f0 f   LIBCMTD:atof.obj
 0002:00048960       ___STRINGTOLD              1009b960 f   LIBCMTD:atof.obj
 0002:000489c0       __vsnprintf_l              1009b9c0 f   LIBCMTD:vsnprint.obj
 0002:00048bf0       __vsnprintf                1009bbf0 f   LIBCMTD:vsnprint.obj
 0002:00048c20       ___RTCastToVoid            1009bc20 f   LIBCMTD:rtti.obj
 0002:00048d20       ___RTtypeid                1009bd20 f   LIBCMTD:rtti.obj
 0002:00048ea0       ___RTDynamicCast           1009bea0 f   LIBCMTD:rtti.obj
 0002:00049760       __chkstk                   1009c760 f   LIBCMTD:chkstk.obj
 0002:00049760       __alloca_probe             1009c760     LIBCMTD:chkstk.obj
 0002:000497b0       _strchr                    1009c7b0 f   LIBCMTD:strchr.obj
 0002:000497b6       ___from_strstr_to_strchr   1009c7b6     LIBCMTD:strchr.obj
 0002:000498b0       _strstr                    1009c8b0 f   LIBCMTD:strstr.obj
 0002:00049960       __tolower                  1009c960 f   LIBCMTD:tolower.obj
 0002:00049970       __tolower_l                1009c970 f   LIBCMTD:tolower.obj
 0002:00049bc0       _tolower                   1009cbc0 f   LIBCMTD:tolower.obj
 0002:00049c20       __allmul                   1009cc20 f   LIBCMTD:llmul.obj
 0002:00049c70       _strncat                   1009cc70 f   LIBCMTD:strncat.obj
 0002:00049e00       _memmove                   1009ce00 f   LIBCMTD:memmove.obj
 0002:0004a240       __getcwd                   1009d240 f   LIBCMTD:getcwd.obj
 0002:0004a2f0       __getcwd_dbg               1009d2f0 f   LIBCMTD:getcwd.obj
 0002:0004a3b0       __getdcwd                  1009d3b0 f   LIBCMTD:getcwd.obj
 0002:0004a460       __getdcwd_dbg              1009d460 f   LIBCMTD:getcwd.obj
 0002:0004a520       __getdcwd_nolock           1009d520 f   LIBCMTD:getcwd.obj
 0002:0004a550       __getdcwd_lk_dbg           1009d550 f   LIBCMTD:getcwd.obj
 0002:0004a840       __validdrive               1009d840 f   LIBCMTD:getcwd.obj
 0002:0004a8d0       __chdir                    1009d8d0 f   LIBCMTD:chdir.obj
 0002:0004ab60       _strncpy                   1009db60 f   LIBCMTD:strncpy.obj
 0002:0004acd0       _wcsncpy                   1009dcd0 f   LIBCMTD:wcsncpy.obj
 0002:0004ad60       __vsnwprintf_l             1009dd60 f   LIBCMTD:vsnwprnt.obj
 0002:0004b010       __vsnwprintf               1009e010 f   LIBCMTD:vsnwprnt.obj
 0002:0004b040       __allrem                   1009e040 f   LIBCMTD:llrem.obj
 0002:0004b120       __alldiv                   1009e120 f   LIBCMTD:lldiv.obj
 0002:0004b200       _sprintf                   1009e200 f   LIBCMTD:sprintf.obj
 0002:0004b400       __sprintf_l                1009e400 f   LIBCMTD:sprintf.obj
 0002:0004b440       _sprintf_s                 1009e440 f   LIBCMTD:sprintf.obj
 0002:0004b480       __sprintf_s_l              1009e480 f   LIBCMTD:sprintf.obj
 0002:0004b4c0       __snprintf_s               1009e4c0 f   LIBCMTD:sprintf.obj
 0002:0004b500       __snprintf_s_l             1009e500 f   LIBCMTD:sprintf.obj
 0002:0004b540       __sprintf_p                1009e540 f   LIBCMTD:sprintf.obj
 0002:0004b580       __sprintf_p_l              1009e580 f   LIBCMTD:sprintf.obj
 0002:0004b5c0       __scprintf                 1009e5c0 f   LIBCMTD:sprintf.obj
 0002:0004b5f0       __scprintf_p               1009e5f0 f   LIBCMTD:sprintf.obj
 0002:0004b620       __scprintf_l               1009e620 f   LIBCMTD:sprintf.obj
 0002:0004b650       __scprintf_p_l             1009e650 f   LIBCMTD:sprintf.obj
 0002:0004b680       _strtol                    1009e680 f   LIBCMTD:strtol.obj
 0002:0004bd00       __strtol_l                 1009ed00 f   LIBCMTD:strtol.obj
 0002:0004bd30       _strtoul                   1009ed30 f   LIBCMTD:strtol.obj
 0002:0004bd90       __strtoul_l                1009ed90 f   LIBCMTD:strtol.obj
 0002:0004bdc0       __strtoi64                 1009edc0 f   LIBCMTD:strtoq.obj
 0002:0004c490       __strtoi64_l               1009f490 f   LIBCMTD:strtoq.obj
 0002:0004c4c0       __strtoui64                1009f4c0 f   LIBCMTD:strtoq.obj
 0002:0004c520       __strtoui64_l              1009f520 f   LIBCMTD:strtoq.obj
 0002:0004c550       __strtod_l                 1009f550 f   LIBCMTD:strtod.obj
 0002:0004c7d0       _strtod                    1009f7d0 f   LIBCMTD:strtod.obj
 0002:0004c7f0       __RTC_NumErrors            1009f7f0 f   LIBCMTD:_userapi_.obj
 0002:0004c800       __RTC_GetErrDesc           1009f800 f   LIBCMTD:_userapi_.obj
 0002:0004c820       __RTC_SetErrorType         1009f820 f   LIBCMTD:_userapi_.obj
 0002:0004c850       __RTC_SetErrorFunc         1009f850 f   LIBCMTD:_userapi_.obj
 0002:0004c880       __RTC_SetErrorFuncW        1009f880 f   LIBCMTD:_userapi_.obj
 0002:0004c8b0       ?_RTC_GetErrorFunc@@YAP6AHHPBDH00ZZPBX@Z 1009f8b0 f   LIBCMTD:_userapi_.obj
 0002:0004c8c0       ?_RTC_GetErrorFuncW@@YAP6AHHPB_WH00ZZPBX@Z 1009f8c0 f   LIBCMTD:_userapi_.obj
 0002:0004c8d0       __chkesp                   1009f8d0 f   LIBCMTD:chkesp.obj
 0002:0004c920       __CRT_RTC_INIT             1009f920 f   LIBCMTD:chkesp.obj
 0002:0004c930       __CRT_RTC_INITW            1009f930 f   LIBCMTD:chkesp.obj
 0002:0004c940       __VEC_memcpy               1009f940 f   LIBCMTD:p4_memcpy.obj
 0002:0004ca90       ___sse2_available_init     1009fa90 f   LIBCMTD:cpu_disp.obj
 0002:0004cab0       ?_RTC_Failure@@YAXPAXH@Z   1009fab0 f   LIBCMTD:_error_.obj
 0002:0004cf40       ?_RTC_StackFailure@@YAXPAXPBD@Z 1009ff40 f   LIBCMTD:_error_.obj
 0002:0004d080       ?_RTC_AllocaFailure@@YAXPAXPAU_RTC_ALLOCA_NODE@@H@Z 100a0080 f   LIBCMTD:_error_.obj
 0002:0004d290       __RTC_UninitUse            100a0290 f   LIBCMTD:_error_.obj
 0002:0004d3c0       ?_Type_info_dtor@type_info@@CAXPAV1@@Z 100a03c0 f   LIBCMTD:typname.obj
 0002:0004d510       ?_Name_base@type_info@@CAPBDPBV1@PAU__type_info_node@@@Z 100a0510 f   LIBCMTD:typname.obj
 0002:0004d720       __invoke_watson_if_error   100a0720 f i LIBCMTD:typname.obj
 0002:0004d760       ?_Type_info_dtor_internal@type_info@@CAXPAV1@@Z 100a0760 f   LIBCMTD:typname.obj
 0002:0004d8b0       ___unDNameHelper           100a08b0 f   LIBCMTD:typname.obj
 0002:0004d900       ?_Name_base_internal@type_info@@CAPBDPBV1@PAU__type_info_node@@@Z 100a0900 f   LIBCMTD:typname.obj
 0002:0004db30       ___clean_type_info_names_internal 100a0b30 f   LIBCMTD:typname.obj
 0002:0004dc10       _strcmp                    100a0c10 f   LIBCMTD:strcmp.obj
 0002:0004dcc0       _abort                     100a0cc0 f   LIBCMTD:abort.obj
 0002:0004dd40       __set_abort_behavior       100a0d40 f   LIBCMTD:abort.obj
 0002:0004dd80       __FF_MSGBANNER             100a0d80 f   LIBCMTD:crt0msg.obj
 0002:0004dde0       __GET_RTERRMSG             100a0de0 f   LIBCMTD:crt0msg.obj
 0002:0004de40       __NMSG_WRITE               100a0e40 f   LIBCMTD:crt0msg.obj
 0002:0004e240       ___getlocaleinfo           100a1240 f   LIBCMTD:inithelp.obj
 0002:0004e5d0       __initp_misc_purevirt      100a15d0 f   LIBCMTD:inithelp.obj
 0002:0004e5f0       __setdefaultprecision      100a15f0 f   LIBCMTD:fp8.obj
 0002:0004e640       __forcdecpt                100a1640 f   LIBCMTD:cvt.obj
 0002:0004e660       __forcdecpt_l              100a1660 f   LIBCMTD:cvt.obj
 0002:0004e750       __cropzeros                100a1750 f   LIBCMTD:cvt.obj
 0002:0004e770       __cropzeros_l              100a1770 f   LIBCMTD:cvt.obj
 0002:0004e8c0       __positive                 100a18c0 f   LIBCMTD:cvt.obj
 0002:0004e900       __fassign_l                100a1900 f   LIBCMTD:cvt.obj
 0002:0004e970       __fassign                  100a1970 f   LIBCMTD:cvt.obj
 0002:0004e9a0       __cftoe_l                  100a19a0 f   LIBCMTD:cvt.obj
 0002:0004f040       __cftoe                    100a2040 f   LIBCMTD:cvt.obj
 0002:0004f070       __cftoa_l                  100a2070 f   LIBCMTD:cvt.obj
 0002:0004fa40       ?strrchr@@YAPADPADH@Z      100a2a40 f i LIBCMTD:cvt.obj
 0002:0004fa60       __cftoa                    100a2a60 f   LIBCMTD:cvt.obj
 0002:0004fa90       __cftof_l                  100a2a90 f   LIBCMTD:cvt.obj
 0002:0004ff90       __cftof                    100a2f90 f   LIBCMTD:cvt.obj
 0002:0004ffc0       __cftog_l                  100a2fc0 f   LIBCMTD:cvt.obj
 0002:00050280       __cftog                    100a3280 f   LIBCMTD:cvt.obj
 0002:000502b0       __cfltcvt_l                100a32b0 f   LIBCMTD:cvt.obj
 0002:000503a0       __cfltcvt                  100a33a0 f   LIBCMTD:cvt.obj
 0002:00050420       __initp_misc_cfltcvt_tab   100a3420 f   LIBCMTD:cmiscdat.obj
 0002:00050470       __cintrindisp2             100a3470 f   LIBCMTD:_87cdisp_.obj
 0002:000504ae       __cintrindisp1             100a34ae f   LIBCMTD:_87cdisp_.obj
 0002:000504eb       __ctrandisp2               100a34eb f   LIBCMTD:_87cdisp_.obj
 0002:0005067a       __ctrandisp1               100a367a f   LIBCMTD:_87cdisp_.obj
 0002:000506ad       __fload                    100a36ad f   LIBCMTD:_87cdisp_.obj
 0002:00050790       __trandisp1                100a3790 f   LIBCMTD:_87disp_.obj
 0002:000507f7       __trandisp2                100a37f7 f   LIBCMTD:_87disp_.obj
 0002:00050883       __rttospopde               100a3883     LIBCMTD:_87disp_.obj
 0002:00050888       __rttospop                 100a3888     LIBCMTD:_87disp_.obj
 0002:0005088a       __rtnospop                 100a388a     LIBCMTD:_87disp_.obj
 0002:0005088c       __rttosnpop                100a388c     LIBCMTD:_87disp_.obj
 0002:0005088d       __rtnospopde               100a388d     LIBCMTD:_87disp_.obj
 0002:00050894       __rtzeropop                100a3894     LIBCMTD:_87disp_.obj
 0002:00050896       __rtzeronpop               100a3896     LIBCMTD:_87disp_.obj
 0002:0005089b       __rtonepop                 100a389b     LIBCMTD:_87disp_.obj
 0002:0005089d       __rtonenpop                100a389d     LIBCMTD:_87disp_.obj
 0002:000508a2       __tosnan1                  100a38a2     LIBCMTD:_87disp_.obj
 0002:000508cd       __nosnan2                  100a38cd     LIBCMTD:_87disp_.obj
 0002:000508cf       __tosnan2                  100a38cf     LIBCMTD:_87disp_.obj
 0002:000508f7       __nan2                     100a38f7     LIBCMTD:_87disp_.obj
 0002:00050936       __rtindfpop                100a3936     LIBCMTD:_87disp_.obj
 0002:00050938       __rtindfnpop               100a3938     LIBCMTD:_87disp_.obj
 0002:00050949       __rttosnpopde              100a3949     LIBCMTD:_87disp_.obj
 0002:00050953       __rtchsifneg               100a3953     LIBCMTD:_87disp_.obj
 0002:000509d0       __cinit                    100a39d0 f   LIBCMTD:crt0dat.obj
 0002:00050aa0       _exit                      100a3aa0 f   LIBCMTD:crt0dat.obj
 0002:00050ac0       __exit                     100a3ac0 f   LIBCMTD:crt0dat.obj
 0002:00050ae0       __cexit                    100a3ae0 f   LIBCMTD:crt0dat.obj
 0002:00050b00       __c_exit                   100a3b00 f   LIBCMTD:crt0dat.obj
 0002:00050b20       __amsg_exit                100a3b20 f   LIBCMTD:crt0dat.obj
 0002:00050b50       ___freeCrtMemory           100a3b50 f   LIBCMTD:crt0dat.obj
 0002:00050f60       ___crtCorExitProcess       100a3f60 f   LIBCMTD:crt0dat.obj
 0002:00050fb0       ___crtExitProcess          100a3fb0 f   LIBCMTD:crt0dat.obj
 0002:00050fe0       __lockexit                 100a3fe0 f   LIBCMTD:crt0dat.obj
 0002:00051000       __unlockexit               100a4000 f   LIBCMTD:crt0dat.obj
 0002:00051020       __init_pointers            100a4020 f   LIBCMTD:crt0dat.obj
 0002:000510d0       __initterm_e               100a40d0 f   LIBCMTD:crt0dat.obj
 0002:00051120       __get_wpgmptr              100a4120 f   LIBCMTD:crt0dat.obj
 0002:00051250       __get_pgmptr               100a4250 f   LIBCMTD:crt0dat.obj
 0002:00051380       __except_handler4          100a4380 f   LIBCMTD:chandler4.obj
 0002:00051630       __malloc_dbg               100a4630 f   LIBCMTD:dbgheap.obj
 0002:00051670       __nh_malloc                100a4670 f   LIBCMTD:dbgheap.obj
 0002:000516a0       __nh_malloc_dbg            100a46a0 f   LIBCMTD:dbgheap.obj
 0002:000517a0       __heap_alloc               100a47a0 f   LIBCMTD:dbgheap.obj
 0002:00051c70       __heap_alloc_dbg           100a4c70 f   LIBCMTD:dbgheap.obj
 0002:00051ce0       __calloc_dbg_impl          100a4ce0 f   LIBCMTD:dbgheap.obj
 0002:00051d80       __calloc_dbg               100a4d80 f   LIBCMTD:dbgheap.obj
 0002:00051df0       __recalloc                 100a4df0 f   LIBCMTD:dbgheap.obj
 0002:00051e30       __realloc_dbg              100a4e30 f   LIBCMTD:dbgheap.obj
 0002:00052670       __recalloc_dbg             100a5670 f   LIBCMTD:dbgheap.obj
 0002:00052750       __expand                   100a5750 f   LIBCMTD:dbgheap.obj
 0002:00052780       __expand_dbg               100a5780 f   LIBCMTD:dbgheap.obj
 0002:000528d0       __free_nolock              100a58d0 f   LIBCMTD:dbgheap.obj
 0002:000528f0       __free_dbg                 100a58f0 f   LIBCMTD:dbgheap.obj
 0002:00052990       __free_dbg_nolock          100a5990 f   LIBCMTD:dbgheap.obj
 0002:00052fb0       __msize                    100a5fb0 f   LIBCMTD:dbgheap.obj
 0002:00052fd0       __msize_dbg                100a5fd0 f   LIBCMTD:dbgheap.obj
 0002:00053230       __CrtSetBreakAlloc         100a6230 f   LIBCMTD:dbgheap.obj
 0002:00053260       __CrtSetDbgBlockType       100a6260 f   LIBCMTD:dbgheap.obj
 0002:00053380       __CrtSetAllocHook          100a6380 f   LIBCMTD:dbgheap.obj
 0002:000533b0       __CrtGetAllocHook          100a63b0 f   LIBCMTD:dbgheap.obj
 0002:00053410       __CrtCheckMemory           100a6410 f   LIBCMTD:dbgheap.obj
 0002:00053980       __CrtSetDbgFlag            100a6980 f   LIBCMTD:dbgheap.obj
 0002:00053b20       __CrtDoForAllClientObjects 100a6b20 f   LIBCMTD:dbgheap.obj
 0002:00053c90       __CrtIsValidPointer        100a6c90 f   LIBCMTD:dbgheap.obj
 0002:00053cb0       __CrtIsValidHeapPointer    100a6cb0 f   LIBCMTD:dbgheap.obj
 0002:00053d10       __CrtIsMemoryBlock         100a6d10 f   LIBCMTD:dbgheap.obj
 0002:00053ee0       __CrtReportBlockType       100a6ee0 f   LIBCMTD:dbgheap.obj
 0002:00053f20       __CrtSetDumpClient         100a6f20 f   LIBCMTD:dbgheap.obj
 0002:00053f50       __CrtGetDumpClient         100a6f50 f   LIBCMTD:dbgheap.obj
 0002:00053f60       __CrtMemCheckpoint         100a6f60 f   LIBCMTD:dbgheap.obj
 0002:00054200       __CrtMemDifference         100a7200 f   LIBCMTD:dbgheap.obj
 0002:000544a0       __CrtMemDumpAllObjectsSince 100a74a0 f   LIBCMTD:dbgheap.obj
 0002:00054ad0       __invoke_watson_if_oneof   100a7ad0 f i LIBCMTD:dbgheap.obj
 0002:00054b20       __CrtDumpMemoryLeaks       100a7b20 f   LIBCMTD:dbgheap.obj
 0002:00054bc0       __CrtMemDumpStatistics     100a7bc0 f   LIBCMTD:dbgheap.obj
 0002:00054d10       __aligned_malloc           100a7d10 f   LIBCMTD:dbgheap.obj
 0002:00054d40       __aligned_malloc_dbg       100a7d40 f   LIBCMTD:dbgheap.obj
 0002:00054d70       __aligned_realloc          100a7d70 f   LIBCMTD:dbgheap.obj
 0002:00054da0       __aligned_recalloc         100a7da0 f   LIBCMTD:dbgheap.obj
 0002:00054dd0       __aligned_realloc_dbg      100a7dd0 f   LIBCMTD:dbgheap.obj
 0002:00054e00       __aligned_recalloc_dbg     100a7e00 f   LIBCMTD:dbgheap.obj
 0002:00054e40       __aligned_offset_malloc    100a7e40 f   LIBCMTD:dbgheap.obj
 0002:00054e70       __aligned_offset_malloc_dbg 100a7e70 f   LIBCMTD:dbgheap.obj
 0002:000550a0       __aligned_offset_realloc   100a80a0 f   LIBCMTD:dbgheap.obj
 0002:000550d0       __aligned_offset_recalloc  100a80d0 f   LIBCMTD:dbgheap.obj
 0002:00055100       __aligned_offset_realloc_dbg 100a8100 f   LIBCMTD:dbgheap.obj
 0002:000554b0       __aligned_offset_recalloc_dbg 100a84b0 f   LIBCMTD:dbgheap.obj
 0002:000555a0       __aligned_free             100a85a0 f   LIBCMTD:dbgheap.obj
 0002:000555c0       __aligned_free_dbg         100a85c0 f   LIBCMTD:dbgheap.obj
 0002:000556a0       __CrtSetDebugFillThreshold 100a86a0 f   LIBCMTD:dbgheap.obj
 0002:000556d0       __CrtSetCheckCount         100a86d0 f   LIBCMTD:dbgheap.obj
 0002:000556f0       __CrtGetCheckCount         100a86f0 f   LIBCMTD:dbgheap.obj
 0002:00055700       __aligned_msize            100a8700 f   LIBCMTD:dbgheap.obj
 0002:00055730       __aligned_msize_dbg        100a8730 f   LIBCMTD:dbgheap.obj
 0002:00055880       __VEC_memzero              100a8880 f   LIBCMTD:p4_memset.obj
 0002:00055970       ___iob_func                100a8970 f   LIBCMTD:_file.obj
 0002:00055980       ___initstdio               100a8980 f   LIBCMTD:_file.obj
 0002:00055b20       ___endstdio                100a8b20 f   LIBCMTD:_file.obj
 0002:00055b60       __lock_file                100a8b60 f   LIBCMTD:_file.obj
 0002:00055bd0       __lock_file2               100a8bd0 f   LIBCMTD:_file.obj
 0002:00055c20       __unlock_file              100a8c20 f   LIBCMTD:_file.obj
 0002:00055c90       __unlock_file2             100a8c90 f   LIBCMTD:_file.obj
 0002:00055ce0       __stbuf                    100a8ce0 f   LIBCMTD:_sftbuf.obj
 0002:00055e90       __ftbuf                    100a8e90 f   LIBCMTD:_sftbuf.obj
 0002:00055f40       __output_l                 100a8f40 f   LIBCMTD:output.obj
 0002:000578c0       _get_int_arg               100aa8c0 f i LIBCMTD:output.obj
 0002:000578f0       _get_int64_arg             100aa8f0 f i LIBCMTD:output.obj
 0002:00057920       _get_short_arg             100aa920 f i LIBCMTD:output.obj
 0002:00057950       __initp_misc_invarg        100aa950 f   LIBCMTD:invarg.obj
 0002:00057970       __invalid_parameter        100aa970 f   LIBCMTD:invarg.obj
 0002:000579e0       __invoke_watson            100aa9e0 f   LIBCMTD:invarg.obj
 0002:00057a20       __call_reportfault         100aaa20 f   LIBCMTD:invarg.obj
 0002:00057bd0       __set_invalid_parameter_handler 100aabd0 f   LIBCMTD:invarg.obj
 0002:00057c20       __get_invalid_parameter_handler 100aac20 f   LIBCMTD:invarg.obj
 0002:00057c60       ?_invalid_parameter@@YAXPBG00II@Z 100aac60 f   LIBCMTD:invarg.obj
 0002:00057c90       ?_invoke_watson@@YAXPBG00II@Z 100aac90 f   LIBCMTD:invarg.obj
 0002:00057cc0       __dosmaperr                100aacc0 f   LIBCMTD:dosmap.obj
 0002:00057d00       __get_errno_from_oserr     100aad00 f   LIBCMTD:dosmap.obj
 0002:00057da0       __set_errno                100aada0 f   LIBCMTD:dosmap.obj
 0002:00057de0       __get_errno                100aade0 f   LIBCMTD:dosmap.obj
 0002:00057e80       __set_doserrno             100aae80 f   LIBCMTD:dosmap.obj
 0002:00057ec0       __get_doserrno             100aaec0 f   LIBCMTD:dosmap.obj
 0002:00057f60       __errno                    100aaf60 f   LIBCMTD:dosmap.obj
 0002:00057f90       ___doserrno                100aaf90 f   LIBCMTD:dosmap.obj
 0002:00057fc0       __CrtSetReportHookW2       100aafc0 f   LIBCMTD:dbgrptw.obj
 0002:000583b0       __CrtDbgReportW            100ab3b0 f   LIBCMTD:dbgrptw.obj
 0002:00058400       __CrtDbgReportWV           100ab400 f i LIBCMTD:dbgrptw.obj
 0002:00058430       ___crtMessageWindowW       100ab430 f   LIBCMTD:dbgrptw.obj
 0002:00058930       ?_CrtDbgReportW@@YAHHPBGH00ZZ 100ab930 f   LIBCMTD:dbgrptw.obj
 0002:00058980       _vprintf_helper            100ab980 f   LIBCMTD:vprintf.obj
 0002:00058ae0       __vprintf_l                100abae0 f   LIBCMTD:vprintf.obj
 0002:00058b10       __vprintf_s_l              100abb10 f   LIBCMTD:vprintf.obj
 0002:00058b40       __vprintf_p_l              100abb40 f   LIBCMTD:vprintf.obj
 0002:00058b70       _vprintf                   100abb70 f   LIBCMTD:vprintf.obj
 0002:00058ba0       _vprintf_s                 100abba0 f   LIBCMTD:vprintf.obj
 0002:00058bd0       __vprintf_p                100abbd0 f   LIBCMTD:vprintf.obj
 0002:00058c00       __encoded_null             100abc00 f   LIBCMTD:tidtable.obj
 0002:00058c20       ___crtTlsAlloc@4           100abc20 f   LIBCMTD:tidtable.obj
 0002:00058c40       ___fls_getvalue@4          100abc40 f   LIBCMTD:tidtable.obj
 0002:00058c70       ___get_flsindex            100abc70 f   LIBCMTD:tidtable.obj
 0002:00058c80       ___set_flsgetvalue         100abc80 f   LIBCMTD:tidtable.obj
 0002:00058ce0       ___fls_setvalue@8          100abce0 f   LIBCMTD:tidtable.obj
 0002:00058d10       __mtinit                   100abd10 f   LIBCMTD:tidtable.obj
 0002:00058f90       __mtterm                   100abf90 f   LIBCMTD:tidtable.obj
 0002:00059000       __initptd                  100ac000 f   LIBCMTD:tidtable.obj
 0002:00059170       __getptd_noexit            100ac170 f   LIBCMTD:tidtable.obj
 0002:00059260       __getptd                   100ac260 f   LIBCMTD:tidtable.obj
 0002:00059290       __freefls@4                100ac290 f   LIBCMTD:tidtable.obj
 0002:00059520       __freeptd                  100ac520 f   LIBCMTD:tidtable.obj
 0002:000595c0       ___threadid                100ac5c0 f   LIBCMTD:tidtable.obj
 0002:000595d0       ___threadhandle            100ac5d0 f   LIBCMTD:tidtable.obj
 0002:000595e0       __ioinit                   100ac5e0 f   LIBCMTD:ioinit.obj
 0002:00059b00       __ioterm                   100acb00 f   LIBCMTD:ioinit.obj
 0002:00059bd0       __setenvp                  100acbd0 f   LIBCMTD:stdenvp.obj
 0002:00059de0       __setargv                  100acde0 f   LIBCMTD:stdargv.obj
 0002:00059f40       __set_pgmptr               100acf40 f i LIBCMTD:stdargv.obj
 0002:0005a3a0       ___crtGetEnvironmentStringsA 100ad3a0 f   LIBCMTD:a_env.obj
 0002:0005a4e0       __RTC_Initialize           100ad4e0 f   LIBCMTD:_initsect_.obj
 0002:0005a510       __RTC_Terminate            100ad510 f   LIBCMTD:_initsect_.obj
 0002:0005a540       __heap_init                100ad540 f   LIBCMTD:heapinit.obj
 0002:0005a590       __heap_term                100ad590 f   LIBCMTD:heapinit.obj
 0002:0005a5c0       __get_heap_handle          100ad5c0 f   LIBCMTD:heapinit.obj
 0002:0005a600       ___security_init_cookie    100ad600 f   LIBCMTD:gs_support.obj
 0002:0005a720       ___CppXcptFilter           100ad720 f   LIBCMTD:winxfltr.obj
 0002:0005a750       __XcptFilter               100ad750 f   LIBCMTD:winxfltr.obj
 0002:0005aa40       ___libm_setusermatherr     100ada40 f   LIBCMTD:_libm_error_.obj
 0002:0005aa80       ___libm_error_support      100ada80 f   LIBCMTD:_libm_error_.obj
 0002:0005b880       __set_SSE2_enable          100ae880 f   LIBCMTD:_mathfcns_.obj
 0002:0005b8b0       __sse2_mathfcns_init       100ae8b0 f   LIBCMTD:_mathfcns_.obj
 0002:0005b8d0       __floor_default            100ae8d0 f   LIBCMTD:_floor_.obj
 0002:0005ba60       __CIpow_pentium4           100aea60 f   LIBCMTD:_pow_pentium4_.obj
 0002:0005ba79       __pow_pentium4             100aea79     LIBCMTD:_pow_pentium4_.obj
 0002:0005c8b1       __fFEXP                    100af8b1     LIBCMTD:_87tran_.obj
 0002:0005c908       __rtinfpopse               100af908     LIBCMTD:_87tran_.obj
 0002:0005c90a       __rtinfnpopse              100af90a     LIBCMTD:_87tran_.obj
 0002:0005c91a       __fFLN                     100af91a     LIBCMTD:_87tran_.obj
 0002:0005c9cf       __rtinfpop                 100af9cf     LIBCMTD:_87tran_.obj
 0002:0005c9d1       __rtinfnpop                100af9d1     LIBCMTD:_87tran_.obj
 0002:0005c9ee       __ffexpm1                  100af9ee     LIBCMTD:_87tran_.obj
 0002:0005cb20       __startTwoArgErrorHandling 100afb20 f   LIBCMTD:_genexcep_.obj
 0002:0005cb37       __startOneArgErrorHandling 100afb37 f   LIBCMTD:_genexcep_.obj
 0002:0005cb90       __twoToTOS                 100afb90 f   LIBCMTD:_common_.obj
 0002:0005cba5       __load_CW                  100afba5 f   LIBCMTD:_common_.obj
 0002:0005cbbc       __convertTOStoQNaN         100afbbc f   LIBCMTD:_common_.obj
 0002:0005cbd5       __fload_withFB             100afbd5 f   LIBCMTD:_common_.obj
 0002:0005cc18       __checkTOS_withFB          100afc18 f   LIBCMTD:_common_.obj
 0002:0005cc2e       __fast_exit                100afc2e f   LIBCMTD:_common_.obj
 0002:0005cc3b       __math_exit                100afc3b f   LIBCMTD:_common_.obj
 0002:0005cc65       __check_overflow_exit      100afc65 f   LIBCMTD:_common_.obj
 0002:0005cc79       __check_range_exit         100afc79 f   LIBCMTD:_common_.obj
 0002:0005cd80       __powhlp                   100afd80 f   LIBCMTD:_powhlp_.obj
 0002:0005cf90       __d_inttype                100aff90 f   LIBCMTD:_powhlp_.obj
 0002:0005d040       __CIacos_pentium4          100b0040 f   LIBCMTD:_acos_pentium4_.obj
 0002:0005d058       __acos_pentium4            100b0058     LIBCMTD:_acos_pentium4_.obj
 0002:0005d6f0       _cos                       100b06f0 f   LIBCMTD:_cos_.obj
 0002:0005d730       __CIcos                    100b0730 f   LIBCMTD:_cos_.obj
 0002:0005d76b       __CIcos_default            100b076b f   LIBCMTD:_cos_.obj
 0002:0005d77f       __cos_default              100b077f     LIBCMTD:_cos_.obj
 0002:0005d870       _sin                       100b0870 f   LIBCMTD:_sin_.obj
 0002:0005d8b0       __CIsin                    100b08b0 f   LIBCMTD:_sin_.obj
 0002:0005d8eb       __CIsin_default            100b08eb f   LIBCMTD:_sin_.obj
 0002:0005d8ff       __sin_default              100b08ff     LIBCMTD:_sin_.obj
 0002:0005d9f0       _tan                       100b09f0 f   LIBCMTD:_tan_.obj
 0002:0005da30       __CItan                    100b0a30 f   LIBCMTD:_tan_.obj
 0002:0005da6b       __CItan_default            100b0a6b f   LIBCMTD:_tan_.obj
 0002:0005da7f       __tan_default              100b0a7f     LIBCMTD:_tan_.obj
 0002:0005db70       __CIasin_pentium4          100b0b70 f   LIBCMTD:_asin_pentium4_.obj
 0002:0005db88       __asin_pentium4            100b0b88     LIBCMTD:_asin_pentium4_.obj
 0002:0005e250       __CxxThrowException@8      100b1250 f   LIBCMTD:throw.obj
 0002:0005e2c0       ??0exception@std@@QAE@XZ   100b12c0 f   LIBCMTD:stdexcpt.obj
 0002:0005e300       ??_Eexception@std@@UAEPAXI@Z 100b1300 f i LIBCMTD:stdexcpt.obj
 0002:0005e300       ??_Gexception@std@@UAEPAXI@Z 100b1300 f i LIBCMTD:stdexcpt.obj
 0002:0005e340       ??0exception@std@@QAE@ABQBD@Z 100b1340 f   LIBCMTD:stdexcpt.obj
 0002:0005e390       ??0exception@std@@QAE@ABQBDH@Z 100b1390 f   LIBCMTD:stdexcpt.obj
 0002:0005e3d0       ??0exception@std@@QAE@ABV01@@Z 100b13d0 f   LIBCMTD:stdexcpt.obj
 0002:0005e420       ??4exception@std@@QAEAAV01@ABV01@@Z 100b1420 f   LIBCMTD:stdexcpt.obj
 0002:0005e480       ??1exception@std@@UAE@XZ   100b1480 f   LIBCMTD:stdexcpt.obj
 0002:0005e4b0       ?what@exception@std@@UBEPBDXZ 100b14b0 f   LIBCMTD:stdexcpt.obj
 0002:0005e4f0       ?_Copy_str@exception@std@@AAEXPBD@Z 100b14f0 f   LIBCMTD:stdexcpt.obj
 0002:0005e570       ?_Tidy@exception@std@@AAEXXZ 100b1570 f   LIBCMTD:stdexcpt.obj
 0002:0005e5c0       ??0bad_cast@std@@QAE@PBD@Z 100b15c0 f   LIBCMTD:stdexcpt.obj
 0002:0005e5f0       ??_Gbad_cast@std@@UAEPAXI@Z 100b15f0 f i LIBCMTD:stdexcpt.obj
 0002:0005e5f0       ??_Ebad_cast@std@@UAEPAXI@Z 100b15f0 f i LIBCMTD:stdexcpt.obj
 0002:0005e630       ??0bad_cast@std@@QAE@ABV01@@Z 100b1630 f   LIBCMTD:stdexcpt.obj
 0002:0005e660       ??1bad_cast@std@@UAE@XZ    100b1660 f   LIBCMTD:stdexcpt.obj
 0002:0005e690       ??0bad_typeid@std@@QAE@PBD@Z 100b1690 f   LIBCMTD:stdexcpt.obj
 0002:0005e6c0       ??_Gbad_typeid@std@@UAEPAXI@Z 100b16c0 f i LIBCMTD:stdexcpt.obj
 0002:0005e6c0       ??_Ebad_typeid@std@@UAEPAXI@Z 100b16c0 f i LIBCMTD:stdexcpt.obj
 0002:0005e700       ??0bad_typeid@std@@QAE@ABV01@@Z 100b1700 f   LIBCMTD:stdexcpt.obj
 0002:0005e730       ??1bad_typeid@std@@UAE@XZ  100b1730 f   LIBCMTD:stdexcpt.obj
 0002:0005e760       ??0__non_rtti_object@std@@QAE@PBD@Z 100b1760 f   LIBCMTD:stdexcpt.obj
 0002:0005e790       ??_E__non_rtti_object@std@@UAEPAXI@Z 100b1790 f i LIBCMTD:stdexcpt.obj
 0002:0005e790       ??_G__non_rtti_object@std@@UAEPAXI@Z 100b1790 f i LIBCMTD:stdexcpt.obj
 0002:0005e7d0       ??0__non_rtti_object@std@@QAE@ABV01@@Z 100b17d0 f   LIBCMTD:stdexcpt.obj
 0002:0005e800       ??1__non_rtti_object@std@@UAE@XZ 100b1800 f   LIBCMTD:stdexcpt.obj
 0002:0005e830       __mtinitlocks              100b1830 f   LIBCMTD:mlock.obj
 0002:0005e8e0       __mtdeletelocks            100b18e0 f   LIBCMTD:mlock.obj
 0002:0005e9d0       __mtinitlocknum            100b19d0 f   LIBCMTD:mlock.obj
 0002:0005eb70       __lock                     100b1b70 f   LIBCMTD:mlock.obj
 0002:0005ebc0       __unlock                   100b1bc0 f   LIBCMTD:mlock.obj
 0002:0005ebe0       __lockerr_exit             100b1be0 f   LIBCMTD:mlock.obj
 0002:0005ec10       __initp_heap_handler       100b1c10 f   LIBCMTD:handler.obj
 0002:0005ec30       ?_set_new_handler@@YAP6AHI@ZP6AHI@Z@Z 100b1c30 f   LIBCMTD:handler.obj
 0002:0005ec80       ?_set_new_handler@@YAP6AHI@ZH@Z 100b1c80 f   LIBCMTD:handler.obj
 0002:0005ecd0       ?_query_new_handler@@YAP6AHI@ZXZ 100b1cd0 f   LIBCMTD:handler.obj
 0002:0005ecf0       __callnewh                 100b1cf0 f   LIBCMTD:handler.obj
 0002:0005ed40       _malloc                    100b1d40 f   LIBCMTD:dbgmalloc.obj
 0002:0005ed80       __input_l                  100b1d80 f   LIBCMTD:input.obj
 0002:00060c10       __INTRN_LOCALE_CONV        100b3c10 f i LIBCMTD:input.obj
 0002:00060d80       _strlen                    100b3d80 f   LIBCMTD:strlen.obj
 0002:00060e30       __input_s_l                100b3e30 f   LIBCMTD:inputs.obj
 0002:000632a0       __fltin2                   100b62a0 f   LIBCMTD:_cfin_.obj
 0002:000633b0       __chvalidator              100b63b0 f   LIBCMTD:isctype.obj
 0002:00063410       __chvalidator_l            100b6410 f   LIBCMTD:isctype.obj
 0002:000634f0       __isctype_l                100b64f0 f   LIBCMTD:isctype.obj
 0002:00063650       __isctype                  100b6650 f   LIBCMTD:isctype.obj
 0002:000636a0       @__security_check_cookie@4 100b66a0 f   LIBCMTD:secchk.obj
 0002:000636c0       ___updatetmbcinfo          100b66c0 f   LIBCMTD:mbctype.obj
 0002:00063810       __setmbcp                  100b6810 f   LIBCMTD:mbctype.obj
 0002:00063ca0       __setmbcp_nolock           100b6ca0 f   LIBCMTD:mbctype.obj
 0002:00064680       __getmbcp                  100b7680 f   LIBCMTD:mbctype.obj
 0002:00064710       ___initmbctable            100b7710 f   LIBCMTD:mbctype.obj
 0002:00064740       ___addlocaleref            100b7740 f   LIBCMTD:localref.obj
 0002:000648b0       ___removelocaleref         100b78b0 f   LIBCMTD:localref.obj
 0002:00064a30       ___freetlocinfo            100b7a30 f   LIBCMTD:localref.obj
 0002:00064dd0       __updatetlocinfoEx_nolock  100b7dd0 f   LIBCMTD:localref.obj
 0002:00064e70       ___updatetlocinfo          100b7e70 f   LIBCMTD:localref.obj
 0002:00064f70       ___strgtold12_l            100b7f70 f   LIBCMTD:_strgtold_.obj
 0002:00065cd0       ___multtenpow12            100b8cd0 f i LIBCMTD:_strgtold_.obj
 0002:00065de0       ___ld12mul                 100b8de0 f i LIBCMTD:_strgtold_.obj
 0002:000662e0       ___addl                    100b92e0 f i LIBCMTD:_strgtold_.obj
 0002:00066330       ___shl_12                  100b9330 f i LIBCMTD:_strgtold_.obj
 0002:000663b0       ___shr_12                  100b93b0 f i LIBCMTD:_strgtold_.obj
 0002:00066430       ___STRINGTOLD_L            100b9430 f   LIBCMTD:_strgtold_.obj
 0002:000664c0       __flsbuf                   100b94c0 f   LIBCMTD:_flsbuf.obj
 0002:00066830       ___crtLCMapStringA         100b9830 f   LIBCMTD:a_map.obj
 0002:00066be0       __MarkAllocaS              100b9be0 f i LIBCMTD:a_map.obj
 0002:00066c10       __freea                    100b9c10 f i LIBCMTD:a_map.obj
 0002:00066cf0       __isleadbyte_l             100b9cf0 f i LIBCMTD:_wctype.obj
 0002:00066d50       _isleadbyte                100b9d50 f i LIBCMTD:_wctype.obj
 0002:00066d70       __iswalpha_l               100b9d70 f i LIBCMTD:_wctype.obj
 0002:00066d90       _iswalpha                  100b9d90 f i LIBCMTD:_wctype.obj
 0002:00066db0       __iswupper_l               100b9db0 f i LIBCMTD:_wctype.obj
 0002:00066dd0       _iswupper                  100b9dd0 f i LIBCMTD:_wctype.obj
 0002:00066df0       __iswlower_l               100b9df0 f i LIBCMTD:_wctype.obj
 0002:00066e10       _iswlower                  100b9e10 f i LIBCMTD:_wctype.obj
 0002:00066e30       __iswdigit_l               100b9e30 f i LIBCMTD:_wctype.obj
 0002:00066e50       _iswdigit                  100b9e50 f i LIBCMTD:_wctype.obj
 0002:00066e70       __iswxdigit_l              100b9e70 f i LIBCMTD:_wctype.obj
 0002:00066e90       _iswxdigit                 100b9e90 f i LIBCMTD:_wctype.obj
 0002:00066eb0       __iswspace_l               100b9eb0 f i LIBCMTD:_wctype.obj
 0002:00066ed0       _iswspace                  100b9ed0 f i LIBCMTD:_wctype.obj
 0002:00066ef0       __iswpunct_l               100b9ef0 f i LIBCMTD:_wctype.obj
 0002:00066f10       _iswpunct                  100b9f10 f i LIBCMTD:_wctype.obj
 0002:00066f30       __iswalnum_l               100b9f30 f i LIBCMTD:_wctype.obj
 0002:00066f50       _iswalnum                  100b9f50 f i LIBCMTD:_wctype.obj
 0002:00066f70       __iswprint_l               100b9f70 f i LIBCMTD:_wctype.obj
 0002:00066f90       _iswprint                  100b9f90 f i LIBCMTD:_wctype.obj
 0002:00066fb0       __iswgraph_l               100b9fb0 f i LIBCMTD:_wctype.obj
 0002:00066fd0       _iswgraph                  100b9fd0 f i LIBCMTD:_wctype.obj
 0002:00066ff0       __iswcntrl_l               100b9ff0 f i LIBCMTD:_wctype.obj
 0002:00067010       _iswcntrl                  100ba010 f i LIBCMTD:_wctype.obj
 0002:00067030       _iswascii                  100ba030 f i LIBCMTD:_wctype.obj
 0002:00067050       __iswcsym_l                100ba050 f i LIBCMTD:_wctype.obj
 0002:000670a0       ___iswcsym                 100ba0a0 f i LIBCMTD:_wctype.obj
 0002:000670f0       __iswcsymf_l               100ba0f0 f i LIBCMTD:_wctype.obj
 0002:00067140       ___iswcsymf                100ba140 f i LIBCMTD:_wctype.obj
 0002:00067190       ____setlc_active_func      100ba190 f   LIBCMTD:setlocal.obj
 0002:000671a0       ____unguarded_readlc_active_add_func 100ba1a0 f   LIBCMTD:setlocal.obj
 0002:000671b0       __configthreadlocale       100ba1b0 f   LIBCMTD:setlocal.obj
 0002:00067300       __locterm                  100ba300 f   LIBCMTD:setlocal.obj
 0002:000673c0       __free_locale              100ba3c0 f   LIBCMTD:setlocal.obj
 0002:00067550       ___free_locale             100ba550 f   LIBCMTD:setlocal.obj
 0002:00067570       __create_locale            100ba570 f   LIBCMTD:setlocal.obj
 0002:00067830       ___create_locale           100ba830 f   LIBCMTD:setlocal.obj
 0002:00067850       __get_current_locale       100ba850 f   LIBCMTD:setlocal.obj
 0002:000679b0       ___get_current_locale      100ba9b0 f   LIBCMTD:setlocal.obj
 0002:000679c0       _setlocale                 100ba9c0 f   LIBCMTD:setlocal.obj
 0002:00068c20       __expandlocale             100bbc20 f   LIBCMTD:setlocal.obj
 0002:00068f70       ___init_dummy              100bbf70 f   LIBCMTD:setlocal.obj
 0002:00068f80       __strcats                  100bbf80 f   LIBCMTD:setlocal.obj
 0002:00069020       ___lc_strtolc              100bc020 f   LIBCMTD:setlocal.obj
 0002:000692a0       ___lc_lctostr              100bc2a0 f   LIBCMTD:setlocal.obj
 0002:00069360       __getdrive                 100bc360 f   LIBCMTD:drive.obj
 0002:00069540       __chdrive                  100bc540 f   LIBCMTD:drive.obj
 0002:000696e0       __mbctoupper_l             100bc6e0 f   LIBCMTD:mbtoupr.obj
 0002:00069880       __mbctoupper               100bc880 f   LIBCMTD:mbtoupr.obj
 0002:000698a0       __woutput_l                100bc8a0 f   LIBCMTD:woutput.obj
 0002:0006af20       __vsprintf_l               100bdf20 f   LIBCMTD:vsprintf.obj
 0002:0006b120       _vsprintf                  100be120 f   LIBCMTD:vsprintf.obj
 0002:0006b150       __vscprintf_helper         100be150 f   LIBCMTD:vsprintf.obj
 0002:0006b260       __vscprintf                100be260 f   LIBCMTD:vsprintf.obj
 0002:0006b290       __vscprintf_l              100be290 f   LIBCMTD:vsprintf.obj
 0002:0006b2c0       __vscprintf_p              100be2c0 f   LIBCMTD:vsprintf.obj
 0002:0006b2f0       __vscprintf_p_l            100be2f0 f   LIBCMTD:vsprintf.obj
 0002:0006b320       __vsnprintf_helper         100be320 f   LIBCMTD:vsnprnc.obj
 0002:0006b580       __vsnprintf_c              100be580 f   LIBCMTD:vsnprnc.obj
 0002:0006b5e0       __vsnprintf_c_l            100be5e0 f   LIBCMTD:vsnprnc.obj
 0002:0006b640       __vsprintf_s_l             100be640 f   LIBCMTD:vsnprnc.obj
 0002:0006b940       _vsprintf_s                100be940 f   LIBCMTD:vsnprnc.obj
 0002:0006b970       __vsnprintf_s_l            100be970 f   LIBCMTD:vsnprnc.obj
 0002:0006bdf0       __vsnprintf_s              100bedf0 f   LIBCMTD:vsnprnc.obj
 0002:0006be20       __vsprintf_p               100bee20 f   LIBCMTD:vsnprnc.obj
 0002:0006be80       __vsprintf_p_l             100bee80 f   LIBCMTD:vsnprnc.obj
 0002:0006bee0       ?_JumpToContinuation@@YGXPAXPAUEHRegistrationNode@@@Z 100beee0 f   LIBCMTD:_trnsctrl_.obj
 0002:0006bf30       ?_CallMemberFunction0@@YGXPAX0@Z 100bef30 f   LIBCMTD:_trnsctrl_.obj
 0002:0006bf40       ?_CallMemberFunction1@@YGXPAX00@Z 100bef40 f   LIBCMTD:_trnsctrl_.obj
 0002:0006bf50       ?_CallMemberFunction2@@YGXPAX00H@Z 100bef50 f   LIBCMTD:_trnsctrl_.obj
 0002:0006bf60       ?_UnwindNestedFrames@@YGXPAUEHRegistrationNode@@PAUEHExceptionRecord@@@Z 100bef60 f   LIBCMTD:_trnsctrl_.obj
 0002:0006bfd0       ___CxxFrameHandler         100befd0 f   LIBCMTD:_trnsctrl_.obj
 0002:0006c020       ___CxxFrameHandler3        100bf020 f   LIBCMTD:_trnsctrl_.obj
 0002:0006c070       ___CxxFrameHandler2        100bf070 f   LIBCMTD:_trnsctrl_.obj
 0002:0006c0c0       ___CxxLongjmpUnwind@4      100bf0c0 f   LIBCMTD:_trnsctrl_.obj
 0002:0006c100       ?_CallCatchBlock2@@YAPAXPAUEHRegistrationNode@@PBU_s_FuncInfo@@PAXHK@Z 100bf100 f   LIBCMTD:_trnsctrl_.obj
 0002:0006c1f0       ?_CallSETranslator@@YAHPAUEHExceptionRecord@@PAUEHRegistrationNode@@PAX2PBU_s_FuncInfo@@H1@Z 100bf1f0 f   LIBCMTD:_trnsctrl_.obj
 0002:0006c400       ?_GetRangeOfTrysToCheck@@YAPBU_s_TryBlockMapEntry@@PBU_s_FuncInfo@@HHPAI1@Z 100bf400 f   LIBCMTD:_trnsctrl_.obj
 0002:0006c4a0       __CreateFrameInfo          100bf4a0 f   LIBCMTD:_trnsctrl_.obj
 0002:0006c4e0       __IsExceptionObjectToBeDestroyed 100bf4e0 f   LIBCMTD:_trnsctrl_.obj
 0002:0006c520       __FindAndUnlinkFrame       100bf520 f   LIBCMTD:_trnsctrl_.obj
 0002:0006c590       __aullrem                  100bf590 f   LIBCMTD:ullrem.obj
 0002:0006c630       __aulldiv                  100bf630 f   LIBCMTD:ulldiv.obj
 0002:0006c6c0       __CrtSetReportHook2        100bf6c0 f   LIBCMTD:dbgrpt.obj
 0002:0006cab0       __CrtDbgReport             100bfab0 f   LIBCMTD:dbgrpt.obj
 0002:0006cb00       __CrtDbgReportV            100bfb00 f i LIBCMTD:dbgrpt.obj
 0002:0006cb30       ___crtMessageWindowA       100bfb30 f   LIBCMTD:dbgrpt.obj
 0002:0006d030       ?_RTC_GetSrcLine@@YAHPAEPA_WKPAH1K@Z 100c0030 f   LIBCMTD:_pdblkup_.obj
 0002:0006d610       _free                      100c0610 f   LIBCMTD:dbgfree.obj
 0002:0006d630       _strcpy_s                  100c0630 f   LIBCMTD:strcpy_s.obj
 0002:0006d9c0       ___unDName                 100c09c0 f   LIBCMTD:undname.obj
 0002:0006dad0       ?Constructor@_HeapManager@@QAEXP6APAXI@ZP6AXPAX@Z@Z 100c0ad0 f i LIBCMTD:undname.obj
 0002:0006db20       ?Destructor@_HeapManager@@QAEXXZ 100c0b20 f i LIBCMTD:undname.obj
 0002:0006db80       ___unDNameEx               100c0b80 f   LIBCMTD:undname.obj
 0002:0006dc90       ??0UnDecorator@@QAE@PADPBDHP6APADJ@ZK@Z 100c0c90 f i LIBCMTD:undname.obj
 0002:0006dd50       ??BUnDecorator@@QAEPADXZ   100c0d50 f i LIBCMTD:undname.obj
 0002:0006e010       ?dbGetString@DName@@QBEPADXZ 100c1010 f   LIBCMTD:undname.obj
 0002:0006e040       ?getDecoratedName@UnDecorator@@CA?AVDName@@XZ 100c1040 f   LIBCMTD:undname.obj
 0002:0006e420       ?getSymbolName@UnDecorator@@CA?AVDName@@XZ 100c1420 f i LIBCMTD:undname.obj
 0002:0006e4b0       ?getZName@UnDecorator@@CA?AVDName@@_N0@Z 100c14b0 f   LIBCMTD:undname.obj
 0002:0006e800       ?getOperatorName@UnDecorator@@CA?AVDName@@_NPA_N@Z 100c1800 f i LIBCMTD:undname.obj
 0002:0006f3c0       ?getStringEncoding@UnDecorator@@CA?AVDName@@PADH@Z 100c23c0 f   LIBCMTD:undname.obj
 0002:0006f500       ?getScope@UnDecorator@@CA?AVDName@@XZ 100c2500 f   LIBCMTD:undname.obj
 0002:0006f9d0       ?getSignedDimension@UnDecorator@@CA?AVDName@@XZ 100c29d0 f   LIBCMTD:undname.obj
 0002:0006fa70       ?getDimension@UnDecorator@@CA?AVDName@@_N@Z 100c2a70 f   LIBCMTD:undname.obj
 0002:0006fdd0       ?getNumberOfDimensions@UnDecorator@@CAHXZ 100c2dd0 f   LIBCMTD:undname.obj
 0002:0006ff10       ?getTemplateName@UnDecorator@@CA?AVDName@@_N@Z 100c2f10 f   LIBCMTD:undname.obj
 0002:00070140       ?getTemplateArgumentList@UnDecorator@@CA?AVDName@@XZ 100c3140 f   LIBCMTD:undname.obj
 0002:00070460       ?getTemplateConstant@UnDecorator@@CA?AVDName@@XZ 100c3460 f   LIBCMTD:undname.obj
 0002:00070a10       ?composeDeclaration@UnDecorator@@CA?AVDName@@ABV2@@Z 100c3a10 f i LIBCMTD:undname.obj
 0002:00072580       ?getTypeEncoding@UnDecorator@@CAHXZ 100c5580 f i LIBCMTD:undname.obj
 0002:00073250       ?getBasedType@UnDecorator@@CA?AVDName@@XZ 100c6250 f   LIBCMTD:undname.obj
 0002:00073340       ?getScopedName@UnDecorator@@CA?AVDName@@XZ 100c6340 f   LIBCMTD:undname.obj
 0002:000734a0       ?getCallingConvention@UnDecorator@@CA?AVDName@@XZ 100c64a0 f   LIBCMTD:undname.obj
 0002:00073670       ?getReturnType@UnDecorator@@CA?AVDName@@PAV2@@Z 100c6670 f   LIBCMTD:undname.obj
 0002:000736d0       ?getDataType@UnDecorator@@CA?AVDName@@PAV2@@Z 100c66d0 f   LIBCMTD:undname.obj
 0002:00073830       ?getPrimaryDataType@UnDecorator@@CA?AVDName@@ABV2@@Z 100c6830 f   LIBCMTD:undname.obj
 0002:00073cb0       ?getArgumentTypes@UnDecorator@@CA?AVDName@@XZ 100c6cb0 f   LIBCMTD:undname.obj
 0002:00073e60       ?getArgumentList@UnDecorator@@CA?AVDName@@XZ 100c6e60 f   LIBCMTD:undname.obj
 0002:00074000       ?getThrowTypes@UnDecorator@@CA?AVDName@@XZ 100c7000 f   LIBCMTD:undname.obj
 0002:000740e0       ?getBasicDataType@UnDecorator@@CA?AVDName@@ABV2@@Z 100c70e0 f   LIBCMTD:undname.obj
 0002:00074810       ?getECSUDataType@UnDecorator@@CA?AVDName@@XZ 100c7810 f   LIBCMTD:undname.obj
 0002:00074a60       ?getECSUName@UnDecorator@@CA?AVDName@@XZ 100c7a60 f i LIBCMTD:undname.obj
 0002:00074a80       ?getEnumType@UnDecorator@@CA?AVDName@@XZ 100c7a80 f i LIBCMTD:undname.obj
 0002:00074c20       ?getFunctionIndirectType@UnDecorator@@CA?AVDName@@ABV2@@Z 100c7c20 f   LIBCMTD:undname.obj
 0002:00075170       ?getPtrRefType@UnDecorator@@CA?AVDName@@ABV2@0PBD@Z 100c8170 f   LIBCMTD:undname.obj
 0002:00075330       ?getExtendedDataIndirectType@UnDecorator@@CA?AVDName@@AAPBDAA_NH@Z 100c8330 f   LIBCMTD:undname.obj
 0002:000755e0       ?getDataIndirectType@UnDecorator@@CA?AVDName@@ABV2@PBD0H@Z 100c85e0 f   LIBCMTD:undname.obj
 0002:00075ea0       ?getPtrRefDataType@UnDecorator@@CA?AVDName@@ABV2@H@Z 100c8ea0 f i LIBCMTD:undname.obj
 0002:00076030       ?getArrayType@UnDecorator@@CA?AVDName@@ABV2@@Z 100c9030 f i LIBCMTD:undname.obj
 0002:000762f0       ?getLexicalFrame@UnDecorator@@CA?AVDName@@XZ 100c92f0 f i LIBCMTD:undname.obj
 0002:00076340       ?getThisType@UnDecorator@@CA?AVDName@@XZ 100c9340 f i LIBCMTD:undname.obj
 0002:00076390       ?getPointerType@UnDecorator@@CA?AVDName@@ABV2@0@Z 100c9390 f i LIBCMTD:undname.obj
 0002:000763d0       ?getPointerTypeArray@UnDecorator@@CA?AVDName@@ABV2@0@Z 100c93d0 f i LIBCMTD:undname.obj
 0002:00076410       ?getReferenceType@UnDecorator@@CA?AVDName@@ABV2@0PBD@Z 100c9410 f i LIBCMTD:undname.obj
 0002:00076440       ?getDisplacement@UnDecorator@@CA?AVDName@@XZ 100c9440 f i LIBCMTD:undname.obj
 0002:00076460       ?getCallIndex@UnDecorator@@CA?AVDName@@XZ 100c9460 f i LIBCMTD:undname.obj
 0002:00076480       ?getGuardNumber@UnDecorator@@CA?AVDName@@XZ 100c9480 f i LIBCMTD:undname.obj
 0002:000764a0       ?getVbTableType@UnDecorator@@CA?AVDName@@ABV2@@Z 100c94a0 f i LIBCMTD:undname.obj
 0002:000764c0       ?getVCallThunkType@UnDecorator@@CA?AVDName@@XZ 100c94c0 f i LIBCMTD:undname.obj
 0002:00076540       ?getVfTableType@UnDecorator@@CA?AVDName@@ABV2@@Z 100c9540 f i LIBCMTD:undname.obj
 0002:00076770       ?getStorageConvention@UnDecorator@@CA?AVDName@@XZ 100c9770 f i LIBCMTD:undname.obj
 0002:00076790       ?getDataIndirectType@UnDecorator@@CA?AVDName@@XZ 100c9790 f i LIBCMTD:undname.obj
 0002:000767e0       ?getVdispMapType@UnDecorator@@CA?AVDName@@ABV2@@Z 100c97e0 f i LIBCMTD:undname.obj
 0002:00076870       ?getExternalDataType@UnDecorator@@CA?AVDName@@ABV2@@Z 100c9870 f i LIBCMTD:undname.obj
 0002:00076930       ?doMSKeywords@UnDecorator@@SAHXZ 100c9930 f i LIBCMTD:undname.obj
 0002:00076950       ?doPtr64@UnDecorator@@SAHXZ 100c9950 f i LIBCMTD:undname.obj
 0002:00076970       ?doFunctionReturns@UnDecorator@@SAHXZ 100c9970 f i LIBCMTD:undname.obj
 0002:00076990       ?doAllocationModel@UnDecorator@@SAHXZ 100c9990 f i LIBCMTD:undname.obj
 0002:000769b0       ?doAllocationLanguage@UnDecorator@@SAHXZ 100c99b0 f i LIBCMTD:undname.obj
 0002:000769d0       ?doThisTypes@UnDecorator@@SAHXZ 100c99d0 f i LIBCMTD:undname.obj
 0002:000769f0       ?doAccessSpecifiers@UnDecorator@@SAHXZ 100c99f0 f i LIBCMTD:undname.obj
 0002:00076a10       ?doThrowTypes@UnDecorator@@SAHXZ 100c9a10 f i LIBCMTD:undname.obj
 0002:00076a30       ?doMemberTypes@UnDecorator@@SAHXZ 100c9a30 f i LIBCMTD:undname.obj
 0002:00076a50       ?doNameOnly@UnDecorator@@SAHXZ 100c9a50 f i LIBCMTD:undname.obj
 0002:00076a70       ?doTypeOnly@UnDecorator@@SAHXZ 100c9a70 f i LIBCMTD:undname.obj
 0002:00076a90       ?haveTemplateParameters@UnDecorator@@SAHXZ 100c9a90 f i LIBCMTD:undname.obj
 0002:00076ab0       ?doEcsu@UnDecorator@@SAHXZ 100c9ab0 f i LIBCMTD:undname.obj
 0002:00076ad0       ?doEllipsis@UnDecorator@@SAHXZ 100c9ad0 f i LIBCMTD:undname.obj
 0002:00076af0       ?UScore@UnDecorator@@SAPBDW4Tokens@@@Z 100c9af0 f   LIBCMTD:undname.obj
 0002:00076b30       ?doUnderScore@UnDecorator@@SAHXZ 100c9b30 f i LIBCMTD:undname.obj
 0002:00076b50       ??2@YAPAXIAAV_HeapManager@@H@Z 100c9b50 f i LIBCMTD:undname.obj
 0002:00076b70       ?getMemory@_HeapManager@@QAEPAXIH@Z 100c9b70 f   LIBCMTD:undname.obj
 0002:00076cc0       ??0Block@_HeapManager@@QAE@XZ 100c9cc0 f i LIBCMTD:undname.obj
 0002:00076ce0       ??H@YA?AVDName@@DABV0@@Z   100c9ce0 f i LIBCMTD:undname.obj
 0002:00076d20       ??H@YA?AVDName@@W4DNameStatus@@ABV0@@Z 100c9d20 f i LIBCMTD:undname.obj
 0002:00076d60       ??H@YA?AVDName@@PBDABV0@@Z 100c9d60 f i LIBCMTD:undname.obj
 0002:00076da0       ??0DName@@QAE@XZ           100c9da0 f i LIBCMTD:undname.obj
 0002:00076e90       ??0DName@@QAE@D@Z          100c9e90 f   LIBCMTD:undname.obj
 0002:00076fa0       ??0DName@@QAE@ABV0@@Z      100c9fa0 f i LIBCMTD:undname.obj
 0002:00076fd0       ??0DName@@QAE@PAV0@@Z      100c9fd0 f   LIBCMTD:undname.obj
 0002:00077150       ??0DName@@QAE@PBD@Z        100ca150 f   LIBCMTD:undname.obj
 0002:00077280       ??0DName@@QAE@AAPBDD@Z     100ca280 f   LIBCMTD:undname.obj
 0002:000775f0       ?doNoIdentCharCheck@UnDecorator@@SAHXZ 100ca5f0 f i LIBCMTD:undname.obj
 0002:00077610       ??0DName@@QAE@_K@Z         100ca610 f   LIBCMTD:undname.obj
 0002:000777a0       ??0DName@@QAE@_J@Z         100ca7a0 f   LIBCMTD:undname.obj
 0002:00077980       ??0DName@@QAE@W4DNameStatus@@@Z 100ca980 f   LIBCMTD:undname.obj
 0002:00077ae0       ?isValid@DName@@QBEHXZ     100caae0 f i LIBCMTD:undname.obj
 0002:00077b10       ?isEmpty@DName@@QBEHXZ     100cab10 f i LIBCMTD:undname.obj
 0002:00077b30       ?status@DName@@QBE?AW4DNameStatus@@XZ 100cab30 f i LIBCMTD:undname.obj
 0002:00077b50       ?setPtrRef@DName@@QAEAAV1@XZ 100cab50 f i LIBCMTD:undname.obj
 0002:00077b80       ?isPtrRef@DName@@QBEHXZ    100cab80 f i LIBCMTD:undname.obj
 0002:00077ba0       ?isUDC@DName@@QBEHXZ       100caba0 f i LIBCMTD:undname.obj
 0002:00077bf0       ?setIsUDC@DName@@QAEXXZ    100cabf0 f i LIBCMTD:undname.obj
 0002:00077c30       ?isUDTThunk@DName@@QBEHXZ  100cac30 f i LIBCMTD:undname.obj
 0002:00077c80       ?setIsArray@DName@@QAEXXZ  100cac80 f i LIBCMTD:undname.obj
 0002:00077cb0       ?isArray@DName@@QBEHXZ     100cacb0 f i LIBCMTD:undname.obj
 0002:00077cd0       ?isNoTE@DName@@QBEHXZ      100cacd0 f i LIBCMTD:undname.obj
 0002:00077cf0       ?setIsNoTE@DName@@QAEXXZ   100cacf0 f i LIBCMTD:undname.obj
 0002:00077d20       ?isPinPtr@DName@@QBEHXZ    100cad20 f i LIBCMTD:undname.obj
 0002:00077d40       ?setIsPinPtr@DName@@QAEXXZ 100cad40 f i LIBCMTD:undname.obj
 0002:00077d70       ?isComArray@DName@@QBEHXZ  100cad70 f i LIBCMTD:undname.obj
 0002:00077d90       ?setIsComArray@DName@@QAEXXZ 100cad90 f i LIBCMTD:undname.obj
 0002:00077dc0       ?isVCallThunk@DName@@QBEHXZ 100cadc0 f i LIBCMTD:undname.obj
 0002:00077de0       ?setIsVCallThunk@DName@@QAEXXZ 100cade0 f i LIBCMTD:undname.obj
 0002:00077e10       ?length@DName@@QBEHXZ      100cae10 f i LIBCMTD:undname.obj
 0002:00077e50       ?getLastChar@DName@@QBEDXZ 100cae50 f i LIBCMTD:undname.obj
 0002:00077e90       ?getString@DName@@QBEPADPADH@Z 100cae90 f i LIBCMTD:undname.obj
 0002:00077f40       ?getString@DName@@QBEPADPAD0@Z 100caf40 f i LIBCMTD:undname.obj
 0002:00077f90       ??HDName@@QBE?AV0@D@Z      100caf90 f   LIBCMTD:undname.obj
 0002:00077fe0       ??HDName@@QBE?AV0@PBD@Z    100cafe0 f   LIBCMTD:undname.obj
 0002:00078030       ??HDName@@QBE?AV0@ABV0@@Z  100cb030 f   LIBCMTD:undname.obj
 0002:00078080       ??HDName@@QBE?AV0@PAV0@@Z  100cb080 f   LIBCMTD:undname.obj
 0002:000780d0       ??HDName@@QBE?AV0@W4DNameStatus@@@Z 100cb0d0 f   LIBCMTD:undname.obj
 0002:00078120       ?append@DName@@AAEXPAVDNameNode@@@Z 100cb120 f   LIBCMTD:undname.obj
 0002:000781d0       ??YDName@@QAEAAV0@D@Z      100cb1d0 f   LIBCMTD:undname.obj
 0002:00078280       ??YDName@@QAEAAV0@PBD@Z    100cb280 f   LIBCMTD:undname.obj
 0002:00078340       ??YDName@@QAEAAV0@ABV0@@Z  100cb340 f   LIBCMTD:undname.obj
 0002:000783c0       ??YDName@@QAEAAV0@PAV0@@Z  100cb3c0 f   LIBCMTD:undname.obj
 0002:000784a0       ??YDName@@QAEAAV0@W4DNameStatus@@@Z 100cb4a0 f   LIBCMTD:undname.obj
 0002:00078520       ??_5DName@@QAEAAV0@ABV0@@Z 100cb520 f   LIBCMTD:undname.obj
 0002:00078590       ??4DName@@QAEAAV0@D@Z      100cb590 f i LIBCMTD:undname.obj
 0002:000786a0       ??4DName@@QAEAAV0@PBD@Z    100cb6a0 f   LIBCMTD:undname.obj
 0002:000787b0       ??4DName@@QAEAAV0@ABV0@@Z  100cb7b0 f   LIBCMTD:undname.obj
 0002:000787e0       ??4DName@@QAEAAV0@PAV0@@Z  100cb7e0 f   LIBCMTD:undname.obj
 0002:00078960       ??4DName@@QAEAAV0@W4DNameStatus@@@Z 100cb960 f   LIBCMTD:undname.obj
 0002:00078aa0       ?doPchar@DName@@AAEXPBDH@Z 100cbaa0 f   LIBCMTD:undname.obj
 0002:00078c30       ?isFull@Replicator@@QBEHXZ 100cbc30 f i LIBCMTD:undname.obj
 0002:00078c50       ??0Replicator@@QAE@XZ      100cbc50 f i LIBCMTD:undname.obj
 0002:00078c70       ??YReplicator@@QAEAAV0@ABVDName@@@Z 100cbc70 f   LIBCMTD:undname.obj
 0002:00078d20       ??AReplicator@@QBE?AVDName@@H@Z 100cbd20 f   LIBCMTD:undname.obj
 0002:00078da0       ??0DNameNode@@IAE@XZ       100cbda0 f   LIBCMTD:undname.obj
 0002:00078dc0       ??0charNode@@QAE@D@Z       100cbdc0 f   LIBCMTD:undname.obj
 0002:00078e00       ?length@charNode@@UBEHXZ   100cbe00 f i LIBCMTD:undname.obj
 0002:00078e20       ?getLastChar@charNode@@UBEDXZ 100cbe20 f i LIBCMTD:undname.obj
 0002:00078e40       ?getString@charNode@@UBEPADPAD0@Z 100cbe40 f i LIBCMTD:undname.obj
 0002:00078e80       ??0pcharNode@@QAE@PBDH@Z   100cbe80 f   LIBCMTD:undname.obj
 0002:00078f40       ?length@pcharNode@@UBEHXZ  100cbf40 f i LIBCMTD:undname.obj
 0002:00078f60       ?getLastChar@pcharNode@@UBEDXZ 100cbf60 f i LIBCMTD:undname.obj
 0002:00078fb0       ?getString@pcharNode@@UBEPADPAD0@Z 100cbfb0 f i LIBCMTD:undname.obj
 0002:00078ff0       ?getStringHelper@@YAPADPAD00H@Z 100cbff0 f i LIBCMTD:undname.obj
 0002:00079040       ??0pDNameNode@@QAE@PAVDName@@@Z 100cc040 f   LIBCMTD:undname.obj
 0002:000790c0       ?length@pDNameNode@@UBEHXZ 100cc0c0 f i LIBCMTD:undname.obj
 0002:00079100       ?getLastChar@pDNameNode@@UBEDXZ 100cc100 f i LIBCMTD:undname.obj
 0002:00079140       ?getString@pDNameNode@@UBEPADPAD0@Z 100cc140 f i LIBCMTD:undname.obj
 0002:00079190       ??0DNameStatusNode@@AAE@W4DNameStatus@@@Z 100cc190 f   LIBCMTD:undname.obj
 0002:000791f0       ?length@DNameStatusNode@@UBEHXZ 100cc1f0 f i LIBCMTD:undname.obj
 0002:00079210       ?getLastChar@DNameStatusNode@@UBEDXZ 100cc210 f i LIBCMTD:undname.obj
 0002:00079240       ?getString@DNameStatusNode@@UBEPADPAD0@Z 100cc240 f i LIBCMTD:undname.obj
 0002:00079290       ?make@DNameStatusNode@@SAPAV1@W4DNameStatus@@@Z 100cc290 f i LIBCMTD:undname.obj
 0002:00079370       ??0pairNode@@QAE@PAVDNameNode@@0@Z 100cc370 f   LIBCMTD:undname.obj
 0002:000793c0       ?length@pairNode@@UBEHXZ   100cc3c0 f i LIBCMTD:undname.obj
 0002:00079420       ?getLastChar@pairNode@@UBEDXZ 100cc420 f i LIBCMTD:undname.obj
 0002:00079480       ?getString@pairNode@@UBEPADPAD0@Z 100cc480 f i LIBCMTD:undname.obj
 0002:00079600       __malloc_base              100cc600 f   LIBCMTD:malloc.obj
 0002:000796b0       __heap_alloc_base          100cc6b0 f i LIBCMTD:malloc.obj
 0002:00079720       __free_base                100cc720 f   LIBCMTD:free.obj
 0002:00079790       __local_unwind4            100cc790 f   LIBCMTD:exsup4.obj
 0002:00079866       __seh_longjmp_unwind4@4    100cc866 f   LIBCMTD:exsup4.obj
 0002:00079882       @_EH4_CallFilterFunc@8     100cc882 f   LIBCMTD:exsup4.obj
 0002:00079899       @_EH4_TransferToHandler@8  100cc899 f   LIBCMTD:exsup4.obj
 0002:000798b2       @_EH4_GlobalUnwind2@8      100cc8b2 f   LIBCMTD:exsup4.obj
 0002:000798cb       @_EH4_LocalUnwind@16       100cc8cb f   LIBCMTD:exsup4.obj
 0002:00079940       __initp_misc_winsig        100cc940 f   LIBCMTD:winsig.obj
 0002:00079980       _signal                    100cc980 f   LIBCMTD:winsig.obj
 0002:00079f30       _raise                     100ccf30 f   LIBCMTD:winsig.obj
 0002:0007a380       ___get_sigabrt             100cd380 f   LIBCMTD:winsig.obj
 0002:0007a3a0       ___fpecode                 100cd3a0 f   LIBCMTD:winsig.obj
 0002:0007a3c0       ___pxcptinfoptrs           100cd3c0 f   LIBCMTD:winsig.obj
 0002:0007a3e0       __set_error_mode           100cd3e0 f   LIBCMTD:errmode.obj
 0002:0007a4d0       ___set_app_type            100cd4d0 f   LIBCMTD:errmode.obj
 0002:0007a4f0       ___crtMessageBoxW          100cd4f0 f   LIBCMTD:crtmboxw.obj
 0002:0007a7a0       _wcscat_s                  100cd7a0 f   LIBCMTD:wcscat_s.obj
 0002:0007ac80       _wcsncpy_s                 100cdc80 f   LIBCMTD:wcsncpy_s.obj
 0002:0007b190       _wcslen                    100ce190 f   LIBCMTD:wcslen.obj
 0002:0007b1d0       _wcscpy_s                  100ce1d0 f   LIBCMTD:wcscpy_s.obj
 0002:0007b570       _strncpy_s                 100ce570 f   LIBCMTD:strncpy_s.obj
 0002:0007ba60       ___crtGetLocaleInfoA       100cea60 f   LIBCMTD:a_loc.obj
 0002:0007bc10       __controlfp_s              100cec10 f   LIBCMTD:_contrlfp_.obj
 0002:0007bd30       __isalpha_l                100ced30 f i LIBCMTD:_ctype.obj
 0002:0007bde0       _isalpha                   100cede0 f i LIBCMTD:_ctype.obj
 0002:0007be20       __isupper_l                100cee20 f i LIBCMTD:_ctype.obj
 0002:0007bec0       _isupper                   100ceec0 f i LIBCMTD:_ctype.obj
 0002:0007bf00       __islower_l                100cef00 f i LIBCMTD:_ctype.obj
 0002:0007bfa0       _islower                   100cefa0 f i LIBCMTD:_ctype.obj
 0002:0007bfe0       __isdigit_l                100cefe0 f i LIBCMTD:_ctype.obj
 0002:0007c080       _isdigit                   100cf080 f i LIBCMTD:_ctype.obj
 0002:0007c0c0       __isxdigit_l               100cf0c0 f i LIBCMTD:_ctype.obj
 0002:0007c170       _isxdigit                  100cf170 f i LIBCMTD:_ctype.obj
 0002:0007c1b0       __isspace_l                100cf1b0 f i LIBCMTD:_ctype.obj
 0002:0007c250       _isspace                   100cf250 f i LIBCMTD:_ctype.obj
 0002:0007c290       __ispunct_l                100cf290 f i LIBCMTD:_ctype.obj
 0002:0007c330       _ispunct                   100cf330 f i LIBCMTD:_ctype.obj
 0002:0007c370       __isalnum_l                100cf370 f i LIBCMTD:_ctype.obj
 0002:0007c420       _isalnum                   100cf420 f i LIBCMTD:_ctype.obj
 0002:0007c460       __isprint_l                100cf460 f i LIBCMTD:_ctype.obj
 0002:0007c510       _isprint                   100cf510 f i LIBCMTD:_ctype.obj
 0002:0007c550       __isgraph_l                100cf550 f i LIBCMTD:_ctype.obj
 0002:0007c600       _isgraph                   100cf600 f i LIBCMTD:_ctype.obj
 0002:0007c640       __iscntrl_l                100cf640 f i LIBCMTD:_ctype.obj
 0002:0007c6e0       _iscntrl                   100cf6e0 f i LIBCMTD:_ctype.obj
 0002:0007c720       ___isascii                 100cf720 f i LIBCMTD:_ctype.obj
 0002:0007c740       ___toascii                 100cf740 f i LIBCMTD:_ctype.obj
 0002:0007c750       __iscsymf_l                100cf750 f i LIBCMTD:_ctype.obj
 0002:0007c7a0       ___iscsymf                 100cf7a0 f i LIBCMTD:_ctype.obj
 0002:0007c7e0       __iscsym_l                 100cf7e0 f i LIBCMTD:_ctype.obj
 0002:0007c830       ___iscsym                  100cf830 f i LIBCMTD:_ctype.obj
 0002:0007c880       __atodbl_l                 100cf880 f   LIBCMTD:atodbl.obj
 0002:0007c9d0       __atodbl                   100cf9d0 f   LIBCMTD:atodbl.obj
 0002:0007c9f0       __atoldbl_l                100cf9f0 f   LIBCMTD:atodbl.obj
 0002:0007cb40       __atoldbl                  100cfb40 f   LIBCMTD:atodbl.obj
 0002:0007cb60       __atoflt_l                 100cfb60 f   LIBCMTD:atodbl.obj
 0002:0007ccb0       __atoflt                   100cfcb0 f   LIBCMTD:atodbl.obj
 0002:0007ccd0       __fptostr                  100cfcd0 f   LIBCMTD:_fptostr.obj
 0002:0007d020       __fltout2                  100d0020 f   LIBCMTD:_cfout_.obj
 0002:0007d100       ___dtold                   100d0100 f   LIBCMTD:_cfout_.obj
 0002:0007d2b0       __set_output_format        100d02b0 f   LIBCMTD:outputformat.obj
 0002:0007d350       __get_output_format        100d0350 f   LIBCMTD:outputformat.obj
 0002:0007d360       __allshl                   100d0360 f   LIBCMTD:llshl.obj
 0002:0007d390       __aullshr                  100d0390 f   LIBCMTD:ullshr.obj
 0002:0007d3c0       _strrchr                   100d03c0 f   LIBCMTD:strrchr.obj
 0002:0007d400       __fptrap                   100d0400 f   LIBCMTD:crt0fp.obj
 0002:0007d420       __87except                 100d0420 f   LIBCMTD:_87except_.obj
 0002:0007d640       __ValidateImageBase        100d0640 f   LIBCMTD:pesect.obj
 0002:0007d6c0       __FindPESection            100d06c0 f   LIBCMTD:pesect.obj
 0002:0007d760       __IsNonwritableInCurrentImage 100d0760 f   LIBCMTD:pesect.obj
 0002:0007d8c0       __initp_eh_hooks           100d08c0 f   LIBCMTD:hooks.obj
 0002:0007d8e0       ?terminate@@YAXXZ          100d08e0 f   LIBCMTD:hooks.obj
 0002:0007d980       ?unexpected@@YAXXZ         100d0980 f   LIBCMTD:hooks.obj
 0002:0007d9b0       ?_inconsistency@@YAXXZ     100d09b0 f   LIBCMTD:hooks.obj
 0002:0007da60       __initp_misc_rand_s        100d0a60 f   LIBCMTD:rand_s.obj
 0002:0007da80       _rand_s                    100d0a80 f   LIBCMTD:rand_s.obj
 0002:0007dd20       __CrtDefaultAllocHook      100d0d20 f   LIBCMTD:dbghook.obj
 0002:0007dd30       __crt_debugger_hook        100d0d30 f   LIBCMTD:dbghook.obj
 0002:0007dd50       __expand_base              100d0d50 f   LIBCMTD:expand.obj
 0002:0007df00       __realloc_base             100d0f00 f   LIBCMTD:realloc.obj
 0002:0007e040       __heapchk                  100d1040 f   LIBCMTD:heapchk.obj
 0002:0007e080       __heapset                  100d1080 f   LIBCMTD:heapchk.obj
 0002:0007e090       __fcloseall                100d1090 f   LIBCMTD:closeall.obj
 0002:0007e210       _fflush                    100d1210 f   LIBCMTD:fflush.obj
 0002:0007e2d0       __fflush_nolock            100d12d0 f   LIBCMTD:fflush.obj
 0002:0007e340       __flush                    100d1340 f   LIBCMTD:fflush.obj
 0002:0007e430       __flushall                 100d1430 f   LIBCMTD:fflush.obj
 0002:0007e660       __isatty                   100d1660 f   LIBCMTD:isatty.obj
 0002:0007e750       __fileno                   100d1750 f   LIBCMTD:fileno.obj
 0002:0007e7e0       __wctomb_s_l               100d17e0 f   LIBCMTD:wctomb.obj
 0002:0007eba0       _wctomb_s                  100d1ba0 f   LIBCMTD:wctomb.obj
 0002:0007ebd0       __wctomb_l                 100d1bd0 f   LIBCMTD:wctomb.obj
 0002:0007ec70       _wctomb                    100d1c70 f   LIBCMTD:wctomb.obj
 0002:0007ecd0       __CrtDbgBreak              100d1cd0 f   LIBCMTD:dbgrptt.obj
 0002:0007ece0       __CrtSetReportMode         100d1ce0 f   LIBCMTD:dbgrptt.obj
 0002:0007ee70       __CrtSetReportFile         100d1e70 f   LIBCMTD:dbgrptt.obj
 0002:0007efa0       __CrtSetReportHook         100d1fa0 f   LIBCMTD:dbgrptt.obj
 0002:0007efd0       __CrtGetReportHook         100d1fd0 f   LIBCMTD:dbgrptt.obj
 0002:0007efe0       __VCrtDbgReportA           100d1fe0 f   LIBCMTD:dbgrptt.obj
 0002:0007fa10       __VCrtDbgReportW           100d2a10 f   LIBCMTD:dbgrptt.obj
 0002:00080590       __swprintf                 100d3590 f   LIBCMTD:swprintf.obj
 0002:00080810       ___swprintf_l              100d3810 f   LIBCMTD:swprintf.obj
 0002:00080850       _swprintf_s                100d3850 f   LIBCMTD:swprintf.obj
 0002:00080890       __snwprintf_s              100d3890 f   LIBCMTD:swprintf.obj
 0002:000808d0       __swprintf_p               100d38d0 f   LIBCMTD:swprintf.obj
 0002:00080910       __swprintf_s_l             100d3910 f   LIBCMTD:swprintf.obj
 0002:00080950       __snwprintf_s_l            100d3950 f   LIBCMTD:swprintf.obj
 0002:00080990       __swprintf_p_l             100d3990 f   LIBCMTD:swprintf.obj
 0002:000809d0       __scwprintf                100d39d0 f   LIBCMTD:swprintf.obj
 0002:00080a00       __scwprintf_p              100d3a00 f   LIBCMTD:swprintf.obj
 0002:00080a30       __scwprintf_l              100d3a30 f   LIBCMTD:swprintf.obj
 0002:00080a60       __scwprintf_p_l            100d3a60 f   LIBCMTD:swprintf.obj
 0002:00080a90       _memcpy_s                  100d3a90 f   LIBCMTD:memcpy_s.obj
 0002:00080c80       __output_s_l               100d3c80 f   LIBCMTD:outputs.obj
 0002:000827b0       __validate_param_reuseA    100d57b0 f   LIBCMTD:outputp.obj
 0002:00082ac0       __output_p_l               100d5ac0 f   LIBCMTD:outputp.obj
 0002:000875b0       _get_crtdouble_arg         100da5b0 f i LIBCMTD:outputp.obj
 0002:000875e0       __ismbbkalnum_l            100da5e0 f   LIBCMTD:ismbbyte.obj
 0002:00087610       __ismbbkalnum              100da610 f   LIBCMTD:ismbbyte.obj
 0002:00087630       __ismbbkprint_l            100da630 f   LIBCMTD:ismbbyte.obj
 0002:00087660       __ismbbkprint              100da660 f   LIBCMTD:ismbbyte.obj
 0002:00087680       __ismbbkpunct_l            100da680 f   LIBCMTD:ismbbyte.obj
 0002:000876b0       __ismbbkpunct              100da6b0 f   LIBCMTD:ismbbyte.obj
 0002:000876d0       __ismbbalnum_l             100da6d0 f   LIBCMTD:ismbbyte.obj
 0002:00087700       __ismbbalnum               100da700 f   LIBCMTD:ismbbyte.obj
 0002:00087730       __ismbbalpha_l             100da730 f   LIBCMTD:ismbbyte.obj
 0002:00087760       __ismbbalpha               100da760 f   LIBCMTD:ismbbyte.obj
 0002:00087790       __ismbbgraph_l             100da790 f   LIBCMTD:ismbbyte.obj
 0002:000877c0       __ismbbgraph               100da7c0 f   LIBCMTD:ismbbyte.obj
 0002:000877f0       __ismbbprint_l             100da7f0 f   LIBCMTD:ismbbyte.obj
 0002:00087820       __ismbbprint               100da820 f   LIBCMTD:ismbbyte.obj
 0002:00087850       __ismbbpunct_l             100da850 f   LIBCMTD:ismbbyte.obj
 0002:00087880       __ismbbpunct               100da880 f   LIBCMTD:ismbbyte.obj
 0002:000878a0       __ismbblead_l              100da8a0 f   LIBCMTD:ismbbyte.obj
 0002:000878d0       __ismbblead                100da8d0 f   LIBCMTD:ismbbyte.obj
 0002:000878f0       __ismbbtrail_l             100da8f0 f   LIBCMTD:ismbbyte.obj
 0002:00087920       __ismbbtrail               100da920 f   LIBCMTD:ismbbyte.obj
 0002:00087940       __ismbbkana_l              100da940 f   LIBCMTD:ismbbyte.obj
 0002:000879d0       __ismbbkana                100da9d0 f   LIBCMTD:ismbbyte.obj
 0002:00087af0       __matherr                  100daaf0 f   LIBCMTD:_matherr_.obj
 0002:00087b00       __frnd                     100dab00 f   LIBCMTD:_frnd_.obj
 0002:00087b20       __handle_qnan1             100dab20 f   LIBCMTD:_fpexcept_.obj
 0002:00087ba0       __handle_qnan2             100daba0 f   LIBCMTD:_fpexcept_.obj
 0002:00087c30       __except1                  100dac30 f   LIBCMTD:_fpexcept_.obj
 0002:00087d70       __except2                  100dad70 f   LIBCMTD:_fpexcept_.obj
 0002:00087ec0       __raise_exc_ex             100daec0 f   LIBCMTD:_fpexcept_.obj
 0002:00088540       __raise_exc                100db540 f   LIBCMTD:_fpexcept_.obj
 0002:00088580       __raise_excf               100db580 f   LIBCMTD:_fpexcept_.obj
 0002:000885c0       __handle_exc               100db5c0 f   LIBCMTD:_fpexcept_.obj
 0002:00088990       __umatherr                 100db990 f   LIBCMTD:_fpexcept_.obj
 0002:00088a60       __set_errno_from_matherr   100dba60 f   LIBCMTD:_fpexcept_.obj
 0002:00088b10       __errcode                  100dbb10 f   LIBCMTD:_fpexcept_.obj
 0002:00088ba0       __set_exp                  100dbba0 f   LIBCMTD:_util_.obj
 0002:00088bf0       __get_exp                  100dbbf0 f   LIBCMTD:_util_.obj
 0002:00088c30       __add_exp                  100dbc30 f   LIBCMTD:_util_.obj
 0002:00088c70       __set_bexp                 100dbc70 f   LIBCMTD:_util_.obj
 0002:00088cb0       __sptype                   100dbcb0 f   LIBCMTD:_util_.obj
 0002:00088d50       __decomp                   100dbd50 f   LIBCMTD:_util_.obj
 0002:00088ec0       __statfp                   100dbec0 f   LIBCMTD:_fpctrl_.obj
 0002:00088ee0       __clrfp                    100dbee0 f   LIBCMTD:_fpctrl_.obj
 0002:00088f00       __ctrlfp                   100dbf00 f   LIBCMTD:_fpctrl_.obj
 0002:00088f40       __set_statfp               100dbf40 f   LIBCMTD:_fpctrl_.obj
 0002:00088fc0       ___get_fpsr_sse2           100dbfc0 f   LIBCMTD:_fpctrl_.obj
 0002:00088ff0       ___set_fpsr_sse2           100dbff0 f   LIBCMTD:_fpctrl_.obj
 0002:00089100       ___fclrf_sse2              100dc100 f   LIBCMTD:_fpctrl_.obj
 0002:00089130       ___statfp_sse2             100dc130 f   LIBCMTD:_fpctrl_.obj
 0002:00089170       ___clrfp_sse2              100dc170 f   LIBCMTD:_fpctrl_.obj
 0002:000891c0       ___ctrlfp_sse2             100dc1c0 f   LIBCMTD:_fpctrl_.obj
 0002:00089230       ___set_statfp_sse2         100dc230 f   LIBCMTD:_fpctrl_.obj
 0002:00089270       __copysign                 100dc270 f   LIBCMTD:_ieeemisc_.obj
 0002:000892b0       __chgsign                  100dc2b0 f   LIBCMTD:_ieeemisc_.obj
 0002:000892f0       __scalb                    100dc2f0 f   LIBCMTD:_ieeemisc_.obj
 0002:00089320       __logb                     100dc320 f   LIBCMTD:_ieeemisc_.obj
 0002:000894a0       __nextafter                100dc4a0 f   LIBCMTD:_ieeemisc_.obj
 0002:00089890       __finite                   100dc890 f   LIBCMTD:_ieeemisc_.obj
 0002:000898c0       __isnan                    100dc8c0 f   LIBCMTD:_ieeemisc_.obj
 0002:00089920       __fpclass                  100dc920 f   LIBCMTD:_ieeemisc_.obj
 0002:00089a20       __CIcos_pentium4           100dca20 f   LIBCMTD:_cos_pentium4_.obj
 0002:00089a38       __cos_pentium4             100dca38     LIBCMTD:_cos_pentium4_.obj
 0002:00089c40       __CIsin_pentium4           100dcc40 f   LIBCMTD:_sin_pentium4_.obj
 0002:00089c58       __sin_pentium4             100dcc58     LIBCMTD:_sin_pentium4_.obj
 0002:00089e80       __CItan_pentium4           100dce80 f   LIBCMTD:_tan_pentium4_.obj
 0002:00089e98       __tan_pentium4             100dce98     LIBCMTD:_tan_pentium4_.obj
 0002:0008a180       __mbtowc_l                 100dd180 f   LIBCMTD:mbtowc.obj
 0002:0008a420       _mbtowc                    100dd420 f   LIBCMTD:mbtowc.obj
 0002:0008a450       __filbuf                   100dd450 f   LIBCMTD:_filbuf.obj
 0002:0008a730       _ungetc                    100dd730 f   LIBCMTD:ungetc.obj
 0002:0008a860       __ungetc_nolock            100dd860 f   LIBCMTD:ungetc.obj
 0002:0008ab10       __ld12tod                  100ddb10 f   LIBCMTD:_intrncvt_.obj
 0002:0008ab40       __ld12cvt                  100ddb40 f i LIBCMTD:_intrncvt_.obj
 0002:0008ae40       __RoundMan                 100dde40 f i LIBCMTD:_intrncvt_.obj
 0002:0008af50       __ZeroTail                 100ddf50 f i LIBCMTD:_intrncvt_.obj
 0002:0008b000       __IncMan                   100de000 f i LIBCMTD:_intrncvt_.obj
 0002:0008b0e0       __CopyMan                  100de0e0 f i LIBCMTD:_intrncvt_.obj
 0002:0008b150       __FillZeroMan              100de150 f i LIBCMTD:_intrncvt_.obj
 0002:0008b190       __IsZeroMan                100de190 f i LIBCMTD:_intrncvt_.obj
 0002:0008b1e0       __ShrMan                   100de1e0 f i LIBCMTD:_intrncvt_.obj
 0002:0008b310       __ld12tof                  100de310 f   LIBCMTD:_intrncvt_.obj
 0002:0008b340       __ld12told                 100de340 f   LIBCMTD:_intrncvt_.obj
 0002:0008b440       ___crtGetStringTypeA       100de440 f   LIBCMTD:a_str.obj
 0002:0008b600       ___report_gsfailure        100de600 f   LIBCMTD:gs_report.obj
 0002:0008b760       ___init_time               100de760 f   LIBCMTD:inittime.obj
 0002:0008c7d0       ___free_lc_time            100df7d0 f   LIBCMTD:inittime.obj
 0002:0008cfe0       ___init_numeric            100dffe0 f   LIBCMTD:initnum.obj
 0002:0008d480       ___free_lconv_num          100e0480 f   LIBCMTD:initnum.obj
 0002:0008d560       ___init_monetary           100e0560 f   LIBCMTD:initmon.obj
 0002:0008dcc0       ___free_lconv_mon          100e0cc0 f   LIBCMTD:initmon.obj
 0002:0008ded0       _localeconv                100e0ed0 f   LIBCMTD:lconv.obj
 0002:0008df30       ___pwctype_func            100e0f30 f   LIBCMTD:ctype.obj
 0002:0008df40       ___pctype_func             100e0f40 f   LIBCMTD:ctype.obj
 0002:0008dfa0       ___mtold12                 100e0fa0 f   LIBCMTD:_mantold_.obj
 0002:0008e150       ___add_12                  100e1150 f i LIBCMTD:_mantold_.obj
 0002:0008e230       __lseeki64                 100e1230 f   LIBCMTD:lseeki64.obj
 0002:0008e510       __lseeki64_nolock          100e1510 f   LIBCMTD:lseeki64.obj
 0002:0008e640       __write                    100e1640 f   LIBCMTD:write.obj
 0002:0008e8f0       __write_nolock             100e18f0 f   LIBCMTD:write.obj
 0002:0008f700       __getbuf                   100e2700 f   LIBCMTD:_getbuf.obj
 0002:0008f800       __iswctype_l               100e2800 f   LIBCMTD:iswctype.obj
 0002:0008f820       _iswctype                  100e2820 f   LIBCMTD:iswctype.obj
 0002:0008f8a0       _is_wctype                 100e28a0 f   LIBCMTD:iswctype.obj
 0002:0008f8c0       ___init_ctype              100e28c0 f   LIBCMTD:initctyp.obj
 0002:0008ffe0       ____mb_cur_max_func        100e2fe0 f   LIBCMTD:initctyp.obj
 0002:00090040       ____mb_cur_max_l_func      100e3040 f   LIBCMTD:initctyp.obj
 0002:00090080       ____lc_codepage_func       100e3080 f   LIBCMTD:initctyp.obj
 0002:000900e0       ____lc_collate_cp_func     100e30e0 f   LIBCMTD:initctyp.obj
 0002:00090140       ____lc_handle_func         100e3140 f   LIBCMTD:initctyp.obj
 0002:000901a0       ___init_collate            100e31a0 f   LIBCMTD:initcoll.obj
 0002:000901b0       _strcspn                   100e31b0 f   LIBCMTD:strcspn.obj
 0002:00090210       _strncmp                   100e3210 f   LIBCMTD:strncmp.obj
 0002:000903e0       _strpbrk                   100e33e0 f   LIBCMTD:strpbrk.obj
 0002:00090430       _memcmp                    100e3430 f   LIBCMTD:memcmp.obj
 0002:00091150       _strcat_s                  100e4150 f   LIBCMTD:strcat_s.obj
 0002:00091620       ___get_qualified_locale    100e4620 f   LIBCMTD:getqloc.obj
 0002:000927f0       _fputwc                    100e57f0 f   LIBCMTD:fputwc.obj
 0002:00092930       __fputwc_nolock            100e5930 f   LIBCMTD:fputwc.obj
 0002:00092ce0       _putwc                     100e5ce0 f   LIBCMTD:fputwc.obj
 0002:00092d00       ___InternalCxxFrameHandler 100e5d00 f   LIBCMTD:frame.obj
 0002:00093470       ??0bad_exception@std@@QAE@PBD@Z 100e6470 f i LIBCMTD:frame.obj
 0002:000934a0       ??1bad_exception@std@@UAE@XZ 100e64a0 f i LIBCMTD:frame.obj
 0002:000934d0       ??_Gbad_exception@std@@UAEPAXI@Z 100e64d0 f i LIBCMTD:frame.obj
 0002:000934d0       ??_Ebad_exception@std@@UAEPAXI@Z 100e64d0 f i LIBCMTD:frame.obj
 0002:00093510       ??0bad_exception@std@@QAE@ABV01@@Z 100e6510 f i LIBCMTD:frame.obj
 0002:00093730       ___TypeMatch               100e6730 f   LIBCMTD:frame.obj
 0002:00093810       ___FrameUnwindFilter       100e6810 f   LIBCMTD:frame.obj
 0002:000938b0       ___FrameUnwindToState      100e68b0 f   LIBCMTD:frame.obj
 0002:00093f40       ___BuildCatchObjectHelper  100e6f40 f   LIBCMTD:frame.obj
 0002:00094250       ___BuildCatchObject        100e7250 f   LIBCMTD:frame.obj
 0002:000943a0       ___DestructExceptionObject 100e73a0 f   LIBCMTD:frame.obj
 0002:00094480       ___AdjustPointer           100e7480 f   LIBCMTD:frame.obj
 0002:000944e0       ?__uncaught_exception@@YA_NXZ 100e74e0 f   LIBCMTD:frame.obj
 0002:00094500       ___CxxExceptionFilter      100e7500 f   LIBCMTD:frame.obj
 0002:00094770       ___CxxRegisterExceptionObject 100e7770 f   LIBCMTD:frame.obj
 0002:000948f0       ___CxxDetectRethrow        100e78f0 f   LIBCMTD:frame.obj
 0002:000949a0       ___CxxUnregisterExceptionObject 100e79a0 f   LIBCMTD:frame.obj
 0002:00094b80       ___CxxQueryExceptionSize   100e7b80 f   LIBCMTD:frame.obj
 0002:00094b90       ___CxxCallUnwindDtor       100e7b90 f   LIBCMTD:frame.obj
 0002:00094c30       ___CxxCallUnwindDelDtor    100e7c30 f   LIBCMTD:frame.obj
 0002:00094cd0       ___CxxCallUnwindStdDelDtor 100e7cd0 f   LIBCMTD:frame.obj
 0002:00094d70       ___CxxCallUnwindVecDtor    100e7d70 f   LIBCMTD:frame.obj
 0002:00095040       ?_is_exception_typeof@@YAHABVtype_info@@PAU_EXCEPTION_POINTERS@@@Z 100e8040 f   LIBCMTD:frame.obj
 0002:00095150       __CallSettingFrame@12      100e8150 f   LIBCMTD:lowhelpr.obj
 0002:00095177       __NLG_Return               100e8177     LIBCMTD:lowhelpr.obj
 0002:000951b0       ___crtMessageBoxA          100e81b0 f   LIBCMTD:crtmbox.obj
 0002:00095460       __global_unwind2           100e8460 f   LIBCMTD:exsup.obj
 0002:000954c5       __local_unwind2            100e84c5 f   LIBCMTD:exsup.obj
 0002:00095549       __abnormal_termination     100e8549 f   LIBCMTD:exsup.obj
 0002:0009556c       __NLG_Notify1              100e856c f   LIBCMTD:exsup.obj
 0002:00095575       __NLG_Notify               100e8575 f   LIBCMTD:exsup.obj
 0002:0009558c       __NLG_Dispatch             100e858c     LIBCMTD:exsup.obj
 0002:0009558c       __NLG_Dispatch2            100e858c     LIBCMTD:exsup.obj
 0002:00095594       __NLG_Call                 100e8594 f   LIBCMTD:exsup.obj
 0002:00095596       __NLG_Return2              100e8596     LIBCMTD:exsup.obj
 0002:000955f0       __statusfp2                100e85f0 f   LIBCMTD:_ieee87_.obj
 0002:00095640       __statusfp                 100e8640 f   LIBCMTD:_ieee87_.obj
 0002:000956a0       __clearfp                  100e86a0 f   LIBCMTD:_ieee87_.obj
 0002:00095700       ___control87_2             100e8700 f   LIBCMTD:_ieee87_.obj
 0002:000957d0       __controlfp                100e87d0 f   LIBCMTD:_ieee87_.obj
 0002:00095800       __control87                100e8800 f i LIBCMTD:_ieee87_.obj
 0002:000958e0       __set_controlfp            100e88e0 f   LIBCMTD:_ieee87_.obj
 0002:00095990       __fpreset                  100e8990 f   LIBCMTD:_ieee87_.obj
 0002:00096330       _$I10_OUTPUT               100e9330 f   LIBCMTD:_x10fout_.obj
 0002:00096a40       _fclose                    100e9a40 f   LIBCMTD:fclose.obj
 0002:00096b90       __fclose_nolock            100e9b90 f   LIBCMTD:fclose.obj
 0002:00096cd0       __commit                   100e9cd0 f   LIBCMTD:commit.obj
 0002:00096f70       __mbstowcs_l_helper        100e9f70 f   LIBCMTD:mbstowcs.obj
 0002:000973a0       __mbstowcs_l               100ea3a0 f   LIBCMTD:mbstowcs.obj
 0002:000973d0       _mbstowcs                  100ea3d0 f   LIBCMTD:mbstowcs.obj
 0002:00097430       __mbstowcs_s_l             100ea430 f   LIBCMTD:mbstowcs.obj
 0002:00097890       _mbstowcs_s                100ea890 f   LIBCMTD:mbstowcs.obj
 0002:000978c0       __itoa_s                   100ea8c0 f   LIBCMTD:xtoas.obj
 0002:00097d70       __ltoa_s                   100ead70 f   LIBCMTD:xtoas.obj
 0002:00097dc0       __ultoa_s                  100eadc0 f   LIBCMTD:xtoas.obj
 0002:00097df0       __i64toa_s                 100eadf0 f   LIBCMTD:xtoas.obj
 0002:000982f0       __ui64toa_s                100eb2f0 f   LIBCMTD:xtoas.obj
 0002:00098320       __wcstombs_l_helper        100eb320 f   LIBCMTD:wcstombs.obj
 0002:000989c0       __wcstombs_l               100eb9c0 f   LIBCMTD:wcstombs.obj
 0002:000989f0       _wcstombs                  100eb9f0 f   LIBCMTD:wcstombs.obj
 0002:00098a20       __wcstombs_s_l             100eba20 f   LIBCMTD:wcstombs.obj
 0002:00098e10       _wcstombs_s                100ebe10 f   LIBCMTD:wcstombs.obj
 0002:00098e40       __vswprintf_helper         100ebe40 f   LIBCMTD:vswprnc.obj
 0002:00099130       __vswprintf_c              100ec130 f   LIBCMTD:vswprnc.obj
 0002:00099190       __vswprintf_c_l            100ec190 f   LIBCMTD:vswprnc.obj
 0002:000991f0       __vswprintf_s_l            100ec1f0 f   LIBCMTD:vswprnc.obj
 0002:000994f0       _vswprintf_s               100ec4f0 f   LIBCMTD:vswprnc.obj
 0002:00099520       __vsnwprintf_s_l           100ec520 f   LIBCMTD:vswprnc.obj
 0002:000999c0       __vsnwprintf_s             100ec9c0 f   LIBCMTD:vswprnc.obj
 0002:000999f0       __vswprintf_p              100ec9f0 f   LIBCMTD:vswprnc.obj
 0002:00099a50       __vswprintf_p_l            100eca50 f   LIBCMTD:vswprnc.obj
 0002:00099ab0       __itow_s                   100ecab0 f   LIBCMTD:xtows.obj
 0002:00099f80       __ltow_s                   100ecf80 f   LIBCMTD:xtows.obj
 0002:00099fd0       __ultow_s                  100ecfd0 f   LIBCMTD:xtows.obj
 0002:0009a000       __i64tow_s                 100ed000 f   LIBCMTD:xtows.obj
 0002:0009a520       __ui64tow_s                100ed520 f   LIBCMTD:xtows.obj
 0002:0009a550       __vswprintf_l              100ed550 f   LIBCMTD:vswprint.obj
 0002:0009a7c0       __vswprintf                100ed7c0 f   LIBCMTD:vswprint.obj
 0002:0009a7f0       ___vswprintf_l             100ed7f0 f   LIBCMTD:vswprint.obj
 0002:0009a820       __vscwprintf_helper        100ed820 f   LIBCMTD:vswprint.obj
 0002:0009a930       __vscwprintf               100ed930 f   LIBCMTD:vswprint.obj
 0002:0009a960       __vscwprintf_l             100ed960 f   LIBCMTD:vswprint.obj
 0002:0009a990       __vscwprintf_p             100ed990 f   LIBCMTD:vswprint.obj
 0002:0009a9c0       __vscwprintf_p_l           100ed9c0 f   LIBCMTD:vswprint.obj
 0002:0009a9f0       _ldexp                     100ed9f0 f   LIBCMTD:_ldexp_.obj
 0002:0009ad60       __read                     100edd60 f   LIBCMTD:read.obj
 0002:0009b0a0       __read_nolock              100ee0a0 f   LIBCMTD:read.obj
 0002:0009c3c0       __alloc_osfhnd             100ef3c0 f   LIBCMTD:osfinfo.obj
 0002:0009c720       __set_osfhnd               100ef720 f   LIBCMTD:osfinfo.obj
 0002:0009c820       __free_osfhnd              100ef820 f   LIBCMTD:osfinfo.obj
 0002:0009c940       __get_osfhandle            100ef940 f   LIBCMTD:osfinfo.obj
 0002:0009cb00       __open_osfhandle           100efb00 f   LIBCMTD:osfinfo.obj
 0002:0009cdc0       ___lock_fhandle            100efdc0 f   LIBCMTD:osfinfo.obj
 0002:0009cf00       __unlock_fhandle           100eff00 f   LIBCMTD:osfinfo.obj
 0002:0009cf40       __putwch                   100eff40 f   LIBCMTD:putwch.obj
 0002:0009cff0       __putwch_nolock            100efff0 f   LIBCMTD:putwch.obj
 0002:0009d060       __stricmp_l                100f0060 f   LIBCMTD:stricmp.obj
 0002:0009d270       ___ascii_stricmp           100f0270 f   LIBCMTD:stricmp.obj
 0002:0009d300       __stricmp                  100f0300 f   LIBCMTD:stricmp.obj
 0002:0009d450       __strnicmp_l               100f0450 f   LIBCMTD:strnicmp.obj
 0002:0009d720       __strnicmp                 100f0720 f   LIBCMTD:strnicmp.obj
 0002:0009d910       __flswbuf                  100f0910 f   LIBCMTD:_flswbuf.obj
 0002:0009dca0       ?_ValidateRead@@YAHPBXI@Z  100f0ca0 f   LIBCMTD:validate.obj
 0002:0009dcd0       ?_ValidateWrite@@YAHPAXI@Z 100f0cd0 f   LIBCMTD:validate.obj
 0002:0009dd00       ?_ValidateExecute@@YAHP6GHXZ@Z 100f0d00 f   LIBCMTD:validate.obj
 0002:0009dd30       __close                    100f0d30 f   LIBCMTD:close.obj
 0002:0009dfd0       __close_nolock             100f0fd0 f   LIBCMTD:close.obj
 0002:0009e0d0       __freebuf                  100f10d0 f   LIBCMTD:_freebuf.obj
 0002:0009e180       __woutput_s_l              100f1180 f   LIBCMTD:woutputs.obj
 0002:0009f9b0       __validate_param_reuseW    100f29b0 f   LIBCMTD:woutputp.obj
 0002:0009fcc0       __woutput_p_l              100f2cc0 f   LIBCMTD:woutputp.obj
 0002:000a4230       ___initconout              100f7230 f   LIBCMTD:initcon.obj
 0002:000a4260       ___termconout              100f7260 f   LIBCMTD:initcon.obj
 0002:000a4290       ___ascii_strnicmp          100f7290 f   LIBCMTD:_strnicm.obj
 0002:000a4310       _wcstol                    100f7310 f   LIBCMTD:wcstol.obj
 0002:000a47d0       __wcstol_l                 100f77d0 f   LIBCMTD:wcstol.obj
 0002:000a4800       _wcstoul                   100f7800 f   LIBCMTD:wcstol.obj
 0002:000a4830       __wcstoul_l                100f7830 f   LIBCMTD:wcstol.obj
 0002:000a4860       __wchartodigit             100f7860 f   LIBCMTD:wchtodig.obj
 0002:000a4c4a       _MultiByteToWideChar@24    100f7c4a f   kernel32:KERNEL32.dll
 0002:000a4c50       _WideCharToMultiByte@32    100f7c50 f   kernel32:KERNEL32.dll
 0002:000a4c56       _GetProcAddress@8          100f7c56 f   kernel32:KERNEL32.dll
 0002:000a4c5c       _GetModuleHandleA@4        100f7c5c f   kernel32:KERNEL32.dll
 0002:000a4c62       _LoadLibraryExA@12         100f7c62 f   kernel32:KERNEL32.dll
 0002:000a4c68       _WaitForSingleObject@8     100f7c68 f   kernel32:KERNEL32.dll
 0002:000a4c6e       _GetCurrentProcessId@0     100f7c6e f   kernel32:KERNEL32.dll
 0002:000a4c74       _CreateFileMappingA@24     100f7c74 f   kernel32:KERNEL32.dll
 0002:000a4c7a       _CloseHandle@4             100f7c7a f   kernel32:KERNEL32.dll
 0002:000a4c80       _OpenFileMappingA@12       100f7c80 f   kernel32:KERNEL32.dll
 0002:000a4c86       _FreeLibrary@4             100f7c86 f   kernel32:KERNEL32.dll
 0002:000a4c8c       _DecodePointer@4           100f7c8c f   kernel32:KERNEL32.dll
 0002:000a4c92       _EncodePointer@4           100f7c92 f   kernel32:KERNEL32.dll
 0002:000a4c98       _GetCurrentThreadId@0      100f7c98 f   kernel32:KERNEL32.dll
 0002:000a4c9e       _GetCommandLineA@0         100f7c9e f   kernel32:KERNEL32.dll
 0002:000a4ca4       _GetLastError@0            100f7ca4 f   kernel32:KERNEL32.dll
 0002:000a4caa       _GetFullPathNameA@16       100f7caa f   kernel32:KERNEL32.dll
 0002:000a4cb0       _GetDriveTypeW@4           100f7cb0 f   kernel32:KERNEL32.dll
 0002:000a4cb6       _SetEnvironmentVariableA@8 100f7cb6 f   kernel32:KERNEL32.dll
 0002:000a4cbc       _GetCurrentDirectoryA@8    100f7cbc f   kernel32:KERNEL32.dll
 0002:000a4cc2       _SetCurrentDirectoryA@4    100f7cc2 f   kernel32:KERNEL32.dll
 0002:000a4cc8       _IsProcessorFeaturePresent@4 100f7cc8 f   kernel32:KERNEL32.dll
 0002:000a4cce       _IsDebuggerPresent@0       100f7cce f   kernel32:KERNEL32.dll
 0002:000a4cd4       _RaiseException@16         100f7cd4 f   kernel32:KERNEL32.dll
 0002:000a4cda       _lstrlenA@4                100f7cda f   kernel32:KERNEL32.dll
 0002:000a4ce0       _LoadLibraryW@4            100f7ce0 f   kernel32:KERNEL32.dll
 0002:000a4ce6       _GetModuleFileNameW@12     100f7ce6 f   kernel32:KERNEL32.dll
 0002:000a4cec       _WriteFile@20              100f7cec f   kernel32:KERNEL32.dll
 0002:000a4cf2       _GetStdHandle@4            100f7cf2 f   kernel32:KERNEL32.dll
 0002:000a4cf8       _GetLocaleInfoW@16         100f7cf8 f   kernel32:KERNEL32.dll
 0002:000a4cfe       _InterlockedIncrement@4    100f7cfe f   kernel32:KERNEL32.dll
 0002:000a4d04       _InterlockedDecrement@4    100f7d04 f   kernel32:KERNEL32.dll
 0002:000a4d0a       _GetModuleHandleW@4        100f7d0a f   kernel32:KERNEL32.dll
 0002:000a4d10       _ExitProcess@4             100f7d10 f   kernel32:KERNEL32.dll
 0002:000a4d16       _HeapValidate@12           100f7d16 f   kernel32:KERNEL32.dll
 0002:000a4d1c       _IsBadReadPtr@8            100f7d1c f   kernel32:KERNEL32.dll
 0002:000a4d22       _EnterCriticalSection@4    100f7d22 f   kernel32:KERNEL32.dll
 0002:000a4d28       _LeaveCriticalSection@4    100f7d28 f   kernel32:KERNEL32.dll
 0002:000a4d2e       _TerminateProcess@8        100f7d2e f   kernel32:KERNEL32.dll
 0002:000a4d34       _GetCurrentProcess@0       100f7d34 f   kernel32:KERNEL32.dll
 0002:000a4d3a       _UnhandledExceptionFilter@4 100f7d3a f   kernel32:KERNEL32.dll
 0002:000a4d40       _SetUnhandledExceptionFilter@4 100f7d40 f   kernel32:KERNEL32.dll
 0002:000a4d46       _TlsAlloc@0                100f7d46 f   kernel32:KERNEL32.dll
 0002:000a4d4c       _TlsGetValue@4             100f7d4c f   kernel32:KERNEL32.dll
 0002:000a4d52       _TlsSetValue@8             100f7d52 f   kernel32:KERNEL32.dll
 0002:000a4d58       _TlsFree@4                 100f7d58 f   kernel32:KERNEL32.dll
 0002:000a4d5e       _SetLastError@4            100f7d5e f   kernel32:KERNEL32.dll
 0002:000a4d64       _GetCurrentThread@0        100f7d64 f   kernel32:KERNEL32.dll
 0002:000a4d6a       _SetHandleCount@4          100f7d6a f   kernel32:KERNEL32.dll
 0002:000a4d70       _InitializeCriticalSectionAndSpinCount@8 100f7d70 f   kernel32:KERNEL32.dll
 0002:000a4d76       _GetFileType@4             100f7d76 f   kernel32:KERNEL32.dll
 0002:000a4d7c       _GetStartupInfoW@4         100f7d7c f   kernel32:KERNEL32.dll
 0002:000a4d82       _DeleteCriticalSection@4   100f7d82 f   kernel32:KERNEL32.dll
 0002:000a4d88       _GetModuleFileNameA@12     100f7d88 f   kernel32:KERNEL32.dll
 0002:000a4d8e       _FreeEnvironmentStringsW@4 100f7d8e f   kernel32:KERNEL32.dll
 0002:000a4d94       _GetEnvironmentStringsW@0  100f7d94 f   kernel32:KERNEL32.dll
 0002:000a4d9a       _HeapCreate@12             100f7d9a f   kernel32:KERNEL32.dll
 0002:000a4da0       _HeapDestroy@4             100f7da0 f   kernel32:KERNEL32.dll
 0002:000a4da6       _QueryPerformanceCounter@4 100f7da6 f   kernel32:KERNEL32.dll
 0002:000a4dac       _GetTickCount@0            100f7dac f   kernel32:KERNEL32.dll
 0002:000a4db2       _GetSystemTimeAsFileTime@4 100f7db2 f   kernel32:KERNEL32.dll
 0002:000a4db8       _FatalAppExitA@8           100f7db8 f   kernel32:KERNEL32.dll
 0002:000a4dbe       _GetACP@0                  100f7dbe f   kernel32:KERNEL32.dll
 0002:000a4dc4       _GetOEMCP@0                100f7dc4 f   kernel32:KERNEL32.dll
 0002:000a4dca       _GetCPInfo@8               100f7dca f   kernel32:KERNEL32.dll
 0002:000a4dd0       _IsValidCodePage@4         100f7dd0 f   kernel32:KERNEL32.dll
 0002:000a4dd6       _LCMapStringW@24           100f7dd6 f   kernel32:KERNEL32.dll
 0002:000a4ddc       _GetCurrentDirectoryW@8    100f7ddc f   kernel32:KERNEL32.dll
 0002:000a4de2       _SetCurrentDirectoryW@4    100f7de2 f   kernel32:KERNEL32.dll
 0002:000a4de8       _RtlUnwind@16              100f7de8 f   kernel32:KERNEL32.dll
 0002:000a4dee       _HeapFree@12               100f7dee f   kernel32:KERNEL32.dll
 0002:000a4df4       _HeapAlloc@12              100f7df4 f   kernel32:KERNEL32.dll
 0002:000a4dfa       _GetProcessHeap@0          100f7dfa f   kernel32:KERNEL32.dll
 0002:000a4e00       _VirtualQuery@12           100f7e00 f   kernel32:KERNEL32.dll
 0002:000a4e06       _SetConsoleCtrlHandler@8   100f7e06 f   kernel32:KERNEL32.dll
 0002:000a4e0c       _InterlockedExchange@8     100f7e0c f   kernel32:KERNEL32.dll
 0002:000a4e12       _HeapReAlloc@16            100f7e12 f   kernel32:KERNEL32.dll
 0002:000a4e18       _HeapSize@12               100f7e18 f   kernel32:KERNEL32.dll
 0002:000a4e1e       _HeapQueryInformation@20   100f7e1e f   kernel32:KERNEL32.dll
 0002:000a4e24       _OutputDebugStringA@4      100f7e24 f   kernel32:KERNEL32.dll
 0002:000a4e2a       _WriteConsoleW@20          100f7e2a f   kernel32:KERNEL32.dll
 0002:000a4e30       _OutputDebugStringW@4      100f7e30 f   kernel32:KERNEL32.dll
 0002:000a4e36       _GetStringTypeW@16         100f7e36 f   kernel32:KERNEL32.dll
 0002:000a4e3c       _SetFilePointer@16         100f7e3c f   kernel32:KERNEL32.dll
 0002:000a4e42       _GetConsoleCP@0            100f7e42 f   kernel32:KERNEL32.dll
 0002:000a4e48       _GetConsoleMode@8          100f7e48 f   kernel32:KERNEL32.dll
 0002:000a4e4e       _GetLocaleInfoA@16         100f7e4e f   kernel32:KERNEL32.dll
 0002:000a4e54       _IsValidLocale@8           100f7e54 f   kernel32:KERNEL32.dll
 0002:000a4e5a       _EnumSystemLocalesA@8      100f7e5a f   kernel32:KERNEL32.dll
 0002:000a4e60       _GetUserDefaultLCID@0      100f7e60 f   kernel32:KERNEL32.dll
 0002:000a4e66       _FlushFileBuffers@4        100f7e66 f   kernel32:KERNEL32.dll
 0002:000a4e6c       _ReadFile@20               100f7e6c f   kernel32:KERNEL32.dll
 0002:000a4e72       _SetStdHandle@8            100f7e72 f   kernel32:KERNEL32.dll
 0002:000a4e78       _CreateFileW@28            100f7e78 f   kernel32:KERNEL32.dll
 0002:000a4e80       ?ConnectInterfaces@@YAXPAP6APAXPBDPAH@ZH@Z 100f7e80 f   interfaces:interfaces.obj
 0002:000a5040       ?DisconnectInterfaces@@YAXXZ 100f8040 f   interfaces:interfaces.obj
 0002:000a50b0       ?ReconnectInterface@@YAXP6APAXPBDPAH@Z0PAPAX@Z 100f80b0 f   interfaces:interfaces.obj
 0002:000a5180       ?ReconnectInterface@@YAXP6APAXPBDPAH@Z0@Z 100f8180 f   interfaces:interfaces.obj
 0002:000a52d6       _Warning                   100f82d6 f   tier0:tier0.dll
 0002:000a52dc       ?ConMsg@@YAXPBDZZ          100f82dc f   tier0:tier0.dll
 0002:000a52e2       __AssertValidStringPtr     100f82e2 f   tier0:tier0.dll
 0002:000a52e8       __AssertValidWritePtr      100f82e8 f   tier0:tier0.dll
 0002:000a52ee       __AssertValidReadPtr       100f82ee f   tier0:tier0.dll
 0002:000a52f4       _Plat_IsInDebugSession     100f82f4 f   tier0:tier0.dll
 0002:000a52fa       _ReleaseThreadHandle       100f82fa f   tier0:tier0.dll
 0002:000a5300       _CreateSimpleThread        100f8300 f   tier0:tier0.dll
 0002:000a5306       _StackToolsNotify_LoadedLibrary 100f8306 f   tier0:tier0.dll
 0002:000a530c       _GetThreadedLoadLibraryFunc 100f830c f   tier0:tier0.dll
 0002:000a5312       ?DevWarning@@YAXPBDZZ      100f8312 f   tier0:tier0.dll
 0002:000a5320       __strupr_l                 100f8320 f   LIBCMTD:strupr.obj
 0002:000a5350       _strupr                    100f8350 f   LIBCMTD:strupr.obj
 0002:000a5350       __strupr                   100f8350 f   LIBCMTD:strupr.obj
 0002:000a5460       __strupr_s_l               100f8460 f   LIBCMTD:strupr.obj
 0002:000a59e0       __strupr_s                 100f89e0 f   LIBCMTD:strupr.obj
 0002:000a5a00       __strlwr_l                 100f8a00 f   LIBCMTD:strlwr.obj
 0002:000a5a30       __strlwr                   100f8a30 f   LIBCMTD:strlwr.obj
 0002:000a5a30       _strlwr                    100f8a30 f   LIBCMTD:strlwr.obj
 0002:000a5b40       ?_strlwr_s_l_stat@@YAHPADIPAUlocaleinfo_struct@@@Z 100f8b40 f   LIBCMTD:strlwr.obj
 0002:000a6080       __strlwr_s_l               100f9080 f   LIBCMTD:strlwr.obj
 0002:000a60d0       __strlwr_s                 100f90d0 f   LIBCMTD:strlwr.obj
 0002:000a60f0       _strnlen                   100f90f0 f   LIBCMTD:strlen_s.obj
 0003:00000000       ___xc_a                    100ff000     LIBCMTD:crt0init.obj
 0003:00000338       ___xc_z                    100ff338     LIBCMTD:crt0init.obj
 0003:0000043c       ___xi_a                    100ff43c     LIBCMTD:crt0init.obj
 0003:00000658       ___xi_z                    100ff658     LIBCMTD:crt0init.obj
 0003:0000075c       ___xp_a                    100ff75c     LIBCMTD:crt0init.obj
 0003:00000a70       ___xp_z                    100ffa70     LIBCMTD:crt0init.obj
 0003:00000b74       ___xt_a                    100ffb74     LIBCMTD:crt0init.obj
 0003:00000c78       ___xt_z                    100ffc78     LIBCMTD:crt0init.obj
 0003:00000da0       ??_7CShaderDLLVerification@@6B@ 100ffda0     shader_dll_verify.obj
 0003:00000dbc       ??_7IShaderDLLVerification@@6B@ 100ffdbc     shader_dll_verify.obj
 0003:00000dd4       ?MAX_LOGGING_STATE_COUNT@CLoggingSystem@@0HB 100ffdd4     BaseVSShader.obj
 0003:00000dd8       ?has_denorm@_Num_base@std@@2W4float_denorm_style@2@B 100ffdd8     BaseVSShader.obj
 0003:00000ddc       ?has_denorm_loss@_Num_base@std@@2_NB 100ffddc     BaseVSShader.obj
 0003:00000ddd       ?has_infinity@_Num_base@std@@2_NB 100ffddd     BaseVSShader.obj
 0003:00000dde       ?has_quiet_NaN@_Num_base@std@@2_NB 100ffdde     BaseVSShader.obj
 0003:00000ddf       ?has_signaling_NaN@_Num_base@std@@2_NB 100ffddf     BaseVSShader.obj
 0003:00000de0       ?is_bounded@_Num_base@std@@2_NB 100ffde0     BaseVSShader.obj
 0003:00000de1       ?is_exact@_Num_base@std@@2_NB 100ffde1     BaseVSShader.obj
 0003:00000de2       ?is_iec559@_Num_base@std@@2_NB 100ffde2     BaseVSShader.obj
 0003:00000de3       ?is_integer@_Num_base@std@@2_NB 100ffde3     BaseVSShader.obj
 0003:00000de4       ?is_modulo@_Num_base@std@@2_NB 100ffde4     BaseVSShader.obj
 0003:00000de5       ?is_signed@_Num_base@std@@2_NB 100ffde5     BaseVSShader.obj
 0003:00000de6       ?is_specialized@_Num_base@std@@2_NB 100ffde6     BaseVSShader.obj
 0003:00000de7       ?tinyness_before@_Num_base@std@@2_NB 100ffde7     BaseVSShader.obj
 0003:00000de8       ?traps@_Num_base@std@@2_NB 100ffde8     BaseVSShader.obj
 0003:00000dec       ?round_style@_Num_base@std@@2W4float_round_style@2@B 100ffdec     BaseVSShader.obj
 0003:00000df0       ?digits@_Num_base@std@@2HB 100ffdf0     BaseVSShader.obj
 0003:00000df4       ?digits10@_Num_base@std@@2HB 100ffdf4     BaseVSShader.obj
 0003:00000df8       ?max_digits10@_Num_base@std@@2HB 100ffdf8     BaseVSShader.obj
 0003:00000dfc       ?max_exponent@_Num_base@std@@2HB 100ffdfc     BaseVSShader.obj
 0003:00000e00       ?max_exponent10@_Num_base@std@@2HB 100ffe00     BaseVSShader.obj
 0003:00000e04       ?min_exponent@_Num_base@std@@2HB 100ffe04     BaseVSShader.obj
 0003:00000e08       ?min_exponent10@_Num_base@std@@2HB 100ffe08     BaseVSShader.obj
 0003:00000e0c       ?radix@_Num_base@std@@2HB  100ffe0c     BaseVSShader.obj
 0003:00000e10       ?is_bounded@_Num_int_base@std@@2_NB 100ffe10     BaseVSShader.obj
 0003:00000e11       ?is_exact@_Num_int_base@std@@2_NB 100ffe11     BaseVSShader.obj
 0003:00000e12       ?is_integer@_Num_int_base@std@@2_NB 100ffe12     BaseVSShader.obj
 0003:00000e13       ?is_modulo@_Num_int_base@std@@2_NB 100ffe13     BaseVSShader.obj
 0003:00000e14       ?is_specialized@_Num_int_base@std@@2_NB 100ffe14     BaseVSShader.obj
 0003:00000e18       ?radix@_Num_int_base@std@@2HB 100ffe18     BaseVSShader.obj
 0003:00000e1c       ?has_denorm@_Num_float_base@std@@2W4float_denorm_style@2@B 100ffe1c     BaseVSShader.obj
 0003:00000e20       ?has_denorm_loss@_Num_float_base@std@@2_NB 100ffe20     BaseVSShader.obj
 0003:00000e21       ?has_infinity@_Num_float_base@std@@2_NB 100ffe21     BaseVSShader.obj
 0003:00000e22       ?has_quiet_NaN@_Num_float_base@std@@2_NB 100ffe22     BaseVSShader.obj
 0003:00000e23       ?has_signaling_NaN@_Num_float_base@std@@2_NB 100ffe23     BaseVSShader.obj
 0003:00000e24       ?is_bounded@_Num_float_base@std@@2_NB 100ffe24     BaseVSShader.obj
 0003:00000e25       ?is_exact@_Num_float_base@std@@2_NB 100ffe25     BaseVSShader.obj
 0003:00000e26       ?is_iec559@_Num_float_base@std@@2_NB 100ffe26     BaseVSShader.obj
 0003:00000e27       ?is_integer@_Num_float_base@std@@2_NB 100ffe27     BaseVSShader.obj
 0003:00000e28       ?is_modulo@_Num_float_base@std@@2_NB 100ffe28     BaseVSShader.obj
 0003:00000e29       ?is_signed@_Num_float_base@std@@2_NB 100ffe29     BaseVSShader.obj
 0003:00000e2a       ?is_specialized@_Num_float_base@std@@2_NB 100ffe2a     BaseVSShader.obj
 0003:00000e2b       ?tinyness_before@_Num_float_base@std@@2_NB 100ffe2b     BaseVSShader.obj
 0003:00000e2c       ?traps@_Num_float_base@std@@2_NB 100ffe2c     BaseVSShader.obj
 0003:00000e30       ?round_style@_Num_float_base@std@@2W4float_round_style@2@B 100ffe30     BaseVSShader.obj
 0003:00000e34       ?radix@_Num_float_base@std@@2HB 100ffe34     BaseVSShader.obj
 0003:00000e38       ?is_signed@?$numeric_limits@D@std@@2_NB 100ffe38     BaseVSShader.obj
 0003:00000e3c       ?digits@?$numeric_limits@D@std@@2HB 100ffe3c     BaseVSShader.obj
 0003:00000e40       ?digits10@?$numeric_limits@D@std@@2HB 100ffe40     BaseVSShader.obj
 0003:00000e44       ?max_digits10@?$numeric_limits@D@std@@2HB 100ffe44     BaseVSShader.obj
 0003:00000e48       ?is_signed@?$numeric_limits@_W@std@@2_NB 100ffe48     BaseVSShader.obj
 0003:00000e4c       ?digits@?$numeric_limits@_W@std@@2HB 100ffe4c     BaseVSShader.obj
 0003:00000e50       ?digits10@?$numeric_limits@_W@std@@2HB 100ffe50     BaseVSShader.obj
 0003:00000e54       ?max_digits10@?$numeric_limits@_W@std@@2HB 100ffe54     BaseVSShader.obj
 0003:00000e58       ?is_modulo@?$numeric_limits@_N@std@@2_NB 100ffe58     BaseVSShader.obj
 0003:00000e59       ?is_signed@?$numeric_limits@_N@std@@2_NB 100ffe59     BaseVSShader.obj
 0003:00000e5c       ?digits@?$numeric_limits@_N@std@@2HB 100ffe5c     BaseVSShader.obj
 0003:00000e60       ?digits10@?$numeric_limits@_N@std@@2HB 100ffe60     BaseVSShader.obj
 0003:00000e64       ?max_digits10@?$numeric_limits@_N@std@@2HB 100ffe64     BaseVSShader.obj
 0003:00000e68       ?is_signed@?$numeric_limits@C@std@@2_NB 100ffe68     BaseVSShader.obj
 0003:00000e6c       ?digits@?$numeric_limits@C@std@@2HB 100ffe6c     BaseVSShader.obj
 0003:00000e70       ?digits10@?$numeric_limits@C@std@@2HB 100ffe70     BaseVSShader.obj
 0003:00000e74       ?max_digits10@?$numeric_limits@C@std@@2HB 100ffe74     BaseVSShader.obj
 0003:00000e78       ?is_signed@?$numeric_limits@E@std@@2_NB 100ffe78     BaseVSShader.obj
 0003:00000e7c       ?digits@?$numeric_limits@E@std@@2HB 100ffe7c     BaseVSShader.obj
 0003:00000e80       ?digits10@?$numeric_limits@E@std@@2HB 100ffe80     BaseVSShader.obj
 0003:00000e84       ?max_digits10@?$numeric_limits@E@std@@2HB 100ffe84     BaseVSShader.obj
 0003:00000e88       ?is_signed@?$numeric_limits@F@std@@2_NB 100ffe88     BaseVSShader.obj
 0003:00000e8c       ?digits@?$numeric_limits@F@std@@2HB 100ffe8c     BaseVSShader.obj
 0003:00000e90       ?digits10@?$numeric_limits@F@std@@2HB 100ffe90     BaseVSShader.obj
 0003:00000e94       ?max_digits10@?$numeric_limits@F@std@@2HB 100ffe94     BaseVSShader.obj
 0003:00000e98       ?is_signed@?$numeric_limits@G@std@@2_NB 100ffe98     BaseVSShader.obj
 0003:00000e9c       ?digits@?$numeric_limits@G@std@@2HB 100ffe9c     BaseVSShader.obj
 0003:00000ea0       ?digits10@?$numeric_limits@G@std@@2HB 100ffea0     BaseVSShader.obj
 0003:00000ea4       ?max_digits10@?$numeric_limits@G@std@@2HB 100ffea4     BaseVSShader.obj
 0003:00000ea8       ?is_signed@?$numeric_limits@H@std@@2_NB 100ffea8     BaseVSShader.obj
 0003:00000eac       ?digits@?$numeric_limits@H@std@@2HB 100ffeac     BaseVSShader.obj
 0003:00000eb0       ?digits10@?$numeric_limits@H@std@@2HB 100ffeb0     BaseVSShader.obj
 0003:00000eb4       ?max_digits10@?$numeric_limits@H@std@@2HB 100ffeb4     BaseVSShader.obj
 0003:00000eb8       ?is_signed@?$numeric_limits@I@std@@2_NB 100ffeb8     BaseVSShader.obj
 0003:00000ebc       ?digits@?$numeric_limits@I@std@@2HB 100ffebc     BaseVSShader.obj
 0003:00000ec0       ?digits10@?$numeric_limits@I@std@@2HB 100ffec0     BaseVSShader.obj
 0003:00000ec4       ?max_digits10@?$numeric_limits@I@std@@2HB 100ffec4     BaseVSShader.obj
 0003:00000ec8       ?is_signed@?$numeric_limits@J@std@@2_NB 100ffec8     BaseVSShader.obj
 0003:00000ecc       ?digits@?$numeric_limits@J@std@@2HB 100ffecc     BaseVSShader.obj
 0003:00000ed0       ?digits10@?$numeric_limits@J@std@@2HB 100ffed0     BaseVSShader.obj
 0003:00000ed4       ?max_digits10@?$numeric_limits@J@std@@2HB 100ffed4     BaseVSShader.obj
 0003:00000ed8       ?is_signed@?$numeric_limits@K@std@@2_NB 100ffed8     BaseVSShader.obj
 0003:00000edc       ?digits@?$numeric_limits@K@std@@2HB 100ffedc     BaseVSShader.obj
 0003:00000ee0       ?digits10@?$numeric_limits@K@std@@2HB 100ffee0     BaseVSShader.obj
 0003:00000ee4       ?max_digits10@?$numeric_limits@K@std@@2HB 100ffee4     BaseVSShader.obj
 0003:00000ee8       ?is_signed@?$numeric_limits@_J@std@@2_NB 100ffee8     BaseVSShader.obj
 0003:00000eec       ?digits@?$numeric_limits@_J@std@@2HB 100ffeec     BaseVSShader.obj
 0003:00000ef0       ?digits10@?$numeric_limits@_J@std@@2HB 100ffef0     BaseVSShader.obj
 0003:00000ef4       ?max_digits10@?$numeric_limits@_J@std@@2HB 100ffef4     BaseVSShader.obj
 0003:00000ef8       ?is_signed@?$numeric_limits@_K@std@@2_NB 100ffef8     BaseVSShader.obj
 0003:00000efc       ?digits@?$numeric_limits@_K@std@@2HB 100ffefc     BaseVSShader.obj
 0003:00000f00       ?digits10@?$numeric_limits@_K@std@@2HB 100fff00     BaseVSShader.obj
 0003:00000f04       ?max_digits10@?$numeric_limits@_K@std@@2HB 100fff04     BaseVSShader.obj
 0003:00000f08       ?digits@?$numeric_limits@M@std@@2HB 100fff08     BaseVSShader.obj
 0003:00000f0c       ?digits10@?$numeric_limits@M@std@@2HB 100fff0c     BaseVSShader.obj
 0003:00000f10       ?max_digits10@?$numeric_limits@M@std@@2HB 100fff10     BaseVSShader.obj
 0003:00000f14       ?max_exponent@?$numeric_limits@M@std@@2HB 100fff14     BaseVSShader.obj
 0003:00000f18       ?max_exponent10@?$numeric_limits@M@std@@2HB 100fff18     BaseVSShader.obj
 0003:00000f1c       ?min_exponent@?$numeric_limits@M@std@@2HB 100fff1c     BaseVSShader.obj
 0003:00000f20       ?min_exponent10@?$numeric_limits@M@std@@2HB 100fff20     BaseVSShader.obj
 0003:00000f24       ?digits@?$numeric_limits@N@std@@2HB 100fff24     BaseVSShader.obj
 0003:00000f28       ?digits10@?$numeric_limits@N@std@@2HB 100fff28     BaseVSShader.obj
 0003:00000f2c       ?max_digits10@?$numeric_limits@N@std@@2HB 100fff2c     BaseVSShader.obj
 0003:00000f30       ?max_exponent@?$numeric_limits@N@std@@2HB 100fff30     BaseVSShader.obj
 0003:00000f34       ?max_exponent10@?$numeric_limits@N@std@@2HB 100fff34     BaseVSShader.obj
 0003:00000f38       ?min_exponent@?$numeric_limits@N@std@@2HB 100fff38     BaseVSShader.obj
 0003:00000f3c       ?min_exponent10@?$numeric_limits@N@std@@2HB 100fff3c     BaseVSShader.obj
 0003:00000f40       ?digits@?$numeric_limits@O@std@@2HB 100fff40     BaseVSShader.obj
 0003:00000f44       ?digits10@?$numeric_limits@O@std@@2HB 100fff44     BaseVSShader.obj
 0003:00000f48       ?max_digits10@?$numeric_limits@O@std@@2HB 100fff48     BaseVSShader.obj
 0003:00000f4c       ?max_exponent@?$numeric_limits@O@std@@2HB 100fff4c     BaseVSShader.obj
 0003:00000f50       ?max_exponent10@?$numeric_limits@O@std@@2HB 100fff50     BaseVSShader.obj
 0003:00000f54       ?min_exponent@?$numeric_limits@O@std@@2HB 100fff54     BaseVSShader.obj
 0003:00000f58       ?min_exponent10@?$numeric_limits@O@std@@2HB 100fff58     BaseVSShader.obj
 0003:00000f5c       ?INVALID_INDEX@?$CUtlMemory@PADH@@2HB 100fff5c     BaseVSShader.obj
 0003:00000f60       ?INVALID_INDEX@?$CUtlMemory@EH@@2HB 100fff60     BaseVSShader.obj
 0003:00000f64       ?INVALID_INDEX@?$CUtlMemory@P6AXPAVIConVar@@PBDM@ZH@@2HB 100fff64     BaseVSShader.obj
 0003:00000f98       ?INVALID_INDEX@?$CUtlMemory@U?$UtlRBTreeNode_t@PBDG@@G@@2GB 100fff98     BaseVSShader.obj
 0003:00000f9c       ?INVALID_INDEX@?$CUtlMemory@GH@@2HB 100fff9c     BaseVSShader.obj
 0003:00000fa0       ?INVALID_INDEX@?$CUtlMemory@Uhash_item_t@CCountedStringPool@@H@@2HB 100fffa0     BaseVSShader.obj
 0003:00000fa4       ?INVALID_INDEX@?$CUtlMemory@U?$UtlRBTreeNode_t@VCStringPoolIndex@CUtlSymbolTable@@G@@G@@2GB 100fffa4     BaseVSShader.obj
 0003:00000fa8       ?INVALID_INDEX@?$CUtlMemory@PAUStringPool_t@CUtlSymbolTable@@H@@2HB 100fffa8     BaseVSShader.obj
 0003:00000fac       ??_C@_0BN@GEEFLAF@Assertion?5Failed?3?5pPixelVar2?$AA@ 100fffac     BaseVSShader.obj
 0003:00000fd0       ??_C@_0BM@DKDJELMF@Assertion?5Failed?3?5pPixelVar?$AA@ 100fffd0     BaseVSShader.obj
 0003:00000ff4       ??_C@_0O@JKDIAHDA@?$CFs?5?$CI?$CFd?$CJ?5?3?5?$CFs?6?$AA@ 100ffff4     BaseVSShader.obj
 0003:00001008       ??_C@_0EN@CDFDJGCD@d?3?2theklaxon?2emulsion?9sdk?2src?2ma@ 10100008     BaseVSShader.obj
 0003:00001064       ??_C@_0CE@KCGJLJEJ@Assertion?5Failed?3?5?$CBIsSnapshottin@ 10100064     BaseVSShader.obj
 0003:00001090       ??_C@_0DI@EJFKAAEO@d?3?2theklaxon?2emulsion?9sdk?2src?2pu@ 10100090     BaseVSShader.obj
 0003:000010d4       ??_C@_0CG@GIEHDGD@Assertion?5Failed?3?5?$CIi?5?$DO?$DN?50?$CJ?5?$CG?$CG?5?$CIi@ 101000d4     BaseVSShader.obj
 0003:00001108       ??_C@_0ED@GIBIKMEJ@d?3?2theklaxon?2emulsion?9sdk?2src?2pu@ 10100108     BaseVSShader.obj
 0003:00001158       ??_C@_0DH@MCDMJMOL@Assertion?5Failed?3?5?$CI?5numcomps?5?$DO0?5@ 10100158     BaseVSShader.obj
 0003:0000119c       __real@3f800000            1010019c     BaseVSShader.obj
 0003:000011a0       __real@3bff9724            101001a0     BaseVSShader.obj
 0003:000011a4       __real@3f7df3b6            101001a4     BaseVSShader.obj
 0003:000011a8       ??_C@_0BN@GHBMABHN@Assertion?5Failed?3?5pVertexVar?$AA@ 101001a8     BaseVSShader.obj
 0003:000011cc       __real@00000000            101001cc     BaseVSShader.obj
 0003:000011d0       ??_C@_0BM@CIMBBINP@Assertion?5Failed?3?5IsValid?$CI?$CJ?$AA@ 101001d0     BaseVSShader.obj
 0003:000011f4       ??_C@_0DI@MGBKPFOO@d?3?2theklaxon?2emulsion?9sdk?2src?2pu@ 101001f4     BaseVSShader.obj
 0003:00001238       ??_C@_0CG@CAJAPNB@Assertion?5Failed?3?5?$CIi?5?$DO?$DN?50?$CJ?5?$CG?$CG?5?$CIi@ 10100238     BaseVSShader.obj
 0003:00001268       ??_C@_0DG@CFMMGHGA@d?3?2theklaxon?2emulsion?9sdk?2src?2pu@ 10100268     BaseVSShader.obj
 0003:000012a8       ??_C@_0CG@DMLGFOG@Assertion?5Failed?3?5?$CIi?5?$DO?$DN?50?$CJ?5?$CG?$CG?5?$CIi@ 101002a8     BaseVSShader.obj
 0003:000012d8       __real@3f000000            101002d8     BaseVSShader.obj
 0003:000012dc       __real@40000000            101002dc     BaseVSShader.obj
 0003:000012e0       __real@bf800000            101002e0     BaseVSShader.obj
 0003:000012e4       __real@3f19999a            101002e4     BaseVSShader.obj
 0003:000012e8       ??_C@_0BH@OCFDAJKO@depthtodestalpha_ps20b?$AA@ 101002e8     BaseVSShader.obj
 0003:00001304       ??_C@_0BG@MHIPEPBN@depthtodestalpha_vs20?$AA@ 10100304     BaseVSShader.obj
 0003:00001320       ??_C@_06GBLCCILC@?9tools?$AA@ 10100320     BaseVSShader.obj
 0003:00001328       __real@7f7fffff            10100328     BaseVSShader.obj
 0003:0000132c       ??_C@_0P@EDPJKOMO@mat_fullbright?$AA@ 1010032c     BaseVSShader.obj
 0003:00001340       ??_C@_01GBGANLPD@0?$AA@    10100340     BaseVSShader.obj
 0003:00001344       ??_C@_0BH@KDIAAFA@r_flashlightbrightness?$AA@ 10100344     BaseVSShader.obj
 0003:00001360       ??_C@_04FNMPJLCB@0?425?$AA@ 10100360     BaseVSShader.obj
 0003:00001368       ??_C@_0BH@EIBEHGOL@mat_envmaptintoverride?$AA@ 10100368     BaseVSShader.obj
 0003:00001384       ??_C@_02PGHGPEOM@?91?$AA@  10100384     BaseVSShader.obj
 0003:00001388       ??_C@_0BE@DKGLCCGK@mat_envmaptintscale?$AA@ 10100388     BaseVSShader.obj
 0003:000013a0       ??_C@_0M@NCILHLHE@r_emulategl?$AA@ 101003a0     BaseVSShader.obj
 0003:000013b0       ??_C@_03OOCFEJDJ@PBR?$AA@  101003b0     pbr_dx9.obj
 0003:000013b4       ??_C@_0L@KJHPCEJL@PBR?5shader?$AA@ 101003b4     pbr_dx9.obj
 0003:000013c8       ?INVALID_INDEX@?$CUtlMemory@PAVCShaderParam@PBR@@H@@2HB 101003c8     pbr_dx9.obj
 0003:000013cc       ??_C@_0N@CKAJDCNP@mat_specular?$AA@ 101003cc     pbr_dx9.obj
 0003:000013dc       ??_C@_01HIHLOKLC@1?$AA@    101003dc     pbr_dx9.obj
 0003:000013e0       ??_C@_0BC@MOIGHJBH@mat_pbr_force_20b?$AA@ 101003e0     pbr_dx9.obj
 0003:000013f8       ??_C@_0BE@OJOLMNJG@mat_pbr_parallaxmap?$AA@ 101003f8     pbr_dx9.obj
 0003:00001410       ??_C@_0BM@BFIANIAK@mat_allow_parallax_cubemaps?$AA@ 10100410     pbr_dx9.obj
 0003:00001434       ??_C@_0DH@OIOJCAHM@d?3?2theklaxon?2emulsion?9sdk?2src?2pu@ 10100434     pbr_dx9.obj
 0003:00001478       ??_C@_0CB@DGGMDFC@Assertion?5Failed?3?5nGrowSize?5?$DO?$DN?50@ 10100478     pbr_dx9.obj
 0003:000014a0       ??_C@_0CA@BLICLCJF@Assertion?5Failed?3?5?$CBIsReadOnly?$CI?$CJ?$AA@ 101004a0     pbr_dx9.obj
 0003:000014c8       ??_C@_0BE@GEDBJHGM@$ALPHATESTREFERENCE?$AA@ 101004c8     pbr_dx9.obj
 0003:000014e0       ??_C@_00CNPNBAHC@?$AA@     101004e0     pbr_dx9.obj
 0003:000014e4       ??_C@_0DH@LACDKBOH@d?3?2theklaxon?2emulsion?9sdk?2src?2pu@ 101004e4     pbr_dx9.obj
 0003:00001528       ??_C@_0FH@JOIFLHBI@Assertion?5Failed?3?5?$CIBase?$CI?$CJ?5?$DN?$DN?5NUL@ 10100528     pbr_dx9.obj
 0003:00001590       ??_C@_0DK@CFLODBPI@Assertion?5Failed?3?5?$CIelem?5?$DN?$DN?5Count@ 10100590     pbr_dx9.obj
 0003:000015d8       ??_C@_0BN@NMAMMOEJ@Assertion?5Failed?3?5i?5?$DM?5m_Size?$AA@ 101005d8     pbr_dx9.obj
 0003:000015fc       ??_C@_0CA@KGMIIJNG@Assertion?5Failed?3?5IsIdxValid?$CIi?$CJ?$AA@ 101005fc     pbr_dx9.obj
 0003:00001628       ??_C@_0EI@GDMBHICD@Assertion?5Failed?3?5IsValidIndex?$CIe@ 10100628     pbr_dx9.obj
 0003:00001680       ??_C@_0BM@ODKIHEMA@Assertion?5Failed?3?5m_pMemory?$AA@ 10100680     pbr_dx9.obj
 0003:000016a4       ??_C@_0BE@FAIBBENA@Assertion?5Failed?3?50?$AA@ 101006a4     pbr_dx9.obj
 0003:000016bc       ??_C@_0BK@MCKPAAPK@Assertion?5Failed?3?5num?5?$DO?50?$AA@ 101006bc     pbr_dx9.obj
 0003:000016dc       ??_C@_07NBEOHNNA@$ENVMAP?$AA@ 101006dc     pbr_dx9.obj
 0003:000016e8       ??_C@_0CD@PJGNDHCN@Set?5the?5cubemap?5for?5this?5materia@ 101006e8     pbr_dx9.obj
 0003:00001714       ??_C@_0N@IJPFBANA@$MRAOTEXTURE?$AA@ 10100714     pbr_dx9.obj
 0003:00001728       ??_C@_0EF@GGDDGCGA@Texture?5with?5metalness?5in?5R?0?5rou@ 10100728     pbr_dx9.obj
 0003:0000177c       ??_C@_0BB@DJDDLLLH@$EMISSIONTEXTURE?$AA@ 1010077c     pbr_dx9.obj
 0003:00001790       ??_C@_0BB@DICOFIEC@Emission?5texture?$AA@ 10100790     pbr_dx9.obj
 0003:000017a4       ??_C@_0P@EKPMLHIB@$NORMALTEXTURE?$AA@ 101007a4     pbr_dx9.obj
 0003:000017b8       ??_C@_0CK@GDDLIGFE@Normal?5texture?5?$CIdeprecated?0?5use?5@ 101007b8     pbr_dx9.obj
 0003:000017ec       ??_C@_08PFPGNHEE@$BUMPMAP?$AA@ 101007ec     pbr_dx9.obj
 0003:000017f8       ??_C@_0P@GIGBGJLK@Normal?5texture?$AA@ 101007f8     pbr_dx9.obj
 0003:0000180c       ??_C@_0P@GMBIPEAI@$USEENVAMBIENT?$AA@ 1010080c     pbr_dx9.obj
 0003:00001820       ??_C@_0CL@FJMEELGC@Use?5the?5cubemaps?5to?5compute?5ambi@ 10100820     pbr_dx9.obj
 0003:00001854       ??_C@_0BB@GAEMLOAN@$SPECULARTEXTURE?$AA@ 10100854     pbr_dx9.obj
 0003:00001868       ??_C@_0BE@MOOFMHMH@Specular?5F0?5RGB?5map?$AA@ 10100868     pbr_dx9.obj
 0003:00001880       ??_C@_09PCBDPEBH@$PARALLAX?$AA@ 10100880     pbr_dx9.obj
 0003:0000188c       ??_C@_0CA@DOBHNCGN@Use?5Parallax?5Occlusion?5Mapping?4?$AA@ 1010088c     pbr_dx9.obj
 0003:000018b4       ??_C@_0P@HPOMIHPE@$PARALLAXDEPTH?$AA@ 101008b4     pbr_dx9.obj
 0003:000018c8       ??_C@_06FPDHMMII@0?40030?$AA@ 101008c8     pbr_dx9.obj
 0003:000018d0       ??_C@_0BK@CEMMHOII@Depth?5of?5the?5Parallax?5Map?$AA@ 101008d0     pbr_dx9.obj
 0003:000018f0       ??_C@_0BA@CAINGBGK@$PARALLAXCENTER?$AA@ 101008f0     pbr_dx9.obj
 0003:00001904       ??_C@_03LOHCHBBO@0?45?$AA@ 10100904     pbr_dx9.obj
 0003:00001908       ??_C@_0CB@HBHPKOEE@Center?5depth?5of?5the?5Parallax?5Map@ 10100908     pbr_dx9.obj
 0003:00001930       ??_C@_0BA@KCLFDKDG@$ENVMAPPARALLAX?$AA@ 10100930     pbr_dx9.obj
 0003:00001944       ??_C@_0DB@JDNCELGJ@Should?5envmap?5reflections?5be?5par@ 10100944     pbr_dx9.obj
 0003:00001980       ??_C@_0BE@DCLFODA@$ENVMAPPARALLAXOBB1?$AA@ 10100980     pbr_dx9.obj
 0003:00001998       ??_C@_09BIBPCNKE@?$FL1?50?50?50?$FN?$AA@ 10100998     pbr_dx9.obj
 0003:000019a4       ??_C@_0DF@EFAFHGFE@The?5first?5line?5of?5the?5parallax?5c@ 101009a4     pbr_dx9.obj
 0003:000019e4       ??_C@_0BE@CIAGANPD@$ENVMAPPARALLAXOBB2?$AA@ 101009e4     pbr_dx9.obj
 0003:000019fc       ??_C@_09KJBDDCFD@?$FL0?51?50?50?$FN?$AA@ 101009fc     pbr_dx9.obj
 0003:00001a08       ??_C@_0DG@HPDNODOJ@The?5second?5line?5of?5the?5parallax?5@ 10100a08     pbr_dx9.obj
 0003:00001a48       ??_C@_0BE@DBBNDMLC@$ENVMAPPARALLAXOBB3?$AA@ 10100a48     pbr_dx9.obj
 0003:00001a60       ??_C@_09DCAEBAFH@?$FL0?50?51?50?$FN?$AA@ 10100a60     pbr_dx9.obj
 0003:00001a6c       ??_C@_0DF@EELMFFP@The?5third?5line?5of?5the?5parallax?5c@ 10100a6c     pbr_dx9.obj
 0003:00001aac       ??_C@_0O@FFGIGKEM@$ENVMAPORIGIN?$AA@ 10100aac     pbr_dx9.obj
 0003:00001abc       ??_C@_07BHDDLOFD@?$FL0?50?50?$FN?$AA@ 10100abc     pbr_dx9.obj
 0003:00001ac8       ??_C@_0DM@EEAEJNAC@The?5world?5space?5position?5of?5the?5@ 10100ac8     pbr_dx9.obj
 0003:00001b14       ??_7CShader@PBR@@6B@       10100b14     pbr_dx9.obj
 0003:00001b5c       ??_C@_0BG@DCPCIEMH@effects?1flashlight001?$AA@ 10100b5c     pbr_dx9.obj
 0003:00001b78       ??_C@_0BK@MLNFFBG@effects?1flashlight_border?$AA@ 10100b78     pbr_dx9.obj
 0003:00001b98       ??_C@_0M@DLHJBNEJ@env_cubemap?$AA@ 10100b98     pbr_dx9.obj
 0003:00001ba8       ??_C@_0BE@FPDAHCID@dev?1pbr_mraotexture?$AA@ 10100ba8     pbr_dx9.obj
 0003:00001bc0       ??_C@_0BA@GDMLKKOB@dev?1flat_normal?$AA@ 10100bc0     pbr_dx9.obj
 0003:00001bd4       ??_C@_0CI@FOAIGCNA@Assertion?5Failed?3?5info?4mraoTextu@ 10100bd4     pbr_dx9.obj
 0003:00001c04       ??_C@_0CD@FFPHHLIK@Assertion?5Failed?3?5info?4envMap?5?$DO?$DN@ 10100c04     pbr_dx9.obj
 0003:00001c30       ??_C@_0CE@PFHFDCKH@Assertion?5Failed?3?5info?4bumpMap?5?$DO@ 10100c30     pbr_dx9.obj
 0003:00001c60       ??_C@_0EI@DFPIHOLA@d?3?2theklaxon?2emulsion?9sdk?2src?2ma@ 10100c60     pbr_dx9.obj
 0003:00001cb8       ??_C@_0CO@BPHAAIKJ@Assertion?5Failed?3?5info?4flashligh@ 10100cb8     pbr_dx9.obj
 0003:00001cf0       __real@40400000            10100cf0     pbr_dx9.obj
 0003:00001cf4       ??_C@_0BC@KACMJJNE@FLASHLIGHTSHADOWS?$AA@ 10100cf4     pbr_dx9.obj
 0003:00001d0c       ??_C@_0BD@JKGOEMIB@bFlashlightShadows?$AA@ 10100d0c     pbr_dx9.obj
 0003:00001d24       ??_C@_0N@DELELAG@PIXELFOGTYPE?$AA@ 10100d24     pbr_dx9.obj
 0003:00001d34       ??_C@_0BP@JLAOKCDG@pShaderAPI?9?$DOGetPixelFogCombo?$CI?$CJ?$AA@ 10100d34     pbr_dx9.obj
 0003:00001d5c       ??_C@_0BJ@HICMAGHE@WRITE_DEPTH_TO_DESTALPHA?$AA@ 10100d5c     pbr_dx9.obj
 0003:00001d7c       ??_C@_0BD@NBJEFJPI@bWriteDepthToAlpha?$AA@ 10100d7c     pbr_dx9.obj
 0003:00001d94       ??_C@_0BJ@PLJCMIKE@WRITEWATERFOGTODESTALPHA?$AA@ 10100d94     pbr_dx9.obj
 0003:00001db4       ??_C@_0BG@LNKMFLEO@bWriteWaterFogToAlpha?$AA@ 10100db4     pbr_dx9.obj
 0003:00001dd0       ??_C@_0BN@FGLLJJBP@?6?5?5?5PS?5dyn?5?5var?5?$CFs?5?$DN?5?$CFd?5?$CI?$CFs?$CJ?$AA@ 10100dd0     pbr_dx9.obj
 0003:00001df4       ??_C@_0L@JAMAMBF@NUM_LIGHTS?$AA@ 10100df4     pbr_dx9.obj
 0003:00001e04       ??_C@_0BI@KOKJMPOA@lightState?4m_nNumLights?$AA@ 10100e04     pbr_dx9.obj
 0003:00001e20       ??_C@_0BB@MGGDMHKK@COMPRESSED_VERTS?$AA@ 10100e20     pbr_dx9.obj
 0003:00001e34       ??_C@_0BH@HMAIIFCO@?$CIint?$CJvertexCompression?$AA@ 10100e34     pbr_dx9.obj
 0003:00001e50       ??_C@_0BB@HDAGCPJB@LIGHTING_PREVIEW?$AA@ 10100e50     pbr_dx9.obj
 0003:00001e68       ??_C@_0FA@KFIFIJOJ@pShaderAPI?9?$DOGetIntRenderingParam@ 10100e68     pbr_dx9.obj
 0003:00001ec8       ??_C@_08GPMJLHI@SKINNING?$AA@ 10100ec8     pbr_dx9.obj
 0003:00001ed4       ??_C@_0N@JNMFKFIB@numBones?5?$DO?50?$AA@ 10100ed4     pbr_dx9.obj
 0003:00001ee4       ??_C@_0BN@DNGAPFLJ@?6?5?5?5VS?5dyn?5?5var?5?$CFs?5?$DN?5?$CFd?5?$CI?$CFs?$CJ?$AA@ 10100ee4     pbr_dx9.obj
 0003:00001f08       ??_C@_0L@NOABEIJB@DOWATERFOG?$AA@ 10100f08     pbr_dx9.obj
 0003:00001f18       ??_C@_08GCLONLOK@fogIndex?$AA@ 10100f18     pbr_dx9.obj
 0003:00001f24       ??_C@_0DC@MIPPHMDC@Can?8t?5write?5two?5values?5to?5alpha?5@ 10100f24     pbr_dx9.obj
 0003:00001f60       ??_C@_0DO@LMODHGEL@Assertion?5Failed?3?5params?$FLinfo?4fl@ 10100f60     pbr_dx9.obj
 0003:00001fb0       ??_C@_0FC@BBCHMADO@Assertion?5Failed?3?5info?4flashligh@ 10100fb0     pbr_dx9.obj
 0003:00002014       ??_C@_08IEIHHGOF@pbr_ps30?$AA@ 10101014     pbr_dx9.obj
 0003:00002020       ??_C@_0BC@LDNEFMOP@PARALLAXOCCLUSION?$AA@ 10101020     pbr_dx9.obj
 0003:00002038       ??_C@_0M@DNEAEIAC@useParallax?$AA@ 10101038     pbr_dx9.obj
 0003:00002048       ??_C@_0BE@MEPMFLEP@bHasSpecularTexture?$AA@ 10101048     pbr_dx9.obj
 0003:00002060       ??_C@_0O@GIMJNFNF@USEENVAMBIENT?$AA@ 10101060     pbr_dx9.obj
 0003:00002070       ??_C@_0P@OGNBJECL@bUseEnvAmbient?$AA@ 10101070     pbr_dx9.obj
 0003:00002084       ??_C@_08LMHIDEF@pbr_vs30?$AA@ 10101084     pbr_dx9.obj
 0003:00002090       ??_C@_09DPJDPPMB@pbr_ps20b?$AA@ 10101090     pbr_dx9.obj
 0003:0000209c       ??_C@_0BA@EJKPJDOD@PARALLAXCORRECT?$AA@ 1010109c     pbr_dx9.obj
 0003:000020b0       ??_C@_0BG@OLGPLOBE@hasParallaxCorrection?$AA@ 101010b0     pbr_dx9.obj
 0003:000020cc       ??_C@_08EABEDICH@SPECULAR?$AA@ 101010cc     pbr_dx9.obj
 0003:000020d8       ??_C@_08BIHCHLDI@EMISSIVE?$AA@ 101010d8     pbr_dx9.obj
 0003:000020e4       ??_C@_0BE@JNIDFOPF@bHasEmissionTexture?$AA@ 101010e4     pbr_dx9.obj
 0003:000020fc       ??_C@_0M@CEIEGMEC@LIGHTMAPPED?$AA@ 101010fc     pbr_dx9.obj
 0003:0000210c       ??_C@_0N@EHFKAIAG@bLightMapped?$AA@ 1010110c     pbr_dx9.obj
 0003:0000211c       ??_C@_0BK@FMHOIJJC@FLASHLIGHTDEPTHFILTERMODE?$AA@ 1010111c     pbr_dx9.obj
 0003:0000213c       ??_C@_0BC@KIGMPPHA@nShadowFilterMode?$AA@ 1010113c     pbr_dx9.obj
 0003:00002154       ??_C@_0BN@PJPJMJKM@?6?5?5?5PS?5stat?5var?5?$CFs?5?$DN?5?$CFd?5?$CI?$CFs?$CJ?$AA@ 10101154     pbr_dx9.obj
 0003:00002178       ??_C@_0L@MAEDHGGN@FLASHLIGHT?$AA@ 10101178     pbr_dx9.obj
 0003:00002188       ??_C@_0P@FEAPLEPL@bHasFlashlight?$AA@ 10101188     pbr_dx9.obj
 0003:0000219c       ??_C@_08KAFOJHC@pbr_vs20?$AA@ 1010119c     pbr_dx9.obj
 0003:000021a8       __real@40200000            101011a8     pbr_dx9.obj
 0003:000021ac       __real@3dcccccd            101011ac     pbr_dx9.obj
 0003:000021b0       __real@44800000            101011b0     pbr_dx9.obj
 0003:000021b8       ??_C@_0FB@GNHCLNKB@d?3?2theklaxon?2emulsion?9sdk?2src?2ma@ 101011b8     pbr_dx9.obj
 0003:0000221c       ??_C@_0CD@BFPGKPGF@Assertion?5Failed?3?5i?5?$DO?$DN?50?5?$CG?$CG?5i?5?$DM?$DN@ 1010121c     pbr_dx9.obj
 0003:00002248       ??_C@_0CD@GIIBFLCA@Assertion?5Failed?3?5i?5?$DO?$DN?50?5?$CG?$CG?5i?5?$DM?$DN@ 10101248     pbr_dx9.obj
 0003:00002278       ??_C@_0GO@BHANHHPH@Assertion?5Failed?3?5m_bCOMPRESSED_@ 10101278     pbr_dx9.obj
 0003:00002300       ??_C@_0FB@BOGIMECL@d?3?2theklaxon?2emulsion?9sdk?2src?2ma@ 10101300     pbr_dx9.obj
 0003:00002364       ??_C@_0CD@DONLPMKG@Assertion?5Failed?3?5i?5?$DO?$DN?50?5?$CG?$CG?5i?5?$DM?$DN@ 10101364     pbr_dx9.obj
 0003:00002390       ??_C@_0EP@KHJGAPID@Invalid?5combo?5combination?5?$CI?5?$CI?5LI@ 10101390     pbr_dx9.obj
 0003:000023f0       ??_C@_0FI@CDJECLJF@Invalid?5combo?5combination?5?$CI?5?$CI?5FL@ 101013f0     pbr_dx9.obj
 0003:00002460       ??_C@_0LC@GACGBJGJ@Assertion?5Failed?3?5m_bFLASHLIGHT?5@ 10101460     pbr_dx9.obj
 0003:00002538       ??_C@_0GC@DMEBABCF@Invalid?5combo?5combination?5?$CI?51?5?$CG?$CG@ 10101538     pbr_dx9.obj
 0003:000025b0       ??_C@_0FJ@KBPLNNHG@Invalid?5combo?5combination?5?$CI?5?$CI?5PI@ 101015b0     pbr_dx9.obj
 0003:00002620       ??_C@_0IJ@OCHLNGMI@Assertion?5Failed?3?5m_bWRITEWATERF@ 10101620     pbr_dx9.obj
 0003:000026c8       ??_C@_0FB@MLAFLGBF@d?3?2theklaxon?2emulsion?9sdk?2src?2ma@ 101016c8     pbr_dx9.obj
 0003:00002730       ??_C@_0FC@CJJOEMNK@d?3?2theklaxon?2emulsion?9sdk?2src?2ma@ 10101730     pbr_dx9.obj
 0003:00002798       ??_C@_0IG@FPFJGHHL@Assertion?5Failed?3?5m_bFLASHLIGHT?5@ 10101798     pbr_dx9.obj
 0003:0000283c       ??_7CBaseVSShader@@6B@     1010183c     pbr_dx9.obj
 0003:00002888       __real@40019999a0000000    10101888     mathlib:color_conversion.obj
 0003:00002898       __real@3fdd1745c0000000    10101898     mathlib:color_conversion.obj
 0003:000028a4       __real@437f0000            101018a4     mathlib:color_conversion.obj
 0003:000028a8       __real@3f733333            101018a8     mathlib:color_conversion.obj
 0003:000028b0       __real@4003333340000000    101018b0     mathlib:color_conversion.obj
 0003:000028bc       __real@3f72a76f            101018bc     mathlib:color_conversion.obj
 0003:000028c0       __real@3d6147ae            101018c0     mathlib:color_conversion.obj
 0003:000028c4       __real@3d9e8391            101018c4     mathlib:color_conversion.obj
 0003:000028c8       __real@3d25aee6            101018c8     mathlib:color_conversion.obj
 0003:000028cc       __real@3f870a3d            101018cc     mathlib:color_conversion.obj
 0003:000028d0       __real@3fdaaaaaa0000000    101018d0     mathlib:color_conversion.obj
 0003:000028dc       __real@414eb852            101018dc     mathlib:color_conversion.obj
 0003:000028e0       __real@3b4d2e1c            101018e0     mathlib:color_conversion.obj
 0003:000028e4       __real@3b800000            101018e4     mathlib:color_conversion.obj
 0003:000028e8       __real@43800000            101018e8     mathlib:color_conversion.obj
 0003:000028ec       __real@447f0000            101018ec     mathlib:color_conversion.obj
 0003:000028f0       __real@3f40c0c1            101018f0     mathlib:color_conversion.obj
 0003:000028f4       __real@3b000000            101018f4     mathlib:color_conversion.obj
 0003:000028f8       __real@42800000            101018f8     mathlib:color_conversion.obj
 0003:000028fc       __real@43ff0000            101018fc     mathlib:color_conversion.obj
 0003:00002900       __real@3e808081            10101900     mathlib:color_conversion.obj
 0003:00002904       __real@3ec0c0c1            10101904     mathlib:color_conversion.obj
 0003:00002908       __real@3a802008            10101908     mathlib:color_conversion.obj
 0003:0000290c       __real@4b000000            1010190c     mathlib:color_conversion.obj
 0003:00002910       __real@80000000            10101910     mathlib:color_conversion.obj
 0003:00002914       __real@3c000000            10101914     mathlib:color_conversion.obj
 0003:00002918       __real@44ff0000            10101918     mathlib:color_conversion.obj
 0003:0000291c       __real@3f806060            1010191c     mathlib:color_conversion.obj
 0003:00002920       __real@3f002008            10101920     mathlib:color_conversion.obj
 0003:00002924       __real@3e008081            10101924     mathlib:color_conversion.obj
 0003:00002928       __real@40006060            10101928     mathlib:color_conversion.obj
 0003:0000292c       __real@3d802008            1010192c     mathlib:color_conversion.obj
 0003:00002930       __real@3e002008            10101930     mathlib:color_conversion.obj
 0003:00002934       __real@40806060            10101934     mathlib:color_conversion.obj
 0003:00002938       __real@3f008081            10101938     mathlib:color_conversion.obj
 0003:0000293c       __real@3f006060            1010193c     mathlib:color_conversion.obj
 0003:00002940       __real@447fc000            10101940     mathlib:color_conversion.obj
 0003:00002948       __real@3f50000000000000    10101948     mathlib:color_conversion.obj
 0003:00002954       __real@3e800000            10101954     mathlib:color_conversion.obj
 0003:00002958       __real@406fe00000000000    10101958     mathlib:color_conversion.obj
 0003:00002968       __real@3fec000000000000    10101968     mathlib:color_conversion.obj
 0003:00002978       __real@3f50040100401004    10101978     mathlib:color_conversion.obj
 0003:00002984       __real@3b808081            10101984     mathlib:color_conversion.obj
 0003:00002988       __real@3fc0000000000000    10101988     mathlib:color_conversion.obj
 0003:00002998       __real@3fb3333333333333    10101998     mathlib:color_conversion.obj
 0003:000029a4       __real@3d4ccccd            101019a4     mathlib:color_conversion.obj
 0003:000029a8       __real@3e000000            101019a8     mathlib:color_conversion.obj
 0003:000029b0       __real@358637bd            101019b0     mathlib:vmatrix.obj
 0003:000029c0       __mask@@AbsFloat@          101019c0     mathlib:vmatrix.obj
 0003:000029d4       __real@3c23d70a            101019d4     mathlib:vmatrix.obj
 0003:000029d8       __real@3c8efa35            101019d8     mathlib:vmatrix.obj
 0003:000029dc       __real@42652ee1            101019dc     mathlib:vmatrix.obj
 0003:000029e0       __real@3a83126f            101019e0     mathlib:vmatrix.obj
 0003:000029e8       __real@3fd45f306dc9c883    101019e8     mathlib:vmatrix.obj
 0003:000029f4       __real@43340000            101019f4     mathlib:vmatrix.obj
 0003:000029f8       __real@3f50624dd2f1a9fc    101019f8     mathlib:vmatrix.obj
 0003:00002a08       __real@bf50624dd2f1a9fc    10101a08     mathlib:vmatrix.obj
 0003:00002a18       __real@3f91df46a2529d39    10101a18     mathlib:vmatrix.obj
 0003:00002a28       __real@3ff0000000000000    10101a28     mathlib:vmatrix.obj
 0003:00002a38       __real@4000000000000000    10101a38     mathlib:vmatrix.obj
 0003:00002a48       __real@3f81df46a2529d39    10101a48     mathlib:vmatrix.obj
 0003:00002a54       __real@c0000000            10101a54     mathlib:vmatrix.obj
 0003:00002a5c       ?nanmask@@3HB              10101a5c     mathlib:mathlib_base.obj
 0003:00002a64       __real@34000000            10101a64     mathlib:mathlib_base.obj
 0003:00002a68       __real@3bb40000            10101a68     mathlib:mathlib_base.obj
 0003:00002a6c       __real@43360b61            10101a6c     mathlib:mathlib_base.obj
 0003:00002a70       __real@3f9921fb54442d18    10101a70     mathlib:mathlib_base.obj
 0003:00002a80       __real@3eb0c6f7a0b5ed8d    10101a80     mathlib:mathlib_base.obj
 0003:00002a8c       __real@43b40000            10101a8c     mathlib:mathlib_base.obj
 0003:00002a90       __real@42b40000            10101a90     mathlib:mathlib_base.obj
 0003:00002a94       __real@43870000            10101a94     mathlib:mathlib_base.obj
 0003:00002a98       __real@4330000000000000    10101a98     mathlib:mathlib_base.obj
 0003:00002aa8       __real@8000000000000000    10101aa8     mathlib:mathlib_base.obj
 0003:00002ab8       __real@0000000000000000    10101ab8     mathlib:mathlib_base.obj
 0003:00002ac4       __real@ff7fffff            10101ac4     mathlib:mathlib_base.obj
 0003:00002ac8       __real@40800000            10101ac8     mathlib:mathlib_base.obj
 0003:00002acc       __real@bfb8aa65            10101acc     mathlib:mathlib_base.obj
 0003:00002ad0       __real@3fe0000000000000    10101ad0     mathlib:mathlib_base.obj
 0003:00002ae0       __real@400921fb54442d18    10101ae0     mathlib:mathlib_base.obj
 0003:00002af0       __real@3ff921fb54442d18    10101af0     mathlib:mathlib_base.obj
 0003:00002afc       __real@3727c5ac            10101afc     mathlib:mathlib_base.obj
 0003:00002b00       __real@c0a00000            10101b00     mathlib:mathlib_base.obj
 0003:00002b04       __real@c0400000            10101b04     mathlib:mathlib_base.obj
 0003:00002b08       __real@bf000000            10101b08     mathlib:mathlib_base.obj
 0003:00002b0c       __real@3fc00000            10101b0c     mathlib:mathlib_base.obj
 0003:00002b10       __real@3e2aaaab            10101b10     mathlib:mathlib_base.obj
 0003:00002b14       __real@40a00000            10101b14     mathlib:mathlib_base.obj
 0003:00002b18       __real@40500000            10101b18     mathlib:mathlib_base.obj
 0003:00002b1c       __real@be800000            10101b1c     mathlib:mathlib_base.obj
 0003:00002b20       __real@40c00000            10101b20     mathlib:mathlib_base.obj
 0003:00002b24       __real@3f2aaaab            10101b24     mathlib:mathlib_base.obj
 0003:00002b28       __real@c0c00000            10101b28     mathlib:mathlib_base.obj
 0003:00002b2c       __real@3f4ccccd            10101b2c     mathlib:mathlib_base.obj
 0003:00002b30       __real@3f400000            10101b30     mathlib:mathlib_base.obj
 0003:00002b34       ??_C@_0BL@KENLNLMD@SSE?5and?5SSE2?5are?5required?4?$AA@ 10101b34     mathlib:mathlib_base.obj
 0003:00002b54       __real@c3340000            10101b54     mathlib:mathlib_base.obj
 0003:00002b58       __real@4076800000000000    10101b58     mathlib:mathlib_base.obj
 0003:00002b64       __real@c6800000            10101b64     mathlib:mathlib_base.obj
 0003:00002b68       __real@43330000            10101b68     mathlib:mathlib_base.obj
 0003:00002b70       __real@3d719799812dea11    10101b70     mathlib:mathlib_base.obj
 0003:00002b7c       __real@42700000            10101b7c     mathlib:mathlib_base.obj
 0003:00002b80       __real@3c888889            10101b80     mathlib:mathlib_base.obj
 0003:00002b88       __real@3fd5555560000000    10101b88     mathlib:mathlib_base.obj
 0003:00002b98       __real@401921fb54442d18    10101b98     mathlib:mathlib_base.obj
 0003:00002ba4       __real@38000100            10101ba4     mathlib:mathlib_base.obj
 0003:00002ba8       __real@3f800001            10101ba8     mathlib:mathlib_base.obj
 0003:00002bb0       __real@3fa999999999999a    10101bb0     mathlib:mathlib_base.obj
 0003:00002bd0       ?Four_PointFives@@3T__m128@@B 10101bd0     mathlib:sseconst.obj
 0003:00002be0       ?Four_Zeros@@3T__m128@@B   10101be0     mathlib:sseconst.obj
 0003:00002bf0       ?Four_Ones@@3T__m128@@B    10101bf0     mathlib:sseconst.obj
 0003:00002c00       ?Four_Twos@@3T__m128@@B    10101c00     mathlib:sseconst.obj
 0003:00002c10       ?Four_Threes@@3T__m128@@B  10101c10     mathlib:sseconst.obj
 0003:00002c20       ?Four_Fours@@3T__m128@@B   10101c20     mathlib:sseconst.obj
 0003:00002c30       ?Four_Origin@@3T__m128@@B  10101c30     mathlib:sseconst.obj
 0003:00002c40       ?Four_NegativeOnes@@3T__m128@@B 10101c40     mathlib:sseconst.obj
 0003:00002c50       ?Four_2ToThe21s@@3T__m128@@B 10101c50     mathlib:sseconst.obj
 0003:00002c60       ?Four_2ToThe22s@@3T__m128@@B 10101c60     mathlib:sseconst.obj
 0003:00002c70       ?Four_2ToThe23s@@3T__m128@@B 10101c70     mathlib:sseconst.obj
 0003:00002c80       ?Four_2ToThe24s@@3T__m128@@B 10101c80     mathlib:sseconst.obj
 0003:00002c90       ?Four_Thirds@@3T__m128@@B  10101c90     mathlib:sseconst.obj
 0003:00002ca0       ?Four_TwoThirds@@3T__m128@@B 10101ca0     mathlib:sseconst.obj
 0003:00002cb0       ?Four_Point225s@@3T__m128@@B 10101cb0     mathlib:sseconst.obj
 0003:00002cc0       ?Four_Epsilons@@3T__m128@@B 10101cc0     mathlib:sseconst.obj
 0003:00002cd0       ?Four_FLT_MAX@@3T__m128@@B 10101cd0     mathlib:sseconst.obj
 0003:00002ce0       ?Four_Negative_FLT_MAX@@3T__m128@@B 10101ce0     mathlib:sseconst.obj
 0003:00002cf0       ?g_SIMD_0123@@3T__m128@@B  10101cf0     mathlib:sseconst.obj
 0003:00002d00       ?g_SIMD_clear_signmask@@3QBHB 10101d00     mathlib:sseconst.obj
 0003:00002d10       ?g_SIMD_signmask@@3QBHB    10101d10     mathlib:sseconst.obj
 0003:00002d20       ?g_SIMD_lsbmask@@3QBHB     10101d20     mathlib:sseconst.obj
 0003:00002d30       ?g_SIMD_clear_wmask@@3QBHB 10101d30     mathlib:sseconst.obj
 0003:00002d40       ?g_SIMD_AllOnesMask@@3QBHB 10101d40     mathlib:sseconst.obj
 0003:00002d50       ?g_SIMD_Low16BitsMask@@3QBHB 10101d50     mathlib:sseconst.obj
 0003:00002d60       ?g_SIMD_ComponentMask@@3QAY03$$CBHA 10101d60     mathlib:sseconst.obj
 0003:00002da0       ?g_SIMD_SkipTailMask@@3QAY03$$CBHA 10101da0     mathlib:sseconst.obj
 0003:00002de0       ?g_SIMD_EveryOtherMask@@3QBHB 10101de0     mathlib:sseconst.obj
 0003:00002e68       __real@41f0000000000000    10101e68     mathlib:randsse.obj
 0003:00002e78       __real@3ef0000000000000    10101e78     mathlib:randsse.obj
 0003:00002e84       ??_C@_0DO@JEGLGEMI@tint?5value?5to?5be?5applied?5when?5ru@ 10101e84     shaderlib:BaseShader.obj
 0003:00002ed0       ??_C@_09DFNDCFLK@$srgbtint?$AA@ 10101ed0     shaderlib:BaseShader.obj
 0003:00002edc       ??_C@_06KEONFOCA@color2?$AA@ 10101edc     shaderlib:BaseShader.obj
 0003:00002ee4       ??_C@_07CBJPDCJL@$color2?$AA@ 10101ee4     shaderlib:BaseShader.obj
 0003:00002ef0       ??_C@_0CA@FNHEODEF@Animation?5Frame?5for?5$flashlight?$AA@ 10101ef0     shaderlib:BaseShader.obj
 0003:00002f18       ??_C@_0BI@FBLAAOOF@$flashlighttextureframe?$AA@ 10101f18     shaderlib:BaseShader.obj
 0003:00002f34       ??_C@_0CD@IJMMJMM@flashlight?5spotlight?5shape?5textu@ 10101f34     shaderlib:BaseShader.obj
 0003:00002f60       ??_C@_0BD@OEFGBNBD@$flashlighttexture?$AA@ 10101f60     shaderlib:BaseShader.obj
 0003:00002f78       ??_C@_0CO@CGOPOACG@center?5?45?5?45?5scale?51?51?5rotate?50?5@ 10101f78     shaderlib:BaseShader.obj
 0003:00002fb0       ??_C@_0CA@IPALKODP@Base?5Texture?5Texcoord?5Transform?$AA@ 10101fb0     shaderlib:BaseShader.obj
 0003:00002fd8       ??_C@_0BG@CPMMPAAK@$basetexturetransform?$AA@ 10101fd8     shaderlib:BaseShader.obj
 0003:00002ff4       ??_C@_0BA@IPLPKCPL@Animation?5Frame?$AA@ 10101ff4     shaderlib:BaseShader.obj
 0003:00003008       ??_C@_06NPMBDFBB@$frame?$AA@ 10102008     shaderlib:BaseShader.obj
 0003:00003010       ??_C@_0BH@JAMKOLPG@shadertest?1BaseTexture?$AA@ 10102010     shaderlib:BaseShader.obj
 0003:0000302c       ??_C@_0CE@NAOMCFML@Base?5Texture?5with?5lighting?5built@ 1010202c     shaderlib:BaseShader.obj
 0003:00003058       ??_C@_0N@NEFMJPPI@$basetexture?$AA@ 10102058     shaderlib:BaseShader.obj
 0003:00003068       ??_C@_03HLLJOCDO@1?40?$AA@ 10102068     shaderlib:BaseShader.obj
 0003:0000306c       ??_C@_05IAEKHIAN@alpha?$AA@ 1010206c     shaderlib:BaseShader.obj
 0003:00003074       ??_C@_06JHBGBLFP@$alpha?$AA@ 10102074     shaderlib:BaseShader.obj
 0003:0000307c       ??_C@_07INOGPGGA@?$FL1?51?51?$FN?$AA@ 1010207c     shaderlib:BaseShader.obj
 0003:00003088       ??_C@_05PEENBMOG@color?$AA@ 10102088     shaderlib:BaseShader.obj
 0003:00003090       ??_C@_06ODBBHPLE@$color?$AA@ 10102090     shaderlib:BaseShader.obj
 0003:00003098       ??_C@_0P@JEJGAOCB@flags2_defined?$AA@ 10102098     shaderlib:BaseShader.obj
 0003:000030ac       ??_C@_0BA@GAJLMDIE@$flags_defined2?$AA@ 101020ac     shaderlib:BaseShader.obj
 0003:000030c0       ??_C@_06EMKHIFEA@flags2?$AA@ 101020c0     shaderlib:BaseShader.obj
 0003:000030c8       ??_C@_07MJNFOJPL@$flags2?$AA@ 101020c8     shaderlib:BaseShader.obj
 0003:000030d4       ??_C@_0O@OHELCBMC@flags_defined?$AA@ 101020d4     shaderlib:BaseShader.obj
 0003:000030e4       ??_C@_0P@ODJKAABP@$flags_defined?$AA@ 101020e4     shaderlib:BaseShader.obj
 0003:000030f8       ??_C@_05GECEPKB@flags?$AA@ 101020f8     shaderlib:BaseShader.obj
 0003:00003100       ??_C@_06BBBOCMPD@$flags?$AA@ 10102100     shaderlib:BaseShader.obj
 0003:00003114       ??_7CBaseShader@@6B@       10102114     shaderlib:BaseShader.obj
 0003:00003160       ??_7IShader@@6B@           10102160     shaderlib:BaseShader.obj
 0003:000031a0       ??_C@_0EG@HPKDEHFG@d?3?2theklaxon?2emulsion?9sdk?2src?2ma@ 101021a0     shaderlib:BaseShader.obj
 0003:000031f8       ??_7CPerInstanceContextData@@6B@ 101021f8     shaderlib:BaseShader.obj
 0003:00003204       ??_7CBasePerInstanceContextData@@6B@ 10102204     shaderlib:BaseShader.obj
 0003:0000320c       __real@42000000            1010220c     shaderlib:BaseShader.obj
 0003:00003214       ?INVALID_INDEX@?$CUtlMemory@PBUShaderComboSemantics_t@@H@@2HB 10102214     shaderlib:ShaderDLL.obj
 0003:00003218       ?INVALID_INDEX@?$CUtlMemory@PAVIShader@@H@@2HB 10102218     shaderlib:ShaderDLL.obj
 0003:00003220       ??_C@_0EF@BGJHAKJ@d?3?2theklaxon?2emulsion?9sdk?2src?2ma@ 10102220     shaderlib:ShaderDLL.obj
 0003:00003274       __real@400ccccd            10102274     shaderlib:ShaderDLL.obj
 0003:0000327c       ??_7CShaderDLL@@6BIShaderDLL@@@ 1010227c     shaderlib:ShaderDLL.obj
 0003:0000328c       ??_7CShaderDLL@@6BIShaderDLLInternal@@@ 1010228c     shaderlib:ShaderDLL.obj
 0003:000032b8       ??_7IShaderDLLInternal@@6B@ 101022b8     shaderlib:ShaderDLL.obj
 0003:000032d0       ??_7IShaderDLL@@6B@        101022d0     shaderlib:ShaderDLL.obj
 0003:000032dc       ??_C@_0BA@ICDFCBDO@ShaderSystem002?$AA@ 101022dc     shaderlib:ShaderDLL.obj
 0003:000032f0       ??_C@_0BJ@PPMLNMML@VMaterialSystemConfig004?$AA@ 101022f0     shaderlib:ShaderDLL.obj
 0003:00003310       ??_C@_0CA@DFPNNCGF@MaterialSystemHardwareConfig013?$AA@ 10102310     shaderlib:ShaderDLL.obj
 0003:00003338       ??_C@_0N@OBPFIHDD@ShaderDLL004?$AA@ 10102338     shaderlib:ShaderDLL.obj
 0003:0000334c       ??_7CShaderLibConVarAccessor@@6B@ 1010234c     shaderlib:shaderlib_cvar.obj
 0003:00003358       ??_7IConCommandBaseAccessor@@6B@ 10102358     shaderlib:shaderlib_cvar.obj
 0003:0000382c       ??_C@_08HDEJNBCC@ss_added?$AA@ 1010282c     tier1:convar.obj
 0003:00003838       ??_C@_02FCBLNKNB@ss?$AA@   10102838     tier1:convar.obj
 0003:0000383c       ??_C@_04CCHAHKJA@user?$AA@ 1010283c     tier1:convar.obj
 0003:00003844       ??_C@_0BG@HMGMADBK@clientcmd_can_execute?$AA@ 10102844     tier1:convar.obj
 0003:00003860       ??_C@_0BD@OPIELDHG@server_can_execute?$AA@ 10102860     tier1:convar.obj
 0003:00003878       ??_C@_0L@ONNDKGKI@replicated?$AA@ 10102878     tier1:convar.obj
 0003:00003888       ??_C@_05GHKBAFPA@cheat?$AA@ 10102888     tier1:convar.obj
 0003:00003890       ??_C@_0N@JKDKMKHL@notconnected?$AA@ 10102890     tier1:convar.obj
 0003:000038a0       ??_C@_0N@CDKFDNKI@singleplayer?$AA@ 101028a0     tier1:convar.obj
 0003:000038b0       ??_C@_06LIGDCBBN@notify?$AA@ 101028b0     tier1:convar.obj
 0003:000038b8       ??_C@_07NEJBDDEA@archive?$AA@ 101028b8     tier1:convar.obj
 0003:000038c4       ??_C@_06DGDLPBAN@client?$AA@ 101028c4     tier1:convar.obj
 0003:000038cc       ??_C@_04MJNAPEEI@game?$AA@ 101028cc     tier1:convar.obj
 0003:000038d4       ?INVALID_INDEX@?$CUtlMemory@VCUtlString@@H@@2HB 101028d4     tier1:convar.obj
 0003:000038d8       ??_C@_0BG@FHJDLLKG@FCVAR_NEVER_AS_STRING?$AA@ 101028d8     tier1:convar.obj
 0003:000038f8       ??_7ConCommandBase@@6B@    101028f8     tier1:convar.obj
 0003:0000393c       ??_7ConCommand@@6B@        1010293c     tier1:convar.obj
 0003:00003988       ??_7IConVar@@6B@           10102988     tier1:convar.obj
 0003:000039b0       ??_C@_0M@EBMLABJH@?$CFi?5?$CFi?5?$CFi?5?$CFi?$AA@ 101029b0     tier1:convar.obj
 0003:000039c0       ??_C@_02NJPGOMH@?$CFf?$AA@ 101029c0     tier1:convar.obj
 0003:000039c4       ??_C@_0DC@BPEMDMOJ@Warning?3?5?5?$CFs?5?$DN?5?8?$CFs?8?5is?5infinite?0@ 101029c4     tier1:convar.obj
 0003:00003a00       ??_C@_02DPKJAMEF@?$CFd?$AA@ 10102a00     tier1:convar.obj
 0003:00003a04       ??_C@_04HGGBINEM@?$CFs?$CFd?$AA@ 10102a04     tier1:convar.obj
 0003:00003a0c       ??_C@_03EEBNCBOD@?5?$CFs?$AA@ 10102a0c     tier1:convar.obj
 0003:00003a10       ??_C@_06IJAGBFDH@?$CF?980s?6?$AA@ 10102a10     tier1:convar.obj
 0003:00003a18       ??_C@_0P@GPPHALFA@?$CF?980s?5?9?5?$CF?480s?6?$AA@ 10102a18     tier1:convar.obj
 0003:00003a2c       ??_C@_05NKLPODEL@?$CC?$CFs?$CC?5?$AA@ 10102a2c     tier1:convar.obj
 0003:00003a34       ??_C@_0BP@NJMLFLDN@?5?$FL?$CF?43f?5server?5clamped?5to?5?$CF?43f?$FN?$AA@ 10102a34     tier1:convar.obj
 0003:00003a5c       __real@38d1b717            10102a5c     tier1:convar.obj
 0003:00003a60       ??_C@_08MJLLGCBE@?5max?4?5?$CFf?$AA@ 10102a60     tier1:convar.obj
 0003:00003a6c       ??_C@_08CPNLMNPF@?5min?4?5?$CFf?$AA@ 10102a6c     tier1:convar.obj
 0003:00003a78       ??_C@_0P@EPMAFFFB@?5?$CI?5def?4?5?$CC?$CFs?$CC?5?$CJ?$AA@ 10102a78     tier1:convar.obj
 0003:00003a8c       ??_C@_0M@NMBENLGP@?$CC?$CFs?$CC?5?$DN?5?$CC?$CFs?$CC?$AA@ 10102a8c     tier1:convar.obj
 0003:00003aa0       ??_7CDefaultAccessor@@6B@  10102aa0     tier1:convar.obj
 0003:00003aa8       ??_C@_06PGALACC@?$HL?$HN?$CI?$CJ?8?3?$AA@ 10102aa8     tier1:convar.obj
 0003:00003ab0       ??_C@_0DC@FCCBDICF@ConVarRef?5?$CFs?5doesn?8t?5point?5to?5an@ 10102ab0     tier1:convar.obj
 0003:00003af0       ??_C@_0FI@KPCNOHIM@CCommand?3?3Tokenize?3?5Encountered?5@ 10102af0     tier1:convar.obj
 0003:00003b60       ??_C@_0FK@JGFIGFJD@CCommand?3?3Tokenize?3?5Encountered?5@ 10102b60     tier1:convar.obj
 0003:00003bd0       ??_7ConVar@@6BIConVar@@@   10102bd0     tier1:convar.obj
 0003:00003bfc       ??_7ConVar@@6BConCommandBase@@@ 10102bfc     tier1:convar.obj
 0003:00003c58       ??_C@_0DN@BPHDDJLF@InstallChangeCallback?5ignoring?5d@ 10102c58     tier1:convar.obj
 0003:00003ca4       ??_C@_0DO@KEMKBFA@InstallChangeCallback?5called?5wit@ 10102ca4     tier1:convar.obj
 0003:00003cf0       ??_C@_0DD@BMOCNE@ConVar?$CI?$CFs?$CJ?5defined?5with?5infinite@ 10102cf0     tier1:convar.obj
 0003:00003d34       ??_7CEmptyConVar@@6BIConVar@@@ 10102d34     tier1:convar.obj
 0003:00003d64       ??_7CEmptyConVar@@6BConCommandBase@@@ 10102d64     tier1:convar.obj
 0003:00003dc0       ??_C@_0CH@DNILKGJA@V_AppendSlash?3?5ran?5out?5of?5space?5@ 10102dc0     tier1:strtools.obj
 0003:00003df0       __real@3fb999999999999a    10102df0     tier1:strtools.obj
 0003:00003e00       __real@4050400000000000    10102e00     tier1:strtools.obj
 0003:00003e10       __real@4024000000000000    10102e10     tier1:strtools.obj
 0003:00003e20       __real@4058400000000000    10102e20     tier1:strtools.obj
 0003:00003e30       __real@4048000000000000    10102e30     tier1:strtools.obj
 0003:00003e40       __real@4030000000000000    10102e40     tier1:strtools.obj
 0003:00003e4c       ??_C@_01CLKCMJKC@?5?$AA@   10102e4c     tier1:strtools.obj
 0003:00003e50       ??_C@_01LFCBOECM@?4?$AA@   10102e50     tier1:strtools.obj
 0003:00003e54       ??_C@_08BIBOIFBG@?$CF?$CF?4?$CFif?$CFs?$AA@ 10102e54     tier1:strtools.obj
 0003:00003e60       ??_C@_04EMEGLOCB@?$CFi?$CFs?$AA@ 10102e60     tier1:strtools.obj
 0003:00003e68       __real@3ee4f8b588e368f1    10102e68     tier1:strtools.obj
 0003:00003e74       ??_C@_06LCIDCBMH@?5bytes?$AA@ 10102e74     tier1:strtools.obj
 0003:00003e7c       ??_C@_03MAAJMAHL@?5KB?$AA@ 10102e7c     tier1:strtools.obj
 0003:00003e80       ??_C@_03MEIELMMJ@?5MB?$AA@ 10102e80     tier1:strtools.obj
 0003:00003e84       __real@447a0000            10102e84     tier1:strtools.obj
 0003:00003e88       ??_C@_04OHGLKFFN@?$CF03d?$AA@ 10102e88     tier1:strtools.obj
 0003:00003e90       ??_C@_05CMAMCNEC@?$CF03d?0?$AA@ 10102e90     tier1:strtools.obj
 0003:00003e98       ??_C@_03DPLIHHLN@?$CFd?0?$AA@ 10102e98     tier1:strtools.obj
 0003:00003e9c       ??_C@_01JOAMLHOP@?9?$AA@   10102e9c     tier1:strtools.obj
 0003:00003ea0       ??_C@_04NOJCDH@?$CF02x?$AA@ 10102ea0     tier1:strtools.obj
 0003:00003ea8       ??_C@_03OOAAEEIB@?4?$CFc?$AA@ 10102ea8     tier1:strtools.obj
 0003:00003eac       ??_C@_02CEGDFPFP@?4?2?$AA@ 10102eac     tier1:strtools.obj
 0003:00003eb0       ??_C@_02CAHBHFGK@?4?1?$AA@ 10102eb0     tier1:strtools.obj
 0003:00003eb4       ??_C@_0DB@FOILCOJM@V_MakeAbsolutePath?3?5tried?5to?5?$CC?4?4@ 10102eb4     tier1:strtools.obj
 0003:00003ef0       ??_C@_0CE@INIPJBEP@V_MakeAbsolutePath?3?5_getcwd?5fail@ 10102ef0     tier1:strtools.obj
 0003:00003f1c       ??_C@_0P@GHFPNOJB@bad?5allocation?$AA@ 10102f1c     tier1:interface.obj
 0003:00003f30       ??_C@_04HLONOPDM@?4dll?$AA@ 10102f30     tier1:interface.obj
 0003:00003f38       ??_C@_03GBJHGNO@_ds?$AA@   10102f38     tier1:interface.obj
 0003:00003f3c       ??_C@_03MHCPBOMJ@?9ds?$AA@ 10102f3c     tier1:interface.obj
 0003:00003f40       ??_C@_05HCDPKIDE@_xlsp?$AA@ 10102f40     tier1:interface.obj
 0003:00003f48       ??_C@_05DENFAEPO@?9xlsp?$AA@ 10102f48     tier1:interface.obj
 0003:00003f50       ??_C@_0BI@PCKJMKNF@VALVE?9MODULE?9DEBUG?9?$CF08X?$AA@ 10102f50     tier1:interface.obj
 0003:00003f6c       ??_C@_0BM@OIEJAJOK@Module?5?$CFs?5is?5a?5debug?5build?6?$AA@ 10102f6c     tier1:interface.obj
 0003:00003f90       ??_C@_0M@OJHILNKA@?9allowdebug?$AA@ 10102f90     tier1:interface.obj
 0003:00003fa0       ??_C@_0L@EJCNAOMG@BuiltDebug?$AA@ 10102fa0     tier1:interface.obj
 0003:00003fb0       ??_C@_05GFOLEBJA@?$CFs?1?$CFs?$AA@ 10102fb0     tier1:interface.obj
 0003:00003fb8       ??_C@_09ILGMALND@?$CFs?1bin?1?$CFs?$AA@ 10102fb8     tier1:interface.obj
 0003:00003fc4       ??_C@_04MMFEEKAB@bin?1?$AA@ 10102fc4     tier1:interface.obj
 0003:00003fcc       ??_C@_0BA@OBHPCBFP@CreateInterface?$AA@ 10102fcc     tier1:interface.obj
 0003:00003fe4       ??_7CDllDemandLoader@@6B@  10102fe4     tier1:interface.obj
 0003:00003fec       ??_C@_03CCCGLAML@?$CFlg?$AA@ 10102fec     tier1:utlstring.obj
 0003:00003ff0       ??_C@_01BJJEKLCA@?$CC?$AA@ 10102ff0     tier1:utlbuffer.obj
 0003:00003ff4       ??_C@_01GEODFPGF@?8?$AA@   10102ff4     tier1:utlbuffer.obj
 0003:00003ff8       ??_C@_01OGPIMHDM@?$DP?$AA@ 10102ff8     tier1:utlbuffer.obj
 0003:00003ffc       ??_C@_01KICIPPFI@?2?$AA@   10102ffc     tier1:utlbuffer.obj
 0003:00004000       ??_C@_01MCMALHOG@a?$AA@    10103000     tier1:utlbuffer.obj
 0003:00004004       ??_C@_01INIBCBCB@f?$AA@    10103004     tier1:utlbuffer.obj
 0003:00004008       ??_C@_01KDCPPGHE@r?$AA@    10103008     tier1:utlbuffer.obj
 0003:0000400c       ??_C@_01OJONOECF@b?$AA@    1010300c     tier1:utlbuffer.obj
 0003:00004010       ??_C@_01MHEDDDHA@v?$AA@    10103010     tier1:utlbuffer.obj
 0003:00004014       ??_C@_01PFHFFBPC@t?$AA@    10103014     tier1:utlbuffer.obj
 0003:00004018       ??_C@_01EFFIKLCJ@n?$AA@    10103018     tier1:utlbuffer.obj
 0003:00004020       ??_7CUtlCharConversion@@6B@ 10103020     tier1:utlbuffer.obj
 0003:0000402c       ??_7CUtlNoEscConversion@@6B@ 1010302c     tier1:utlbuffer.obj
 0003:00004038       ??_7CUtlCStringConversion@@6B@ 10103038     tier1:utlbuffer.obj
 0003:00004040       ??_C@_02PCIJFNDE@?$AN?6?$AA@ 10103040     tier1:utlbuffer.obj
 0003:00004048       ??_7type_info@@6B@         10103048     LIBCMTD:typinfo.obj
 0003:00004050       __FPinit                   10103050     LIBCMTD:_fpinit_.obj
 0003:00004060       __OP_FMODjmptab            10103060     LIBCMTD:_87fmod_.obj
 0003:000040c0       ??_C@_0DA@HMCPFNKN@f?3?2dd?2vctools?2crt_bld?2self_x86?2c@ 101030c0     LIBCMTD:onexit.obj
 0003:000040fc       ?ProcessDetach@NativeDll@<CrtImplementationDetails>@@0IB 101030fc     LIBCMTD:tncleanup.obj
 0003:00004100       ?ProcessAttach@NativeDll@<CrtImplementationDetails>@@0IB 10103100     LIBCMTD:tncleanup.obj
 0003:00004104       ?ThreadAttach@NativeDll@<CrtImplementationDetails>@@0IB 10103104     LIBCMTD:tncleanup.obj
 0003:00004108       ?ThreadDetach@NativeDll@<CrtImplementationDetails>@@0IB 10103108     LIBCMTD:tncleanup.obj
 0003:0000410c       ?ProcessVerifier@NativeDll@<CrtImplementationDetails>@@0IB 1010310c     LIBCMTD:tncleanup.obj
 0003:00004110       ??_C@_1O@GKDHFACN@?$AAp?$AAr?$AAi?$AAn?$AAt?$AAf?$AA?$AA@ 10103110     LIBCMTD:printf.obj
 0003:00004120       ??_C@_1GA@LHEGHOAF@?$AAf?$AA?3?$AA?2?$AAd?$AAd?$AA?2?$AAv?$AAc?$AAt?$AAo?$AAo?$AAl?$AAs?$AA?2?$AAc?$AAr?$AAt?$AA_?$AAb?$AAl?$AAd?$AA?2?$AAs?$AAe?$AAl?$AAf?$AA_?$AAx?$AA8?$AA6?$AA?2?$AAc@ 10103120     LIBCMTD:printf.obj
 0003:00004194       ??_C@_1CC@MGIEJOME@?$AA?$CI?$AAf?$AAo?$AAr?$AAm?$AAa?$AAt?$AA?5?$AA?$CB?$AA?$DN?$AA?5?$AAN?$AAU?$AAL?$AAL?$AA?$CJ?$AA?$AA@ 10103194     LIBCMTD:printf.obj
 0003:000041bc       __pRawDllMain              101031bc     LIBCMTD:dllcrt0.obj
 0003:000041bc       __pDefaultRawDllMain       101031bc     LIBCMTD:dllcrt0.obj
 0003:000041c0       ??_C@_0DB@OLNOAEGF@f?3?2dd?2vctools?2crt_bld?2self_x86?2c@ 101031c0     LIBCMTD:dllcrt0.obj
 0003:00011abc       ??_7bad_alloc@std@@6B@     10110abc     LIBCMTD:dbgnew.obj
 0003:00011ac8       ??_C@_1GE@BDAODJCD@?$AAf?$AA?3?$AA?2?$AAd?$AAd?$AA?2?$AAv?$AAc?$AAt?$AAo?$AAo?$AAl?$AAs?$AA?2?$AAc?$AAr?$AAt?$AA_?$AAb?$AAl?$AAd?$AA?2?$AAs?$AAe?$AAl?$AAf?$AA_?$AAx?$AA8?$AA6?$AA?2?$AAc@ 10110ac8     LIBCMTD:dbgdel.obj
 0003:00011b40       ??_C@_1EO@LHDAJOCM@?$AA_?$AAB?$AAL?$AAO?$AAC?$AAK?$AA_?$AAT?$AAY?$AAP?$AAE?$AA_?$AAI?$AAS?$AA_?$AAV?$AAA?$AAL?$AAI?$AAD?$AA?$CI?$AAp?$AAH?$AAe?$AAa?$AAd?$AA?9?$AA?$DO?$AAn?$AAB?$AAl?$AAo@ 10110b40     LIBCMTD:dbgdel.obj
 0003:00011ba0       ??_C@_1BC@KMGJCMNP@?$AAv?$AAs?$AAc?$AAa?$AAn?$AA_?$AAf?$AAn?$AA?$AA@ 10110ba0     LIBCMTD:sscanf.obj
 0003:00011bb8       ??_C@_1GA@GDIHGGDN@?$AAf?$AA?3?$AA?2?$AAd?$AAd?$AA?2?$AAv?$AAc?$AAt?$AAo?$AAo?$AAl?$AAs?$AA?2?$AAc?$AAr?$AAt?$AA_?$AAb?$AAl?$AAd?$AA?2?$AAs?$AAe?$AAl?$AAf?$AA_?$AAx?$AA8?$AA6?$AA?2?$AAc@ 10110bb8     LIBCMTD:sscanf.obj
 0003:00011c2c       ??_C@_1CC@OLIJCKA@?$AA?$CI?$AAs?$AAt?$AAr?$AAi?$AAn?$AAg?$AA?5?$AA?$CB?$AA?$DN?$AA?5?$AAN?$AAU?$AAL?$AAL?$AA?$CJ?$AA?$AA@ 10110c2c     LIBCMTD:sscanf.obj
 0003:00011c54       ??_C@_1BA@NJCJMLHI@?$AA_?$AAa?$AAt?$AAo?$AAf?$AA_?$AAl?$AA?$AA@ 10110c54     LIBCMTD:atof.obj
 0003:00011c68       ??_C@_1FM@HAAJIFE@?$AAf?$AA?3?$AA?2?$AAd?$AAd?$AA?2?$AAv?$AAc?$AAt?$AAo?$AAo?$AAl?$AAs?$AA?2?$AAc?$AAr?$AAt?$AA_?$AAb?$AAl?$AAd?$AA?2?$AAs?$AAe?$AAl?$AAf?$AA_?$AAx?$AA8?$AA6?$AA?2?$AAc@ 10110c68     LIBCMTD:atof.obj
 0003:00011cd8       ??_C@_1BK@LAOAACLJ@?$AAn?$AAp?$AAt?$AAr?$AA?5?$AA?$CB?$AA?$DN?$AA?5?$AAN?$AAU?$AAL?$AAL?$AA?$AA@ 10110cd8     LIBCMTD:atof.obj
 0003:00011cf8       ??_C@_1EC@FABAOFFO@?$AA?$CI?$AAc?$AAo?$AAu?$AAn?$AAt?$AA?5?$AA?$DN?$AA?$DN?$AA?5?$AA0?$AA?$CJ?$AA?5?$AA?$HM?$AA?$HM?$AA?5?$AA?$CI?$AAs?$AAt?$AAr?$AAi?$AAn?$AAg?$AA?5?$AA?$CB?$AA?$DN?$AA?5?$AAN?$AAU?$AAL?$AAL?$AA?$CJ@ 10110cf8     LIBCMTD:vsnprint.obj
 0003:00011d48       ??_C@_1BK@FHMHFMNL@?$AA_?$AAv?$AAs?$AAn?$AAp?$AAr?$AAi?$AAn?$AAt?$AAf?$AA_?$AAl?$AA?$AA@ 10110d48     LIBCMTD:vsnprint.obj
 0003:00011d68       ??_C@_1GE@DPADKNCG@?$AAf?$AA?3?$AA?2?$AAd?$AAd?$AA?2?$AAv?$AAc?$AAt?$AAo?$AAo?$AAl?$AAs?$AA?2?$AAc?$AAr?$AAt?$AA_?$AAb?$AAl?$AAd?$AA?2?$AAs?$AAe?$AAl?$AAf?$AA_?$AAx?$AA8?$AA6?$AA?2?$AAc@ 10110d68     LIBCMTD:vsnprint.obj
 0003:00011de0       ??_C@_0CB@CGKGGDFI@Access?5violation?5?9?5no?5RTTI?5data?$CB@ 10110de0     LIBCMTD:rtti.obj
 0003:00011e08       ??_C@_0CB@EEENAAHH@Bad?5read?5pointer?5?9?5no?5RTTI?5data?$CB@ 10110e08     LIBCMTD:rtti.obj
 0003:00011e30       ??_C@_0CE@FFJAJLDK@Attempted?5a?5typeid?5of?5NULL?5point@ 10110e30     LIBCMTD:rtti.obj
 0003:00011e5c       ??_C@_0BC@JNJNLHBP@Bad?5dynamic_cast?$CB?$AA@ 10110e5c     LIBCMTD:rtti.obj
 0003:00011e74       ??_C@_1BK@NOHKJANJ@?$AA?$CI?$AAm?$AAa?$AAx?$AAl?$AAe?$AAn?$AA?5?$AA?$DO?$AA?5?$AA0?$AA?$CJ?$AA?$AA@ 10110e74     LIBCMTD:getcwd.obj
 0003:00011e94       ??_C@_1CA@EAHAIGAM@?$AA_?$AAg?$AAe?$AAt?$AAd?$AAc?$AAw?$AAd?$AA_?$AAl?$AAk?$AA_?$AAd?$AAb?$AAg?$AA?$AA@ 10110e94     LIBCMTD:getcwd.obj
 0003:00011ec0       ??_C@_1GA@IFOABPDF@?$AAf?$AA?3?$AA?2?$AAd?$AAd?$AA?2?$AAv?$AAc?$AAt?$AAo?$AAo?$AAl?$AAs?$AA?2?$AAc?$AAr?$AAt?$AA_?$AAb?$AAl?$AAd?$AA?2?$AAs?$AAe?$AAl?$AAf?$AA_?$AAx?$AA8?$AA6?$AA?2?$AAc@ 10110ec0     LIBCMTD:getcwd.obj
 0003:00011f34       ??_C@_1CI@ICBAMKHM@?$AA?$CI?$AA?$CC?$AAI?$AAn?$AAv?$AAa?$AAl?$AAi?$AAd?$AA?5?$AAD?$AAr?$AAi?$AAv?$AAe?$AA?$CC?$AA?0?$AA0?$AA?$CJ?$AA?$AA@ 10110f34     LIBCMTD:getcwd.obj
 0003:00011f64       ??_C@_0CP@CGEOCNHO@f?3?2dd?2vctools?2crt_bld?2self_x86?2c@ 10110f64     LIBCMTD:chdir.obj
 0003:00011f9c       ??_C@_1O@HIELJLOL@?$AA_?$AAc?$AAh?$AAd?$AAi?$AAr?$AA?$AA@ 10110f9c     LIBCMTD:chdir.obj
 0003:00011fb0       ??_C@_1FO@PDKBFEFB@?$AAf?$AA?3?$AA?2?$AAd?$AAd?$AA?2?$AAv?$AAc?$AAt?$AAo?$AAo?$AAl?$AAs?$AA?2?$AAc?$AAr?$AAt?$AA_?$AAb?$AAl?$AAd?$AA?2?$AAs?$AAe?$AAl?$AAf?$AA_?$AAx?$AA8?$AA6?$AA?2?$AAc@ 10110fb0     LIBCMTD:chdir.obj
 0003:00012020       ??_C@_1BO@DPAOGEII@?$AA?$CI?$AAp?$AAa?$AAt?$AAh?$AA?5?$AA?$CB?$AA?$DN?$AA?5?$AAN?$AAU?$AAL?$AAL?$AA?$CJ?$AA?$AA@ 10111020     LIBCMTD:chdir.obj
 0003:00012044       ??_C@_1BM@JBFIAFJJ@?$AA_?$AAv?$AAs?$AAn?$AAw?$AAp?$AAr?$AAi?$AAn?$AAt?$AAf?$AA_?$AAl?$AA?$AA@ 10111044     LIBCMTD:vsnwprnt.obj
 0003:00012068       ??_C@_1GE@KINELFI@?$AAf?$AA?3?$AA?2?$AAd?$AAd?$AA?2?$AAv?$AAc?$AAt?$AAo?$AAo?$AAl?$AAs?$AA?2?$AAc?$AAr?$AAt?$AA_?$AAb?$AAl?$AAd?$AA?2?$AAs?$AAe?$AAl?$AAf?$AA_?$AAx?$AA8?$AA6?$AA?2?$AAc@ 10111068     LIBCMTD:vsnwprnt.obj
 0003:000120e0       ??_C@_1BA@KBJJGFFE@?$AAs?$AAp?$AAr?$AAi?$AAn?$AAt?$AAf?$AA?$AA@ 101110e0     LIBCMTD:sprintf.obj
 0003:000120f8       ??_C@_1GC@BMNPEKNN@?$AAf?$AA?3?$AA?2?$AAd?$AAd?$AA?2?$AAv?$AAc?$AAt?$AAo?$AAo?$AAl?$AAs?$AA?2?$AAc?$AAr?$AAt?$AA_?$AAb?$AAl?$AAd?$AA?2?$AAs?$AAe?$AAl?$AAf?$AA_?$AAx?$AA8?$AA6?$AA?2?$AAc@ 101110f8     LIBCMTD:sprintf.obj
 0003:00012170       ??_C@_1FE@CEHLKAHD@?$AAi?$AAb?$AAa?$AAs?$AAe?$AA?5?$AA?$DN?$AA?$DN?$AA?5?$AA0?$AA?5?$AA?$HM?$AA?$HM?$AA?5?$AA?$CI?$AA2?$AA?5?$AA?$DM?$AA?$DN?$AA?5?$AAi?$AAb?$AAa?$AAs?$AAe?$AA?5?$AA?$CG?$AA?$CG?$AA?5?$AAi?$AAb?$AAa@ 10111170     LIBCMTD:strtol.obj
 0003:000121d4       ??_C@_1BA@LOLAMAJG@?$AAs?$AAt?$AAr?$AAt?$AAo?$AAx?$AAl?$AA?$AA@ 101111d4     LIBCMTD:strtol.obj
 0003:000121e8       ??_C@_1GA@IPHKKOEI@?$AAf?$AA?3?$AA?2?$AAd?$AAd?$AA?2?$AAv?$AAc?$AAt?$AAo?$AAo?$AAl?$AAs?$AA?2?$AAc?$AAr?$AAt?$AA_?$AAb?$AAl?$AAd?$AA?2?$AAs?$AAe?$AAl?$AAf?$AA_?$AAx?$AA8?$AA6?$AA?2?$AAc@ 101111e8     LIBCMTD:strtol.obj
 0003:0001225c       ??_C@_1BA@BMMDEPNE@?$AAs?$AAt?$AAr?$AAt?$AAo?$AAx?$AAq?$AA?$AA@ 1011125c     LIBCMTD:strtoq.obj
 0003:00012270       ??_C@_1GA@GIMEIKLC@?$AAf?$AA?3?$AA?2?$AAd?$AAd?$AA?2?$AAv?$AAc?$AAt?$AAo?$AAo?$AAl?$AAs?$AA?2?$AAc?$AAr?$AAt?$AA_?$AAb?$AAl?$AAd?$AA?2?$AAs?$AAe?$AAl?$AAf?$AA_?$AAx?$AA8?$AA6?$AA?2?$AAc@ 10111270     LIBCMTD:strtoq.obj
 0003:000122e4       ??_C@_1BE@KFBKGHJC@?$AA_?$AAs?$AAt?$AAr?$AAt?$AAo?$AAd?$AA_?$AAl?$AA?$AA@ 101112e4     LIBCMTD:strtod.obj
 0003:00012300       ??_C@_1GA@FMJPLFPN@?$AAf?$AA?3?$AA?2?$AAd?$AAd?$AA?2?$AAv?$AAc?$AAt?$AAo?$AAo?$AAl?$AAs?$AA?2?$AAc?$AAr?$AAt?$AA_?$AAb?$AAl?$AAd?$AA?2?$AAs?$AAe?$AAl?$AAf?$AA_?$AAx?$AA8?$AA6?$AA?2?$AAc@ 10111300     LIBCMTD:strtod.obj
 0003:00012374       ??_C@_0BP@OGBCLIBO@Stack?5around?5_alloca?5corrupted?$AA@ 10111374     LIBCMTD:_userapi_.obj
 0003:0001239c       ??_C@_0CK@CNLNOEPB@Local?5variable?5used?5before?5initi@ 1011139c     LIBCMTD:_userapi_.obj
 0003:000123d0       ??_C@_0BI@CIGMDCBH@Stack?5memory?5corruption?$AA@ 101113d0     LIBCMTD:_userapi_.obj
 0003:000123ec       ??_C@_0CK@FEGOIOPB@Cast?5to?5smaller?5type?5causing?5los@ 101113ec     LIBCMTD:_userapi_.obj
 0003:00012420       ??_C@_0BJ@HEGAHDFO@Stack?5pointer?5corruption?$AA@ 10111420     LIBCMTD:_userapi_.obj
 0003:00012458       ??_C@_0DP@CBBAPGOP@f?3?2dd?2vctools?2crt_bld?2self_x86?2c@ 10111458     LIBCMTD:chkesp.obj
 0003:000124a8       ??_C@_0NM@DNEDKLDF@The?5value?5of?5ESP?5was?5not?5properl@ 101114a8     LIBCMTD:chkesp.obj
 0003:000125b0       ??_C@_0BO@GNIAFIKK@Unknown?5Runtime?5Check?5Error?6?$AN?$AA@ 101115b0     LIBCMTD:_error_.obj
 0003:000125d4       ??_C@_0CM@NGINOKPC@Stack?5memory?5around?5_alloca?5was?5@ 101115d4     LIBCMTD:_error_.obj
 0003:00012608       ??_C@_0DG@HKJMLLLP@A?5local?5variable?5was?5used?5before@ 10111608     LIBCMTD:_error_.obj
 0003:00012648       ??_C@_0BN@FFOINMNJ@Stack?5memory?5was?5corrupted?6?$AN?$AA@ 10111648     LIBCMTD:_error_.obj
 0003:00012670       ??_C@_0BBN@GPMLNJCF@A?5cast?5to?5a?5smaller?5data?5type?5ha@ 10111670     LIBCMTD:_error_.obj
 0003:000127c8       ??_C@_0NN@NGPKDKPD@The?5value?5of?5ESP?5was?5not?5properl@ 101117c8     LIBCMTD:_error_.obj
 0003:00012990       ??_C@_0CA@IODNCDPG@Run?9Time?5Check?5Failure?5?$CD?$CFd?5?9?5?$CFs?$AA@ 10111990     LIBCMTD:_error_.obj
 0003:000129b8       ??_C@_0BE@GNBOBNCK@Unknown?5Module?5Name?$AA@ 101119b8     LIBCMTD:_error_.obj
 0003:000129d0       ??_C@_0BB@PFFGGCJP@Unknown?5Filename?$AA@ 101119d0     LIBCMTD:_error_.obj
 0003:000129e8       ??_C@_1EA@NFKNIFJP@?$AAR?$AAu?$AAn?$AA?9?$AAT?$AAi?$AAm?$AAe?$AA?5?$AAC?$AAh?$AAe?$AAc?$AAk?$AA?5?$AAF?$AAa?$AAi?$AAl?$AAu?$AAr?$AAe?$AA?5?$AA?$CD?$AA?$CF?$AAd?$AA?5?$AA?9?$AA?5?$AA?$CF?$AAs?$AA?$AA@ 101119e8     LIBCMTD:_error_.obj
 0003:00012a38       ??_C@_1GM@OLMCBDMB@?$AAR?$AAu?$AAn?$AAt?$AAi?$AAm?$AAe?$AA?5?$AAC?$AAh?$AAe?$AAc?$AAk?$AA?5?$AAE?$AAr?$AAr?$AAo?$AAr?$AA?4?$AA?6?$AA?$AN?$AA?5?$AAU?$AAn?$AAa?$AAb?$AAl?$AAe?$AA?5?$AAt?$AAo@ 10111a38     LIBCMTD:_error_.obj
 0003:00012abc       ??_C@_0CG@IAFNJNEE@Stack?5corrupted?5near?5unknown?5var@ 10111abc     LIBCMTD:_error_.obj
 0003:00012af0       ??_C@_0EJ@LJKNEOLN@Stack?5area?5around?5_alloca?5memory@ 10111af0     LIBCMTD:_error_.obj
 0003:00012b48       ??_C@_08KJEDNCKC@?$CFs?$CFs?$CFs?$CFs?$AA@ 10111b48     LIBCMTD:_error_.obj
 0003:00012b54       ??_C@_02LLMPMKNF@?$DO?5?$AA@ 10111b54     LIBCMTD:_error_.obj
 0003:00012b58       ??_C@_01EEMJAFIK@?6?$AA@   10111b58     LIBCMTD:_error_.obj
 0003:00012b5c       ??_C@_0BC@KIBAILCI@?$CFs?$CFs?$CFp?$CFs?$CFld?$CFs?$CFd?$CFs?$AA@ 10111b5c     LIBCMTD:_error_.obj
 0003:00012b78       ??_C@_0EI@CLEPFNGI@Stack?5area?5around?5_alloca?5memory@ 10111b78     LIBCMTD:_error_.obj
 0003:00012bd0       ??_C@_0N@MHFFIMFG@?6Address?3?50x?$AA@ 10111bd0     LIBCMTD:_error_.obj
 0003:00012be0       ??_C@_07DFDJCKFN@?6Size?3?5?$AA@ 10111be0     LIBCMTD:_error_.obj
 0003:00012bec       ??_C@_0CK@DKGBICFE@?6Allocation?5number?5within?5this?5f@ 10111bec     LIBCMTD:_error_.obj
 0003:00012c20       ??_C@_08OMAHNMHJ@?6Data?3?5?$DM?$AA@ 10111c20     LIBCMTD:_error_.obj
 0003:00012c2c       ??_C@_09FOPFMPEJ@wsprintfA?$AA@ 10111c2c     LIBCMTD:_error_.obj
 0003:00012c38       ??_C@_1BG@OILDLIOJ@?$AAu?$AAs?$AAe?$AAr?$AA3?$AA2?$AA?4?$AAd?$AAl?$AAl?$AA?$AA@ 10111c38     LIBCMTD:_error_.obj
 0003:00012c54       ??_C@_05MKKEDADM@?$CF?42X?5?$AA@ 10111c54     LIBCMTD:_error_.obj
 0003:00012c5c       ??_C@_0DE@OHJBPMBP@A?5variable?5is?5being?5used?5without@ 10111c5c     LIBCMTD:_error_.obj
 0003:00012ca0       ??_C@_1HG@KNCBMCDD@?$AAf?$AA?3?$AA?2?$AAd?$AAd?$AA?2?$AAv?$AAc?$AAt?$AAo?$AAo?$AAl?$AAs?$AA?2?$AAc?$AAr?$AAt?$AA_?$AAb?$AAl?$AAd?$AA?2?$AAs?$AAe?$AAl?$AAf?$AA_?$AAx?$AA8?$AA6?$AA?2?$AAc@ 10111ca0     LIBCMTD:typname.obj
 0003:00012d30       ??_C@_1CK@GELGGBDK@?$AAp?$AAN?$AAo?$AAd?$AAe?$AA?9?$AA?$DO?$AA_?$AAN?$AAe?$AAx?$AAt?$AA?5?$AA?$CB?$AA?$DN?$AA?5?$AAN?$AAU?$AAL?$AAL?$AA?$AA@ 10111d30     LIBCMTD:typname.obj
 0003:00012d68       ??_C@_1JK@NAFNEPGC@?$AAs?$AAt?$AAr?$AAc?$AAp?$AAy?$AA_?$AAs?$AA?5?$AA?$CI?$AA?$CI?$AAc?$AAh?$AAa?$AAr?$AA?5?$AA?$CK?$AA?$CJ?$AA?$CI?$AA?$CI?$AAt?$AAy?$AAp?$AAe?$AA_?$AAi?$AAn?$AAf?$AAo?$AA?5?$AA?$CK?$AA?$CJ@ 10111d68     LIBCMTD:typname.obj
 0003:00012e20       ??_C@_1CM@OOICDMK@?$AAt?$AAy?$AAp?$AAe?$AA_?$AAi?$AAn?$AAf?$AAo?$AA?3?$AA?3?$AA_?$AAN?$AAa?$AAm?$AAe?$AA_?$AAb?$AAa?$AAs?$AAe?$AA?$AA@ 10111e20     LIBCMTD:typname.obj
 0003:00012e58       ??_C@_1GI@EAJKJPED@?$AAs?$AAt?$AAr?$AAc?$AAp?$AAy?$AA_?$AAs?$AA?5?$AA?$CI?$AAp?$AAT?$AAm?$AAp?$AAT?$AAy?$AAp?$AAe?$AAN?$AAa?$AAm?$AAe?$AA?0?$AA?5?$AAl?$AAe?$AAn?$AA?$CL?$AA2?$AA?0?$AA?5?$AA?$CI@ 10111e58     LIBCMTD:typname.obj
 0003:00012ed4       ??_C@_1DO@OJJLFJPE@?$AAt?$AAy?$AAp?$AAe?$AA_?$AAi?$AAn?$AAf?$AAo?$AA?3?$AA?3?$AA_?$AAN?$AAa?$AAm?$AAe?$AA_?$AAb?$AAa?$AAs?$AAe?$AA_?$AAi?$AAn?$AAt?$AAe?$AAr?$AAn?$AAa?$AAl?$AA?$AA@ 10111ed4     LIBCMTD:typname.obj
 0003:00012f20       ??_C@_1BO@BKOMIGKJ@?$AAr?$AAu?$AAn?$AAt?$AAi?$AAm?$AAe?$AA?5?$AAe?$AAr?$AAr?$AAo?$AAr?$AA?5?$AA?$AA@ 10111f20     LIBCMTD:crt0msg.obj
 0003:00012f44       ??_C@_15JNBOKNOG@?$AA?$AN?$AA?6?$AA?$AA@ 10111f44     LIBCMTD:crt0msg.obj
 0003:00012f4c       ??_C@_1BM@JBBEPPHI@?$AAT?$AAL?$AAO?$AAS?$AAS?$AA?5?$AAe?$AAr?$AAr?$AAo?$AAr?$AA?$AN?$AA?6?$AA?$AA@ 10111f4c     LIBCMTD:crt0msg.obj
 0003:00012f70       ??_C@_1BK@KMOMNAAI@?$AAS?$AAI?$AAN?$AAG?$AA?5?$AAe?$AAr?$AAr?$AAo?$AAr?$AA?$AN?$AA?6?$AA?$AA@ 10111f70     LIBCMTD:crt0msg.obj
 0003:00012f90       ??_C@_1BO@BFCDCGC@?$AAD?$AAO?$AAM?$AAA?$AAI?$AAN?$AA?5?$AAe?$AAr?$AAr?$AAo?$AAr?$AA?$AN?$AA?6?$AA?$AA@ 10111f90     LIBCMTD:crt0msg.obj
 0003:00012fb8       ??_C@_1BOO@KGEDBGAJ@?$AAR?$AA6?$AA0?$AA3?$AA3?$AA?$AN?$AA?6?$AA?9?$AA?5?$AAA?$AAt?$AAt?$AAe?$AAm?$AAp?$AAt?$AA?5?$AAt?$AAo?$AA?5?$AAu?$AAs?$AAe?$AA?5?$AAM?$AAS?$AAI?$AAL?$AA?5?$AAc?$AAo?$AAd@ 10111fb8     LIBCMTD:crt0msg.obj
 0003:00013208       ??_C@_1GG@GOPILAJP@?$AAR?$AA6?$AA0?$AA3?$AA2?$AA?$AN?$AA?6?$AA?9?$AA?5?$AAn?$AAo?$AAt?$AA?5?$AAe?$AAn?$AAo?$AAu?$AAg?$AAh?$AA?5?$AAs?$AAp?$AAa?$AAc?$AAe?$AA?5?$AAf?$AAo?$AAr?$AA?5?$AAl?$AAo@ 10112208     LIBCMTD:crt0msg.obj
 0003:00013288       ??_C@_1MG@ENCOOIDF@?$AAR?$AA6?$AA0?$AA3?$AA1?$AA?$AN?$AA?6?$AA?9?$AA?5?$AAA?$AAt?$AAt?$AAe?$AAm?$AAp?$AAt?$AA?5?$AAt?$AAo?$AA?5?$AAi?$AAn?$AAi?$AAt?$AAi?$AAa?$AAl?$AAi?$AAz?$AAe?$AA?5?$AAt@ 10112288     LIBCMTD:crt0msg.obj
 0003:00013378       ??_C@_1DO@BMFCDCD@?$AAR?$AA6?$AA0?$AA3?$AA0?$AA?$AN?$AA?6?$AA?9?$AA?5?$AAC?$AAR?$AAT?$AA?5?$AAn?$AAo?$AAt?$AA?5?$AAi?$AAn?$AAi?$AAt?$AAi?$AAa?$AAl?$AAi?$AAz?$AAe?$AAd?$AA?$AN?$AA?6?$AA?$AA@ 10112378     LIBCMTD:crt0msg.obj
 0003:000133c8       ??_C@_1EK@HHFLMAOL@?$AAR?$AA6?$AA0?$AA2?$AA8?$AA?$AN?$AA?6?$AA?9?$AA?5?$AAu?$AAn?$AAa?$AAb?$AAl?$AAe?$AA?5?$AAt?$AAo?$AA?5?$AAi?$AAn?$AAi?$AAt?$AAi?$AAa?$AAl?$AAi?$AAz?$AAe?$AA?5?$AAh?$AAe@ 101123c8     LIBCMTD:crt0msg.obj
 0003:00013420       ??_C@_1GK@MFGOKLAG@?$AAR?$AA6?$AA0?$AA2?$AA7?$AA?$AN?$AA?6?$AA?9?$AA?5?$AAn?$AAo?$AAt?$AA?5?$AAe?$AAn?$AAo?$AAu?$AAg?$AAh?$AA?5?$AAs?$AAp?$AAa?$AAc?$AAe?$AA?5?$AAf?$AAo?$AAr?$AA?5?$AAl?$AAo@ 10112420     LIBCMTD:crt0msg.obj
 0003:000134a0       ??_C@_1GK@MCAAGJMO@?$AAR?$AA6?$AA0?$AA2?$AA6?$AA?$AN?$AA?6?$AA?9?$AA?5?$AAn?$AAo?$AAt?$AA?5?$AAe?$AAn?$AAo?$AAu?$AAg?$AAh?$AA?5?$AAs?$AAp?$AAa?$AAc?$AAe?$AA?5?$AAf?$AAo?$AAr?$AA?5?$AAs?$AAt@ 101124a0     LIBCMTD:crt0msg.obj
 0003:00013520       ??_C@_1EM@MAADIHMB@?$AAR?$AA6?$AA0?$AA2?$AA5?$AA?$AN?$AA?6?$AA?9?$AA?5?$AAp?$AAu?$AAr?$AAe?$AA?5?$AAv?$AAi?$AAr?$AAt?$AAu?$AAa?$AAl?$AA?5?$AAf?$AAu?$AAn?$AAc?$AAt?$AAi?$AAo?$AAn?$AA?5?$AAc@ 10112520     LIBCMTD:crt0msg.obj
 0003:00013580       ??_C@_1GK@FHCKBEFA@?$AAR?$AA6?$AA0?$AA2?$AA4?$AA?$AN?$AA?6?$AA?9?$AA?5?$AAn?$AAo?$AAt?$AA?5?$AAe?$AAn?$AAo?$AAu?$AAg?$AAh?$AA?5?$AAs?$AAp?$AAa?$AAc?$AAe?$AA?5?$AAf?$AAo?$AAr?$AA?5?$AA_?$AAo@ 10112580     LIBCMTD:crt0msg.obj
 0003:00013600       ??_C@_1FC@ECHBIFBC@?$AAR?$AA6?$AA0?$AA1?$AA9?$AA?$AN?$AA?6?$AA?9?$AA?5?$AAu?$AAn?$AAa?$AAb?$AAl?$AAe?$AA?5?$AAt?$AAo?$AA?5?$AAo?$AAp?$AAe?$AAn?$AA?5?$AAc?$AAo?$AAn?$AAs?$AAo?$AAl?$AAe?$AA?5@ 10112600     LIBCMTD:crt0msg.obj
 0003:00013668       ??_C@_1EC@JIBHAOPH@?$AAR?$AA6?$AA0?$AA1?$AA8?$AA?$AN?$AA?6?$AA?9?$AA?5?$AAu?$AAn?$AAe?$AAx?$AAp?$AAe?$AAc?$AAt?$AAe?$AAd?$AA?5?$AAh?$AAe?$AAa?$AAp?$AA?5?$AAe?$AAr?$AAr?$AAo?$AAr?$AA?$AN?$AA?6@ 10112668     LIBCMTD:crt0msg.obj
 0003:000136b8       ??_C@_1FK@BEOGODMC@?$AAR?$AA6?$AA0?$AA1?$AA7?$AA?$AN?$AA?6?$AA?9?$AA?5?$AAu?$AAn?$AAe?$AAx?$AAp?$AAe?$AAc?$AAt?$AAe?$AAd?$AA?5?$AAm?$AAu?$AAl?$AAt?$AAi?$AAt?$AAh?$AAr?$AAe?$AAa?$AAd?$AA?5@ 101126b8     LIBCMTD:crt0msg.obj
 0003:00013728       ??_C@_1FI@LOGNIKDM@?$AAR?$AA6?$AA0?$AA1?$AA6?$AA?$AN?$AA?6?$AA?9?$AA?5?$AAn?$AAo?$AAt?$AA?5?$AAe?$AAn?$AAo?$AAu?$AAg?$AAh?$AA?5?$AAs?$AAp?$AAa?$AAc?$AAe?$AA?5?$AAf?$AAo?$AAr?$AA?5?$AAt?$AAh@ 10112728     LIBCMTD:crt0msg.obj
 0003:00013798       ??_C@_1EG@BEHAGFJD@?$AAR?$AA6?$AA0?$AA1?$AA0?$AA?$AN?$AA?6?$AA?9?$AA?5?$AAa?$AAb?$AAo?$AAr?$AAt?$AA?$CI?$AA?$CJ?$AA?5?$AAh?$AAa?$AAs?$AA?5?$AAb?$AAe?$AAe?$AAn?$AA?5?$AAc?$AAa?$AAl?$AAl?$AAe?$AAd@ 10112798     LIBCMTD:crt0msg.obj
 0003:000137f0       ??_C@_1FI@HONFMGBI@?$AAR?$AA6?$AA0?$AA0?$AA9?$AA?$AN?$AA?6?$AA?9?$AA?5?$AAn?$AAo?$AAt?$AA?5?$AAe?$AAn?$AAo?$AAu?$AAg?$AAh?$AA?5?$AAs?$AAp?$AAa?$AAc?$AAe?$AA?5?$AAf?$AAo?$AAr?$AA?5?$AAe?$AAn@ 101127f0     LIBCMTD:crt0msg.obj
 0003:00013860       ??_C@_1FE@LLNEDJMD@?$AAR?$AA6?$AA0?$AA0?$AA8?$AA?$AN?$AA?6?$AA?9?$AA?5?$AAn?$AAo?$AAt?$AA?5?$AAe?$AAn?$AAo?$AAu?$AAg?$AAh?$AA?5?$AAs?$AAp?$AAa?$AAc?$AAe?$AA?5?$AAf?$AAo?$AAr?$AA?5?$AAa?$AAr@ 10112860     LIBCMTD:crt0msg.obj
 0003:000138c8       ??_C@_1FK@PGACCAFB@?$AAR?$AA6?$AA0?$AA0?$AA2?$AA?$AN?$AA?6?$AA?9?$AA?5?$AAf?$AAl?$AAo?$AAa?$AAt?$AAi?$AAn?$AAg?$AA?5?$AAp?$AAo?$AAi?$AAn?$AAt?$AA?5?$AAs?$AAu?$AAp?$AAp?$AAo?$AAr?$AAt?$AA?5@ 101128c8     LIBCMTD:crt0msg.obj
 0003:00013a10       ??_C@_1EK@MBDPDCGA@?$AAM?$AAi?$AAc?$AAr?$AAo?$AAs?$AAo?$AAf?$AAt?$AA?5?$AAV?$AAi?$AAs?$AAu?$AAa?$AAl?$AA?5?$AAC?$AA?$CL?$AA?$CL?$AA?5?$AAR?$AAu?$AAn?$AAt?$AAi?$AAm?$AAe?$AA?5?$AAL?$AAi?$AAb@ 10112a10     LIBCMTD:crt0msg.obj
 0003:00013a68       ??_C@_1IG@NMONDPP@?$AAw?$AAc?$AAs?$AAc?$AAa?$AAt?$AA_?$AAs?$AA?$CI?$AAo?$AAu?$AAt?$AAm?$AAs?$AAg?$AA?0?$AA?5?$AA?$CI?$AAs?$AAi?$AAz?$AAe?$AAo?$AAf?$AA?$CI?$AAo?$AAu?$AAt?$AAm?$AAs?$AAg?$AA?$CJ@ 10112a68     LIBCMTD:crt0msg.obj
 0003:00013b08       ??_C@_15IABLJNFO@?$AA?6?$AA?6?$AA?$AA@ 10112b08     LIBCMTD:crt0msg.obj
 0003:00013b10       ??_C@_1IA@DCJGKHFO@?$AAw?$AAc?$AAs?$AAc?$AAa?$AAt?$AA_?$AAs?$AA?$CI?$AAo?$AAu?$AAt?$AAm?$AAs?$AAg?$AA?0?$AA?5?$AA?$CI?$AAs?$AAi?$AAz?$AAe?$AAo?$AAf?$AA?$CI?$AAo?$AAu?$AAt?$AAm?$AAs?$AAg?$AA?$CJ@ 10112b10     LIBCMTD:crt0msg.obj
 0003:00013bac       ??_C@_17LGKOMLJ@?$AA?4?$AA?4?$AA?4?$AA?$AA@ 10112bac     LIBCMTD:crt0msg.obj
 0003:00013bb8       ??_C@_1HI@FLHKGEBE@?$AAw?$AAc?$AAs?$AAn?$AAc?$AAp?$AAy?$AA_?$AAs?$AA?$CI?$AAp?$AAc?$AAh?$AA?0?$AA?5?$AAp?$AAr?$AAo?$AAg?$AAn?$AAa?$AAm?$AAe?$AA_?$AAs?$AAi?$AAz?$AAe?$AA?5?$AA?9?$AA?5?$AA?$CI@ 10112bb8     LIBCMTD:crt0msg.obj
 0003:00013c48       ??_C@_1CO@EAEJAADC@?$AA?$DM?$AAp?$AAr?$AAo?$AAg?$AAr?$AAa?$AAm?$AA?5?$AAn?$AAa?$AAm?$AAe?$AA?5?$AAu?$AAn?$AAk?$AAn?$AAo?$AAw?$AAn?$AA?$DO?$AA?$AA@ 10112c48     LIBCMTD:crt0msg.obj
 0003:00013c80       ??_C@_1HK@FJJNAABO@?$AAw?$AAc?$AAs?$AAc?$AAp?$AAy?$AA_?$AAs?$AA?$CI?$AAp?$AAr?$AAo?$AAg?$AAn?$AAa?$AAm?$AAe?$AA?0?$AA?5?$AAp?$AAr?$AAo?$AAg?$AAn?$AAa?$AAm?$AAe?$AA_?$AAs?$AAi?$AAz?$AAe@ 10112c80     LIBCMTD:crt0msg.obj
 0003:00013d14       ??_C@_1DE@JNGNBFGO@?$AAR?$AAu?$AAn?$AAt?$AAi?$AAm?$AAe?$AA?5?$AAE?$AAr?$AAr?$AAo?$AAr?$AA?$CB?$AA?6?$AA?6?$AAP?$AAr?$AAo?$AAg?$AAr?$AAa?$AAm?$AA?3?$AA?5?$AA?$AA@ 10112d14     LIBCMTD:crt0msg.obj
 0003:00013d58       ??_C@_1KO@BKLCKNFL@?$AAw?$AAc?$AAs?$AAc?$AAp?$AAy?$AA_?$AAs?$AA?$CI?$AAo?$AAu?$AAt?$AAm?$AAs?$AAg?$AA?0?$AA?5?$AA?$CI?$AAs?$AAi?$AAz?$AAe?$AAo?$AAf?$AA?$CI?$AAo?$AAu?$AAt?$AAm?$AAs?$AAg?$AA?$CJ@ 10112d58     LIBCMTD:crt0msg.obj
 0003:00013e28       ??_C@_1BI@EAHMBMEC@?$AA_?$AAN?$AAM?$AAS?$AAG?$AA_?$AAW?$AAR?$AAI?$AAT?$AAE?$AA?$AA@ 10112e28     LIBCMTD:crt0msg.obj
 0003:00013e48       ??_C@_1GC@HKOJBOFF@?$AAf?$AA?3?$AA?2?$AAd?$AAd?$AA?2?$AAv?$AAc?$AAt?$AAo?$AAo?$AAl?$AAs?$AA?2?$AAc?$AAr?$AAt?$AA_?$AAb?$AAl?$AAd?$AA?2?$AAs?$AAe?$AAl?$AAf?$AA_?$AAx?$AA8?$AA6?$AA?2?$AAc@ 10112e48     LIBCMTD:crt0msg.obj
 0003:00013ec0       ??_C@_1GO@NGIGJNHH@?$AAs?$AAt?$AAr?$AAn?$AAc?$AAp?$AAy?$AA_?$AAs?$AA?$CI?$AA?$CK?$AAs?$AAt?$AAr?$AAa?$AAd?$AAd?$AAr?$AAe?$AAs?$AAs?$AA?0?$AA?5?$AAo?$AAu?$AAt?$AAs?$AAi?$AAz?$AAe?$AA?0?$AA?5@ 10112ec0     LIBCMTD:inithelp.obj
 0003:00013f44       ??_C@_1CA@KHHCPEI@?$AA_?$AA_?$AAg?$AAe?$AAt?$AAl?$AAo?$AAc?$AAa?$AAl?$AAe?$AAi?$AAn?$AAf?$AAo?$AA?$AA@ 10112f44     LIBCMTD:inithelp.obj
 0003:00013f70       ??_C@_1GE@PLPIMDHG@?$AAf?$AA?3?$AA?2?$AAd?$AAd?$AA?2?$AAv?$AAc?$AAt?$AAo?$AAo?$AAl?$AAs?$AA?2?$AAc?$AAr?$AAt?$AA_?$AAb?$AAl?$AAd?$AA?2?$AAs?$AAe?$AAl?$AAf?$AA_?$AAx?$AA8?$AA6?$AA?2?$AAc@ 10112f70     LIBCMTD:inithelp.obj
 0003:00013fe8       ??_C@_0DC@CFDMMFIG@f?3?2dd?2vctools?2crt_bld?2self_x86?2c@ 10112fe8     LIBCMTD:inithelp.obj
 0003:00014028       ??_C@_1GE@KOCFNGPB@?$AA_?$AAc?$AAo?$AAn?$AAt?$AAr?$AAo?$AAl?$AAf?$AAp?$AA_?$AAs?$AA?$CI?$AA?$CI?$AA?$CI?$AAv?$AAo?$AAi?$AAd?$AA?5?$AA?$CK?$AA?$CJ?$AA0?$AA?$CJ?$AA?0?$AA?5?$AA0?$AAx?$AA0?$AA0?$AA0?$AA1@ 10113028     LIBCMTD:fp8.obj
 0003:000140a0       ??_C@_1CK@JMKHCBEI@?$AA_?$AAs?$AAe?$AAt?$AAd?$AAe?$AAf?$AAa?$AAu?$AAl?$AAt?$AAp?$AAr?$AAe?$AAc?$AAi?$AAs?$AAi?$AAo?$AAn?$AA?$AA@ 101130a0     LIBCMTD:fp8.obj
 0003:000140d8       ??_C@_1GG@PHGJJHBC@?$AAf?$AA?3?$AA?2?$AAd?$AAd?$AA?2?$AAv?$AAc?$AAt?$AAo?$AAo?$AAl?$AAs?$AA?2?$AAc?$AAr?$AAt?$AA_?$AAb?$AAl?$AAd?$AA?2?$AAs?$AAe?$AAl?$AAf?$AA_?$AAx?$AA8?$AA6?$AA?2?$AAc@ 101130d8     LIBCMTD:fp8.obj
 0003:00014154       ??_C@_1CA@CBMNPEO@?$AAs?$AAi?$AAz?$AAe?$AAI?$AAn?$AAB?$AAy?$AAt?$AAe?$AAs?$AA?5?$AA?$DO?$AA?5?$AA0?$AA?$AA@ 10113154     LIBCMTD:cvt.obj
 0003:0001417c       ??_C@_1BC@INKAPMHI@?$AA_?$AAc?$AAf?$AAt?$AAo?$AAe?$AA_?$AAl?$AA?$AA@ 1011317c     LIBCMTD:cvt.obj
 0003:00014198       ??_C@_1GO@NCCGBNKI@?$AAf?$AA?3?$AA?2?$AAd?$AAd?$AA?2?$AAv?$AAc?$AAt?$AAo?$AAo?$AAl?$AAs?$AA?2?$AAc?$AAr?$AAt?$AA_?$AAb?$AAl?$AAd?$AA?2?$AAs?$AAe?$AAl?$AAf?$AA_?$AAx?$AA8?$AA6?$AA?2?$AAc@ 10113198     LIBCMTD:cvt.obj
 0003:0001421c       ??_C@_1BI@ICGGMGLK@?$AAb?$AAu?$AAf?$AA?5?$AA?$CB?$AA?$DN?$AA?5?$AAN?$AAU?$AAL?$AAL?$AA?$AA@ 1011321c     LIBCMTD:cvt.obj
 0003:00014238       ??_C@_05KLBDPFGC@e?$CL000?$AA@ 10113238     LIBCMTD:cvt.obj
 0003:00014240       ??_C@_1LE@EOIFGNCJ@?$AAs?$AAt?$AAr?$AAc?$AAp?$AAy?$AA_?$AAs?$AA?$CI?$AAp?$AA?0?$AA?5?$AA?$CI?$AAs?$AAi?$AAz?$AAe?$AAI?$AAn?$AAB?$AAy?$AAt?$AAe?$AAs?$AA?5?$AA?$DN?$AA?$DN?$AA?5?$AA?$CI?$AAs?$AAi?$AAz@ 10113240     LIBCMTD:cvt.obj
 0003:00014318       ??_C@_1HE@NACBNDPP@?$AAs?$AAi?$AAz?$AAe?$AAI?$AAn?$AAB?$AAy?$AAt?$AAe?$AAs?$AA?5?$AA?$DO?$AA?5?$AA?$CI?$AAs?$AAi?$AAz?$AAe?$AA_?$AAt?$AA?$CJ?$AA?$CI?$AA3?$AA?5?$AA?$CL?$AA?5?$AA?$CI?$AAn?$AAd?$AAe?$AAc@ 10113318     LIBCMTD:cvt.obj
 0003:000143a4       ??_C@_1BE@OLBNEILL@?$AA_?$AAc?$AAf?$AAt?$AAo?$AAe?$AA2?$AA_?$AAl?$AA?$AA@ 101133a4     LIBCMTD:cvt.obj
 0003:000143c0       ??_C@_1FC@IKIMAMJB@?$AAs?$AAi?$AAz?$AAe?$AAI?$AAn?$AAB?$AAy?$AAt?$AAe?$AAs?$AA?5?$AA?$DO?$AA?5?$AA?$CI?$AAs?$AAi?$AAz?$AAe?$AA_?$AAt?$AA?$CJ?$AA?$CI?$AA1?$AA?5?$AA?$CL?$AA?5?$AA4?$AA?5?$AA?$CL?$AA?5?$AAn@ 101133c0     LIBCMTD:cvt.obj
 0003:00014424       ??_C@_1BC@JOKPCIC@?$AA_?$AAc?$AAf?$AAt?$AAo?$AAa?$AA_?$AAl?$AA?$AA@ 10113424     LIBCMTD:cvt.obj
 0003:0001443c       ??_C@_1BC@DCPPLJL@?$AA_?$AAc?$AAf?$AAt?$AAo?$AAf?$AA_?$AAl?$AA?$AA@ 1011343c     LIBCMTD:cvt.obj
 0003:00014454       ??_C@_1BE@CKPDLI@?$AA_?$AAc?$AAf?$AAt?$AAo?$AAf?$AA2?$AA_?$AAl?$AA?$AA@ 10113454     LIBCMTD:cvt.obj
 0003:0001446c       ??_C@_1BC@MPIFPLAF@?$AA_?$AAc?$AAf?$AAt?$AAo?$AAg?$AA_?$AAl?$AA?$AA@ 1011346c     LIBCMTD:cvt.obj
 0003:000144d0       __indefinite               101134d0     LIBCMTD:_87disp_.obj
 0003:000144da       __piby2                    101134da     LIBCMTD:_87disp_.obj
 0003:00014504       ??_C@_0P@MIGLKIOC@CorExitProcess?$AA@ 10113504     LIBCMTD:crt0dat.obj
 0003:00014518       ??_C@_1BI@BGOHAHKC@?$AAm?$AAs?$AAc?$AAo?$AAr?$AAe?$AAe?$AA?4?$AAd?$AAl?$AAl?$AA?$AA@ 10113518     LIBCMTD:crt0dat.obj
 0003:00014534       ??_C@_1CC@CDIPMFPD@?$AA_?$AAw?$AAp?$AAg?$AAm?$AAp?$AAt?$AAr?$AA?5?$AA?$CB?$AA?$DN?$AA?5?$AAN?$AAU?$AAL?$AAL?$AA?$AA@ 10113534     LIBCMTD:crt0dat.obj
 0003:0001455c       ??_C@_1BK@PNLDCCDP@?$AA_?$AAg?$AAe?$AAt?$AA_?$AAw?$AAp?$AAg?$AAm?$AAp?$AAt?$AAr?$AA?$AA@ 1011355c     LIBCMTD:crt0dat.obj
 0003:00014580       ??_C@_1GC@DGCPEDNJ@?$AAf?$AA?3?$AA?2?$AAd?$AAd?$AA?2?$AAv?$AAc?$AAt?$AAo?$AAo?$AAl?$AAs?$AA?2?$AAc?$AAr?$AAt?$AA_?$AAb?$AAl?$AAd?$AA?2?$AAs?$AAe?$AAl?$AAf?$AA_?$AAx?$AA8?$AA6?$AA?2?$AAc@ 10113580     LIBCMTD:crt0dat.obj
 0003:000145f8       ??_C@_1BO@LKEBEKJP@?$AAp?$AAV?$AAa?$AAl?$AAu?$AAe?$AA?5?$AA?$CB?$AA?$DN?$AA?5?$AAN?$AAU?$AAL?$AAL?$AA?$AA@ 101135f8     LIBCMTD:crt0dat.obj
 0003:0001461c       ??_C@_1CA@BBNAFCKO@?$AA_?$AAp?$AAg?$AAm?$AAp?$AAt?$AAr?$AA?5?$AA?$CB?$AA?$DN?$AA?5?$AAN?$AAU?$AAL?$AAL?$AA?$AA@ 1011361c     LIBCMTD:crt0dat.obj
 0003:00014644       ??_C@_1BI@COAAPHJK@?$AA_?$AAg?$AAe?$AAt?$AA_?$AAp?$AAg?$AAm?$AAp?$AAt?$AAr?$AA?$AA@ 10113644     LIBCMTD:crt0dat.obj
 0003:00014660       ??_C@_06PJIGMIJB@Client?$AA@ 10113660     LIBCMTD:dbgheap.obj
 0003:00014668       ??_C@_06KMEJCCGM@Ignore?$AA@ 10113668     LIBCMTD:dbgheap.obj
 0003:00014670       ??_C@_03OGPFLFLO@CRT?$AA@  10113670     LIBCMTD:dbgheap.obj
 0003:00014674       ??_C@_06EFAGIKOH@Normal?$AA@ 10113674     LIBCMTD:dbgheap.obj
 0003:0001467c       ??_C@_04HJMOFLDF@Free?$AA@ 1011367c     LIBCMTD:dbgheap.obj
 0003:0001469c       ??_C@_0DC@JEMAGEKG@Error?3?5memory?5allocation?3?5bad?5me@ 1011369c     LIBCMTD:dbgheap.obj
 0003:000146d8       ??_C@_0CF@BICKFLAF@Invalid?5allocation?5size?3?5?$CFIu?5byt@ 101136d8     LIBCMTD:dbgheap.obj
 0003:00014704       ??_C@_02DKCKIIND@?$CFs?$AA@ 10113704     LIBCMTD:dbgheap.obj
 0003:00014708       ??_C@_0CB@CCLOLAHO@Client?5hook?5allocation?5failure?4?6@ 10113708     LIBCMTD:dbgheap.obj
 0003:00014730       ??_C@_0DF@BBEGIFEK@Client?5hook?5allocation?5failure?5a@ 10113730     LIBCMTD:dbgheap.obj
 0003:00014770       ??_C@_1GC@DNJKKEAA@?$AAf?$AA?3?$AA?2?$AAd?$AAd?$AA?2?$AAv?$AAc?$AAt?$AAo?$AAo?$AAl?$AAs?$AA?2?$AAc?$AAr?$AAt?$AA_?$AAb?$AAl?$AAd?$AA?2?$AAs?$AAe?$AAl?$AAf?$AA_?$AAx?$AA8?$AA6?$AA?2?$AAc@ 10113770     LIBCMTD:dbgheap.obj
 0003:000147e8       ??_C@_1CE@LJFEPPMP@?$AA_?$AAC?$AAr?$AAt?$AAC?$AAh?$AAe?$AAc?$AAk?$AAM?$AAe?$AAm?$AAo?$AAr?$AAy?$AA?$CI?$AA?$CJ?$AA?$AA@ 101137e8     LIBCMTD:dbgheap.obj
 0003:00014814       ??_C@_1DE@KOOKLFBB@?$AA_?$AAp?$AAF?$AAi?$AAr?$AAs?$AAt?$AAB?$AAl?$AAo?$AAc?$AAk?$AA?5?$AA?$DN?$AA?$DN?$AA?5?$AAp?$AAO?$AAl?$AAd?$AAB?$AAl?$AAo?$AAc?$AAk?$AA?$AA@ 10113814     LIBCMTD:dbgheap.obj
 0003:00014854       ??_C@_1DC@GEFKNOOL@?$AA_?$AAp?$AAL?$AAa?$AAs?$AAt?$AAB?$AAl?$AAo?$AAc?$AAk?$AA?5?$AA?$DN?$AA?$DN?$AA?5?$AAp?$AAO?$AAl?$AAd?$AAB?$AAl?$AAo?$AAc?$AAk?$AA?$AA@ 10113854     LIBCMTD:dbgheap.obj
 0003:00014890       ??_C@_1GE@PCKLOLAO@?$AAf?$AAR?$AAe?$AAa?$AAl?$AAl?$AAo?$AAc?$AA?5?$AA?$HM?$AA?$HM?$AA?5?$AA?$CI?$AA?$CB?$AAf?$AAR?$AAe?$AAa?$AAl?$AAl?$AAo?$AAc?$AA?5?$AA?$CG?$AA?$CG?$AA?5?$AAp?$AAN?$AAe?$AAw?$AAB?$AAl@ 10113890     LIBCMTD:dbgheap.obj
 0003:00014908       ??_C@_0DA@HFBKENN@Error?3?5possible?5heap?5corruption?5@ 10113908     LIBCMTD:dbgheap.obj
 0003:00014948       ??_C@_1IK@DCPKDGNH@?$AAp?$AAO?$AAl?$AAd?$AAB?$AAl?$AAo?$AAc?$AAk?$AA?9?$AA?$DO?$AAn?$AAL?$AAi?$AAn?$AAe?$AA?5?$AA?$DN?$AA?$DN?$AA?5?$AAI?$AAG?$AAN?$AAO?$AAR?$AAE?$AA_?$AAL?$AAI?$AAN?$AAE?$AA?5@ 10113948     LIBCMTD:dbgheap.obj
 0003:000149f0       ??_C@_1EE@GFOPCECE@?$AA_?$AAC?$AAr?$AAt?$AAI?$AAs?$AAV?$AAa?$AAl?$AAi?$AAd?$AAH?$AAe?$AAa?$AAp?$AAP?$AAo?$AAi?$AAn?$AAt?$AAe?$AAr?$AA?$CI?$AAp?$AAU?$AAs?$AAe?$AAr?$AAD?$AAa?$AAt?$AAa@ 101139f0     LIBCMTD:dbgheap.obj
 0003:00014a48       ??_C@_0EM@LGFLMAGJ@The?5Block?5at?50x?$CFp?5was?5allocated?5@ 10113a48     LIBCMTD:dbgheap.obj
 0003:00014aa8       ??_C@_0FA@EFEIGJKG@Error?3?5memory?5allocation?3?5bad?5me@ 10113aa8     LIBCMTD:dbgheap.obj
 0003:00014b08       ??_C@_0ED@GPCPBAGP@Invalid?5allocation?5size?3?5?$CFIu?5byt@ 10113b08     LIBCMTD:dbgheap.obj
 0003:00014b58       ??_C@_0CE@DOFMDOL@Client?5hook?5re?9allocation?5failur@ 10113b58     LIBCMTD:dbgheap.obj
 0003:00014b84       ??_C@_0DI@KKJPDPGM@Client?5hook?5re?9allocation?5failur@ 10113b84     LIBCMTD:dbgheap.obj
 0003:00014bc8       ??_C@_1BI@HAPNGHDP@?$AA_?$AAe?$AAx?$AAp?$AAa?$AAn?$AAd?$AA_?$AAd?$AAb?$AAg?$AA?$AA@ 10113bc8     LIBCMTD:dbgheap.obj
 0003:00014be4       ??_C@_1CE@CJACEFBA@?$AAp?$AAU?$AAs?$AAe?$AAr?$AAD?$AAa?$AAt?$AAa?$AA?5?$AA?$CB?$AA?$DN?$AA?5?$AAN?$AAU?$AAL?$AAL?$AA?$AA@ 10113be4     LIBCMTD:dbgheap.obj
 0003:00014c10       ??_C@_1CM@MMAADDMD@?$AA_?$AAp?$AAF?$AAi?$AAr?$AAs?$AAt?$AAB?$AAl?$AAo?$AAc?$AAk?$AA?5?$AA?$DN?$AA?$DN?$AA?5?$AAp?$AAH?$AAe?$AAa?$AAd?$AA?$AA@ 10113c10     LIBCMTD:dbgheap.obj
 0003:00014c44       ??_C@_1CK@DMAGEMBG@?$AA_?$AAp?$AAL?$AAa?$AAs?$AAt?$AAB?$AAl?$AAo?$AAc?$AAk?$AA?5?$AA?$DN?$AA?$DN?$AA?5?$AAp?$AAH?$AAe?$AAa?$AAd?$AA?$AA@ 10113c44     LIBCMTD:dbgheap.obj
 0003:00014c78       ??_C@_1DM@ODCJIDCP@?$AAp?$AAH?$AAe?$AAa?$AAd?$AA?9?$AA?$DO?$AAn?$AAB?$AAl?$AAo?$AAc?$AAk?$AAU?$AAs?$AAe?$AA?5?$AA?$DN?$AA?$DN?$AA?5?$AAn?$AAB?$AAl?$AAo?$AAc?$AAk?$AAU?$AAs?$AAe?$AA?$AA@ 10113c78     LIBCMTD:dbgheap.obj
 0003:00014cc0       ??_C@_1HK@HPCBMDFG@?$AAp?$AAH?$AAe?$AAa?$AAd?$AA?9?$AA?$DO?$AAn?$AAL?$AAi?$AAn?$AAe?$AA?5?$AA?$DN?$AA?$DN?$AA?5?$AAI?$AAG?$AAN?$AAO?$AAR?$AAE?$AA_?$AAL?$AAI?$AAN?$AAE?$AA?5?$AA?$CG?$AA?$CG?$AA?5?$AAp@ 10113cc0     LIBCMTD:dbgheap.obj
 0003:00014d58       ??_C@_0IG@LEMBDCJK@HEAP?5CORRUPTION?5DETECTED?3?5after?5@ 10113d58     LIBCMTD:dbgheap.obj
 0003:00014df8       ??_C@_0KE@MBMNHHHN@HEAP?5CORRUPTION?5DETECTED?3?5after?5@ 10113df8     LIBCMTD:dbgheap.obj
 0003:00014ec0       ??_C@_0IK@PJCGLBOB@HEAP?5CORRUPTION?5DETECTED?3?5before@ 10113ec0     LIBCMTD:dbgheap.obj
 0003:00014f68       ??_C@_0KI@JGFOHMEB@HEAP?5CORRUPTION?5DETECTED?3?5before@ 10113f68     LIBCMTD:dbgheap.obj
 0003:00015034       ??_C@_0BL@KEIPLFAC@Client?5hook?5free?5failure?4?6?$AA@ 10114034     LIBCMTD:dbgheap.obj
 0003:00015058       ??_C@_0EJ@HEIBCIMJ@The?5Block?5at?50x?$CFp?5was?5allocated?5@ 10114058     LIBCMTD:dbgheap.obj
 0003:000150b0       ??_C@_1BG@MBKOGDLD@?$AA_?$AAm?$AAs?$AAi?$AAz?$AAe?$AA_?$AAd?$AAb?$AAg?$AA?$AA@ 101140b0     LIBCMTD:dbgheap.obj
 0003:000150cc       ??_C@_0CI@JMLBEDHJ@?$CFhs?5located?5at?50x?$CFp?5is?5?$CFIu?5bytes@ 101140cc     LIBCMTD:dbgheap.obj
 0003:00015100       ??_C@_0EG@DGJMPDBH@?$CFhs?5located?5at?50x?$CFp?5is?5?$CFIu?5bytes@ 10114100     LIBCMTD:dbgheap.obj
 0003:00015158       ??_C@_0IC@BBJIOOJH@HEAP?5CORRUPTION?5DETECTED?3?5on?5top@ 10114158     LIBCMTD:dbgheap.obj
 0003:000151f8       ??_C@_0KA@IHNJJKPL@HEAP?5CORRUPTION?5DETECTED?3?5on?5top@ 101141f8     LIBCMTD:dbgheap.obj
 0003:000152b8       ??_C@_07OHKEFPKJ@DAMAGED?$AA@ 101142b8     LIBCMTD:dbgheap.obj
 0003:000152c4       ??_C@_0CL@HNNNMKMJ@_heapchk?5fails?5with?5unknown?5retu@ 101142c4     LIBCMTD:dbgheap.obj
 0003:000152f8       ??_C@_0CC@MFFCHFHO@_heapchk?5fails?5with?5_HEAPBADPTR?4@ 101142f8     LIBCMTD:dbgheap.obj
 0003:00015320       ??_C@_0CC@MJGLGBDG@_heapchk?5fails?5with?5_HEAPBADEND?4@ 10114320     LIBCMTD:dbgheap.obj
 0003:00015348       ??_C@_0CD@CPKEAPBD@_heapchk?5fails?5with?5_HEAPBADNODE@ 10114348     LIBCMTD:dbgheap.obj
 0003:00015374       ??_C@_0CE@MKKHMBMK@_heapchk?5fails?5with?5_HEAPBADBEGI@ 10114374     LIBCMTD:dbgheap.obj
 0003:000153a0       ??_C@_1BO@GJFDNMNF@?$AA_?$AAC?$AAr?$AAt?$AAS?$AAe?$AAt?$AAD?$AAb?$AAg?$AAF?$AAl?$AAa?$AAg?$AA?$AA@ 101143a0     LIBCMTD:dbgheap.obj
 0003:000153c8       ??_C@_1BHO@NNANJNF@?$AA?$CI?$AAf?$AAN?$AAe?$AAw?$AAB?$AAi?$AAt?$AAs?$AA?$DN?$AA?$DN?$AA_?$AAC?$AAR?$AAT?$AAD?$AAB?$AAG?$AA_?$AAR?$AAE?$AAP?$AAO?$AAR?$AAT?$AA_?$AAF?$AAL?$AAA?$AAG?$AA?$CJ?$AA?5@ 101143c8     LIBCMTD:dbgheap.obj
 0003:00015594       ??_C@_1DE@GJCKCKEC@?$AA_?$AAC?$AAr?$AAt?$AAD?$AAo?$AAF?$AAo?$AAr?$AAA?$AAl?$AAl?$AAC?$AAl?$AAi?$AAe?$AAn?$AAt?$AAO?$AAb?$AAj?$AAe?$AAc?$AAt?$AAs?$AA?$AA@ 10114594     LIBCMTD:dbgheap.obj
 0003:000155d4       ??_C@_1BI@CJGCEEDL@?$AAp?$AAf?$AAn?$AA?5?$AA?$CB?$AA?$DN?$AA?5?$AAN?$AAU?$AAL?$AAL?$AA?$AA@ 101145d4     LIBCMTD:dbgheap.obj
 0003:000155f0       ??_C@_0CB@EAAIGELO@Bad?5memory?5block?5found?5at?50x?$CFp?4?6@ 101145f0     LIBCMTD:dbgheap.obj
 0003:00015618       ??_C@_0DP@LEFMFBOD@Bad?5memory?5block?5found?5at?50x?$CFp?4?6@ 10114618     LIBCMTD:dbgheap.obj
 0003:00015664       ??_C@_1CE@NJJKELF@?$AA_?$AAC?$AAr?$AAt?$AAM?$AAe?$AAm?$AAC?$AAh?$AAe?$AAc?$AAk?$AAp?$AAo?$AAi?$AAn?$AAt?$AA?$AA@ 10114664     LIBCMTD:dbgheap.obj
 0003:00015690       ??_C@_1BM@MIMANDHC@?$AAs?$AAt?$AAa?$AAt?$AAe?$AA?5?$AA?$CB?$AA?$DN?$AA?5?$AAN?$AAU?$AAL?$AAL?$AA?$AA@ 10114690     LIBCMTD:dbgheap.obj
 0003:000156b4       ??_C@_1CC@DFPEDFBP@?$AAn?$AAe?$AAw?$AAS?$AAt?$AAa?$AAt?$AAe?$AA?5?$AA?$CB?$AA?$DN?$AA?5?$AAN?$AAU?$AAL?$AAL?$AA?$AA@ 101146b4     LIBCMTD:dbgheap.obj
 0003:000156dc       ??_C@_1CC@DHPFEMMN@?$AAo?$AAl?$AAd?$AAS?$AAt?$AAa?$AAt?$AAe?$AA?5?$AA?$CB?$AA?$DN?$AA?5?$AAN?$AAU?$AAL?$AAL?$AA?$AA@ 101146dc     LIBCMTD:dbgheap.obj
 0003:00015704       ??_C@_1CE@PDIENACM@?$AA_?$AAC?$AAr?$AAt?$AAM?$AAe?$AAm?$AAD?$AAi?$AAf?$AAf?$AAe?$AAr?$AAe?$AAn?$AAc?$AAe?$AA?$AA@ 10114704     LIBCMTD:dbgheap.obj
 0003:00015730       ??_C@_0BH@GFGKJDCO@Object?5dump?5complete?4?6?$AA@ 10114730     LIBCMTD:dbgheap.obj
 0003:0001574c       ??_C@_0DA@MDLBNIBM@crt?5block?5at?50x?$CFp?0?5subtype?5?$CFx?0?5?$CF@ 1011474c     LIBCMTD:dbgheap.obj
 0003:00015788       ??_C@_0CH@FAGDDGPN@normal?5block?5at?50x?$CFp?0?5?$CFIu?5bytes?5@ 10114788     LIBCMTD:dbgheap.obj
 0003:000157b8       ??_C@_0DD@GHNAAKBB@client?5block?5at?50x?$CFp?0?5subtype?5?$CFx@ 101147b8     LIBCMTD:dbgheap.obj
 0003:000157f8       ??_C@_06PKLGBFGM@?$HL?$CFld?$HN?5?$AA@ 101147f8     LIBCMTD:dbgheap.obj
 0003:00015800       ??_C@_0L@JMEFFCCJ@?$CFhs?$CI?$CFd?$CJ?5?3?5?$AA@ 10114800     LIBCMTD:dbgheap.obj
 0003:00015810       ??_C@_0BE@OIEFNFL@?$CDFile?5Error?$CD?$CI?$CFd?$CJ?5?3?5?$AA@ 10114810     LIBCMTD:dbgheap.obj
 0003:00015828       ??_C@_0BE@KCIPKCIA@Dumping?5objects?5?9?$DO?6?$AA@ 10114828     LIBCMTD:dbgheap.obj
 0003:00015840       ??_C@_0BA@HJBKCELP@?5Data?3?5?$DM?$CFs?$DO?5?$CFs?6?$AA@ 10114840     LIBCMTD:dbgheap.obj
 0003:00015854       ??_C@_1BI@KALLJECN@?$AA?$CI?$AA?$CK?$AA_?$AAe?$AAr?$AAr?$AAn?$AAo?$AA?$CI?$AA?$CJ?$AA?$CJ?$AA?$AA@ 10114854     LIBCMTD:dbgheap.obj
 0003:00015870       ??_C@_1CG@LPFIACGM@?$AA_?$AAp?$AAr?$AAi?$AAn?$AAt?$AAM?$AAe?$AAm?$AAB?$AAl?$AAo?$AAc?$AAk?$AAD?$AAa?$AAt?$AAa?$AA?$AA@ 10114870     LIBCMTD:dbgheap.obj
 0003:000158a0       ??_C@_0BI@JBFPOEJA@Detected?5memory?5leaks?$CB?6?$AA@ 101148a0     LIBCMTD:dbgheap.obj
 0003:000158bc       ??_C@_0BP@DEDHGGGI@Total?5allocations?3?5?$CFId?5bytes?4?6?$AA@ 101148bc     LIBCMTD:dbgheap.obj
 0003:000158e4       ??_C@_0CB@BLHDAFNE@Largest?5number?5used?3?5?$CFId?5bytes?4?6@ 101148e4     LIBCMTD:dbgheap.obj
 0003:0001590c       ??_C@_0BO@DACNIABB@?$CFId?5bytes?5in?5?$CFId?5?$CFhs?5Blocks?4?6?$AA@ 1011490c     LIBCMTD:dbgheap.obj
 0003:00015930       ??_C@_1CM@MPNIBKGK@?$AA_?$AAC?$AAr?$AAt?$AAM?$AAe?$AAm?$AAD?$AAu?$AAm?$AAp?$AAS?$AAt?$AAa?$AAt?$AAi?$AAs?$AAt?$AAi?$AAc?$AAs?$AA?$AA@ 10114930     LIBCMTD:dbgheap.obj
 0003:00015964       ??_C@_1DK@LFLKFPDA@?$AAo?$AAf?$AAf?$AAs?$AAe?$AAt?$AA?5?$AA?$DN?$AA?$DN?$AA?5?$AA0?$AA?5?$AA?$HM?$AA?$HM?$AA?5?$AAo?$AAf?$AAf?$AAs?$AAe?$AAt?$AA?5?$AA?$DM?$AA?5?$AAs?$AAi?$AAz?$AAe?$AA?$AA@ 10114964     LIBCMTD:dbgheap.obj
 0003:000159ac       ??_C@_1DG@DONCJBBJ@?$AA_?$AAa?$AAl?$AAi?$AAg?$AAn?$AAe?$AAd?$AA_?$AAo?$AAf?$AAf?$AAs?$AAe?$AAt?$AA_?$AAm?$AAa?$AAl?$AAl?$AAo?$AAc?$AA_?$AAd?$AAb?$AAg?$AA?$AA@ 101149ac     LIBCMTD:dbgheap.obj
 0003:000159ec       ??_C@_1CE@NPMGPNNP@?$AAI?$AAS?$AA_?$AA2?$AA_?$AAP?$AAO?$AAW?$AA_?$AAN?$AA?$CI?$AAa?$AAl?$AAi?$AAg?$AAn?$AA?$CJ?$AA?$AA@ 101149ec     LIBCMTD:dbgheap.obj
 0003:00015a18       ??_C@_1DI@NINIKFFK@?$AA_?$AAa?$AAl?$AAi?$AAg?$AAn?$AAe?$AAd?$AA_?$AAo?$AAf?$AAf?$AAs?$AAe?$AAt?$AA_?$AAr?$AAe?$AAa?$AAl?$AAl?$AAo?$AAc?$AA_?$AAd?$AAb?$AAg?$AA?$AA@ 10114a18     LIBCMTD:dbgheap.obj
 0003:00015a5c       ??_C@_0DL@PGHMMKNE@Damage?5before?50x?$CFp?5which?5was?5all@ 10114a5c     LIBCMTD:dbgheap.obj
 0003:00015aa8       ??_C@_0EI@NDNJMAJK@The?5block?5at?50x?$CFp?5was?5not?5alloca@ 10114aa8     LIBCMTD:dbgheap.obj
 0003:00015b00       ??_C@_0EF@PGELACII@The?5block?5at?50x?$CFp?5was?5not?5alloca@ 10114b00     LIBCMTD:dbgheap.obj
 0003:00015b54       ??_C@_1CG@CEGMHIMN@?$AA_?$AAa?$AAl?$AAi?$AAg?$AAn?$AAe?$AAd?$AA_?$AAm?$AAs?$AAi?$AAz?$AAe?$AA_?$AAd?$AAb?$AAg?$AA?$AA@ 10114b54     LIBCMTD:dbgheap.obj
 0003:00015b84       ??_C@_1CC@MOBIKHH@?$AAm?$AAe?$AAm?$AAb?$AAl?$AAo?$AAc?$AAk?$AA?5?$AA?$CB?$AA?$DN?$AA?5?$AAN?$AAU?$AAL?$AAL?$AA?$AA@ 10114b84     LIBCMTD:dbgheap.obj
 0003:00015bac       ??_C@_0CP@BNKDODJJ@f?3?2dd?2vctools?2crt_bld?2self_x86?2c@ 10114bac     LIBCMTD:_file.obj
 0003:00015be4       ??_C@_0DB@OLNNDFNH@f?3?2dd?2vctools?2crt_bld?2self_x86?2c@ 10114be4     LIBCMTD:_sftbuf.obj
 0003:00015c20       ??_C@_1GC@DGAFOCMO@?$AAf?$AA?3?$AA?2?$AAd?$AAd?$AA?2?$AAv?$AAc?$AAt?$AAo?$AAo?$AAl?$AAs?$AA?2?$AAc?$AAr?$AAt?$AA_?$AAb?$AAl?$AAd?$AA?2?$AAs?$AAe?$AAl?$AAf?$AA_?$AAx?$AA8?$AA6?$AA?2?$AAc@ 10114c20     LIBCMTD:_sftbuf.obj
 0003:00015c98       ??_C@_1BI@MFCLPIBM@?$AAs?$AAt?$AAr?$AA?5?$AA?$CB?$AA?$DN?$AA?5?$AAN?$AAU?$AAL?$AAL?$AA?$AA@ 10114c98     LIBCMTD:_sftbuf.obj
 0003:00015cb4       ??_C@_1CO@KCKAACMI@?$AAf?$AAl?$AAa?$AAg?$AA?5?$AA?$DN?$AA?$DN?$AA?5?$AA0?$AA?5?$AA?$HM?$AA?$HM?$AA?5?$AAf?$AAl?$AAa?$AAg?$AA?5?$AA?$DN?$AA?$DN?$AA?5?$AA1?$AA?$AA@ 10114cb4     LIBCMTD:_sftbuf.obj
 0003:00015cec       ??_C@_1O@CEDCILHN@?$AA?$CI?$AAn?$AAu?$AAl?$AAl?$AA?$CJ?$AA?$AA@ 10114cec     LIBCMTD:output.obj
 0003:00015cfc       ??_C@_06OJHGLDPL@?$CInull?$CJ?$AA@ 10114cfc     LIBCMTD:output.obj
 0003:00015d08       ___lookuptable             10114d08     LIBCMTD:output.obj
 0003:00015d74       ??_C@_0DA@NFBEBPEE@f?3?2dd?2vctools?2crt_bld?2self_x86?2c@ 10114d74     LIBCMTD:output.obj
 0003:00015db0       ??_C@_1EK@PNGFDECN@?$AA?$CI?$AA?$CC?$AA?8?$AAn?$AA?8?$AA?5?$AAf?$AAo?$AAr?$AAm?$AAa?$AAt?$AA?5?$AAs?$AAp?$AAe?$AAc?$AAi?$AAf?$AAi?$AAe?$AAr?$AA?5?$AAd?$AAi?$AAs?$AAa?$AAb?$AAl?$AAe?$AAd?$AA?$CC@ 10114db0     LIBCMTD:output.obj
 0003:00015e08       ??_C@_1CC@IFFHEMNF@?$AA?$CI?$AAc?$AAh?$AA?5?$AA?$CB?$AA?$DN?$AA?5?$AA_?$AAT?$AA?$CI?$AA?8?$AA?2?$AA0?$AA?8?$AA?$CJ?$AA?$CJ?$AA?$AA@ 10114e08     LIBCMTD:output.obj
 0003:00015e30       ??_C@_1BAA@ODEGEDCK@?$AA?$CI?$AA?5?$AA?$CI?$AA_?$AAS?$AAt?$AAr?$AAe?$AAa?$AAm?$AA?9?$AA?$DO?$AA_?$AAf?$AAl?$AAa?$AAg?$AA?5?$AA?$CG?$AA?5?$AA_?$AAI?$AAO?$AAS?$AAT?$AAR?$AAG?$AA?$CJ?$AA?5?$AA?$HM?$AA?$HM?$AA?5@ 10114e30     LIBCMTD:output.obj
 0003:00015f64       ??_C@_1BE@IONLIDNC@?$AA_?$AAo?$AAu?$AAt?$AAp?$AAu?$AAt?$AA_?$AAl?$AA?$AA@ 10114f64     LIBCMTD:output.obj
 0003:00015f80       ??_C@_1GA@HHFOFBLN@?$AAf?$AA?3?$AA?2?$AAd?$AAd?$AA?2?$AAv?$AAc?$AAt?$AAo?$AAo?$AAl?$AAs?$AA?2?$AAc?$AAr?$AAt?$AA_?$AAb?$AAl?$AAd?$AA?2?$AAs?$AAe?$AAl?$AAf?$AA_?$AAx?$AA8?$AA6?$AA?2?$AAc@ 10114f80     LIBCMTD:output.obj
 0003:00015ff4       ??_C@_1CC@FADMNIL@?$AA?$CI?$AAs?$AAt?$AAr?$AAe?$AAa?$AAm?$AA?5?$AA?$CB?$AA?$DN?$AA?5?$AAN?$AAU?$AAL?$AAL?$AA?$CJ?$AA?$AA@ 10114ff4     LIBCMTD:output.obj
 0003:0001601c       ??_C@_1BG@KCMPBBDK@?$AA_?$AAg?$AAe?$AAt?$AA_?$AAe?$AAr?$AAr?$AAn?$AAo?$AA?$AA@ 1011501c     LIBCMTD:dosmap.obj
 0003:00016038       ??_C@_1GA@MFGIMPNL@?$AAf?$AA?3?$AA?2?$AAd?$AAd?$AA?2?$AAv?$AAc?$AAt?$AAo?$AAo?$AAl?$AAs?$AA?2?$AAc?$AAr?$AAt?$AA_?$AAb?$AAl?$AAd?$AA?2?$AAs?$AAe?$AAl?$AAf?$AA_?$AAx?$AA8?$AA6?$AA?2?$AAc@ 10115038     LIBCMTD:dosmap.obj
 0003:000160ac       ??_C@_1BM@INIPHHDD@?$AA_?$AAg?$AAe?$AAt?$AA_?$AAd?$AAo?$AAs?$AAe?$AAr?$AAr?$AAn?$AAo?$AA?$AA@ 101150ac     LIBCMTD:dosmap.obj
 0003:000160d0       ??_C@_1CC@CGHMNGDG@?$AAA?$AAs?$AAs?$AAe?$AAr?$AAt?$AAi?$AAo?$AAn?$AA?5?$AAF?$AAa?$AAi?$AAl?$AAe?$AAd?$AA?$AA@ 101150d0     LIBCMTD:dbgrptw.obj
 0003:000160f8       ??_C@_1M@ILHOPKA@?$AAE?$AAr?$AAr?$AAo?$AAr?$AA?$AA@ 101150f8     LIBCMTD:dbgrptw.obj
 0003:00016108       ??_C@_1BA@GLMCNLEM@?$AAW?$AAa?$AAr?$AAn?$AAi?$AAn?$AAg?$AA?$AA@ 10115108     LIBCMTD:dbgrptw.obj
 0003:0001612c       ??_C@_0DA@PCCBBBID@f?3?2dd?2vctools?2crt_bld?2self_x86?2c@ 1011512c     LIBCMTD:dbgrptw.obj
 0003:00016168       ??_C@_1FI@PHIAFFHM@?$AA?$CI?$AA?$CC?$AAT?$AAh?$AAe?$AA?5?$AAh?$AAo?$AAo?$AAk?$AA?5?$AAf?$AAu?$AAn?$AAc?$AAt?$AAi?$AAo?$AAn?$AA?5?$AAi?$AAs?$AA?5?$AAn?$AAo?$AAt?$AA?5?$AAi?$AAn?$AA?5?$AAt?$AAh@ 10115168     LIBCMTD:dbgrptw.obj
 0003:000161d4       ??_C@_1CG@JBJEFOCM@?$AAp?$AAf?$AAn?$AAN?$AAe?$AAw?$AAH?$AAo?$AAo?$AAk?$AA?5?$AA?$CB?$AA?$DN?$AA?5?$AAN?$AAU?$AAL?$AAL?$AA?$AA@ 101151d4     LIBCMTD:dbgrptw.obj
 0003:00016204       ??_C@_1CI@IIHEAKEI@?$AA_?$AAC?$AAr?$AAt?$AAS?$AAe?$AAt?$AAR?$AAe?$AAp?$AAo?$AAr?$AAt?$AAH?$AAo?$AAo?$AAk?$AAW?$AA2?$AA?$AA@ 10115204     LIBCMTD:dbgrptw.obj
 0003:00016238       ??_C@_1GA@IBJGKIFE@?$AAf?$AA?3?$AA?2?$AAd?$AAd?$AA?2?$AAv?$AAc?$AAt?$AAo?$AAo?$AAl?$AAs?$AA?2?$AAc?$AAr?$AAt?$AA_?$AAb?$AAl?$AAd?$AA?2?$AAs?$AAe?$AAl?$AAf?$AA_?$AAx?$AA8?$AA6?$AA?2?$AAc@ 10115238     LIBCMTD:dbgrptw.obj
 0003:000162b0       ??_C@_1HI@OFEHGPPC@?$AAm?$AAo?$AAd?$AAe?$AA?5?$AA?$DN?$AA?$DN?$AA?5?$AA_?$AAC?$AAR?$AAT?$AA_?$AAR?$AAP?$AAT?$AAH?$AAO?$AAO?$AAK?$AA_?$AAI?$AAN?$AAS?$AAT?$AAA?$AAL?$AAL?$AA?5?$AA?$HM?$AA?$HM?$AA?5@ 101152b0     LIBCMTD:dbgrptw.obj
 0003:00016340       ??_C@_1EG@PEOEAKBB@?$AAM?$AAi?$AAc?$AAr?$AAo?$AAs?$AAo?$AAf?$AAt?$AA?5?$AAV?$AAi?$AAs?$AAu?$AAa?$AAl?$AA?5?$AAC?$AA?$CL?$AA?$CL?$AA?5?$AAD?$AAe?$AAb?$AAu?$AAg?$AA?5?$AAL?$AAi?$AAb?$AAr?$AAa@ 10115340     LIBCMTD:dbgrptw.obj
 0003:00016398       ??_C@_1FG@BBOLDHGF@?$AA_?$AAC?$AAr?$AAt?$AAD?$AAb?$AAg?$AAR?$AAe?$AAp?$AAo?$AAr?$AAt?$AA?3?$AA?5?$AAS?$AAt?$AAr?$AAi?$AAn?$AAg?$AA?5?$AAt?$AAo?$AAo?$AA?5?$AAl?$AAo?$AAn?$AAg?$AA?5?$AAo@ 10115398     LIBCMTD:dbgrptw.obj
 0003:00016400       ??_C@_1JI@EACPGHID@?$AAw?$AAc?$AAs?$AAc?$AAp?$AAy?$AA_?$AAs?$AA?$CI?$AAs?$AAz?$AAO?$AAu?$AAt?$AAM?$AAe?$AAs?$AAs?$AAa?$AAg?$AAe?$AA?0?$AA?5?$AA4?$AA0?$AA9?$AA6?$AA?0?$AA?5?$AAL?$AA?$CC?$AA_@ 10115400     LIBCMTD:dbgrptw.obj
 0003:000164b8       ??_C@_1KK@MEFMPOLM@?$AAD?$AAe?$AAb?$AAu?$AAg?$AA?5?$AA?$CF?$AAs?$AA?$CB?$AA?6?$AA?6?$AAP?$AAr?$AAo?$AAg?$AAr?$AAa?$AAm?$AA?3?$AA?5?$AA?$CF?$AAs?$AA?$CF?$AAs?$AA?$CF?$AAs?$AA?$CF?$AAs?$AA?$CF?$AAs?$AA?$CF?$AAs@ 101154b8     LIBCMTD:dbgrptw.obj
 0003:00016584       ??_C@_1BE@CGCJKGHI@?$AA?6?$AAM?$AAo?$AAd?$AAu?$AAl?$AAe?$AA?3?$AA?5?$AA?$AA@ 10115584     LIBCMTD:dbgrptw.obj
 0003:0001659c       ??_C@_1BA@LNHECFIM@?$AA?6?$AAF?$AAi?$AAl?$AAe?$AA?3?$AA?5?$AA?$AA@ 1011559c     LIBCMTD:dbgrptw.obj
 0003:000165b0       ??_C@_1BA@GLLGCPCK@?$AA?6?$AAL?$AAi?$AAn?$AAe?$AA?3?$AA?5?$AA?$AA@ 101155b0     LIBCMTD:dbgrptw.obj
 0003:000165c4       ??_C@_1BK@PEDCIPMA@?$AAE?$AAx?$AAp?$AAr?$AAe?$AAs?$AAs?$AAi?$AAo?$AAn?$AA?3?$AA?5?$AA?$AA@ 101155c4     LIBCMTD:dbgrptw.obj
 0003:000165e4       ??_C@_11LOCGONAA@?$AA?$AA@ 101155e4     LIBCMTD:dbgrptw.obj
 0003:000165e8       ??_C@_1OG@PMPPFHAF@?$AA?6?$AA?6?$AAF?$AAo?$AAr?$AA?5?$AAi?$AAn?$AAf?$AAo?$AAr?$AAm?$AAa?$AAt?$AAi?$AAo?$AAn?$AA?5?$AAo?$AAn?$AA?5?$AAh?$AAo?$AAw?$AA?5?$AAy?$AAo?$AAu?$AAr?$AA?5?$AAp?$AAr@ 101155e8     LIBCMTD:dbgrptw.obj
 0003:00016700       ??_C@_1NO@LECLLHOL@?$AAm?$AAe?$AAm?$AAc?$AAp?$AAy?$AA_?$AAs?$AA?$CI?$AAs?$AAz?$AAS?$AAh?$AAo?$AAr?$AAt?$AAP?$AAr?$AAo?$AAg?$AAN?$AAa?$AAm?$AAe?$AA?0?$AA?5?$AAs?$AAi?$AAz?$AAe?$AAo?$AAf@ 10115700     LIBCMTD:dbgrptw.obj
 0003:00016810       ??_C@_1GI@DEDNNLCI@?$AAw?$AAc?$AAs?$AAc?$AAp?$AAy?$AA_?$AAs?$AA?$CI?$AAs?$AAz?$AAE?$AAx?$AAe?$AAN?$AAa?$AAm?$AAe?$AA?0?$AA?5?$AA2?$AA6?$AA0?$AA?0?$AA?5?$AAL?$AA?$CC?$AA?$DM?$AAp?$AAr?$AAo?$AAg@ 10115810     LIBCMTD:dbgrptw.obj
 0003:0001688c       ??_C@_1CI@PGJIFDEK@?$AA_?$AA_?$AAc?$AAr?$AAt?$AAM?$AAe?$AAs?$AAs?$AAa?$AAg?$AAe?$AAW?$AAi?$AAn?$AAd?$AAo?$AAw?$AAW?$AA?$AA@ 1011588c     LIBCMTD:dbgrptw.obj
 0003:000168bc       ??_C@_1BO@JGFPDJCP@?$AAv?$AAp?$AAr?$AAi?$AAn?$AAt?$AAf?$AA_?$AAh?$AAe?$AAl?$AAp?$AAe?$AAr?$AA?$AA@ 101158bc     LIBCMTD:vprintf.obj
 0003:000168e0       ??_C@_1GC@DHFFJKMC@?$AAf?$AA?3?$AA?2?$AAd?$AAd?$AA?2?$AAv?$AAc?$AAt?$AAo?$AAo?$AAl?$AAs?$AA?2?$AAc?$AAr?$AAt?$AA_?$AAb?$AAl?$AAd?$AA?2?$AAs?$AAe?$AAl?$AAf?$AA_?$AAx?$AA8?$AA6?$AA?2?$AAc@ 101158e0     LIBCMTD:vprintf.obj
 0003:00016958       ??_C@_0DC@LMJHGCKC@f?3?2dd?2vctools?2crt_bld?2self_x86?2c@ 10115958     LIBCMTD:tidtable.obj
 0003:00016994       ??_C@_07PEJMOBNF@FlsFree?$AA@ 10115994     LIBCMTD:tidtable.obj
 0003:000169a0       ??_C@_0M@JCPCPOEF@FlsSetValue?$AA@ 101159a0     LIBCMTD:tidtable.obj
 0003:000169b0       ??_C@_0M@GDNOONDI@FlsGetValue?$AA@ 101159b0     LIBCMTD:tidtable.obj
 0003:000169c0       ??_C@_08KNHFBNJ@FlsAlloc?$AA@ 101159c0     LIBCMTD:tidtable.obj
 0003:000169cc       ??_C@_1BK@DBDEIDLH@?$AAK?$AAE?$AAR?$AAN?$AAE?$AAL?$AA3?$AA2?$AA?4?$AAD?$AAL?$AAL?$AA?$AA@ 101159cc     LIBCMTD:tidtable.obj
 0003:000169ec       ??_C@_0DA@NBLAKPEL@f?3?2dd?2vctools?2crt_bld?2self_x86?2c@ 101159ec     LIBCMTD:ioinit.obj
 0003:00016a28       ??_C@_1DE@MMOGFGHF@?$AAs?$AAt?$AAr?$AAc?$AAp?$AAy?$AA_?$AAs?$AA?$CI?$AA?$CK?$AAe?$AAn?$AAv?$AA?0?$AA?5?$AAc?$AAc?$AAh?$AAa?$AAr?$AAs?$AA?0?$AA?5?$AAp?$AA?$CJ?$AA?$AA@ 10115a28     LIBCMTD:stdenvp.obj
 0003:00016a68       ??_C@_1BC@GHMCNHHL@?$AA_?$AAs?$AAe?$AAt?$AAe?$AAn?$AAv?$AAp?$AA?$AA@ 10115a68     LIBCMTD:stdenvp.obj
 0003:00016a80       ??_C@_1GC@DGBFLDBN@?$AAf?$AA?3?$AA?2?$AAd?$AAd?$AA?2?$AAv?$AAc?$AAt?$AAo?$AAo?$AAl?$AAs?$AA?2?$AAc?$AAr?$AAt?$AA_?$AAb?$AAl?$AAd?$AA?2?$AAs?$AAe?$AAl?$AAf?$AA_?$AAx?$AA8?$AA6?$AA?2?$AAc@ 10115a80     LIBCMTD:stdenvp.obj
 0003:00016af8       ??_C@_0DB@BMEBJJKP@f?3?2dd?2vctools?2crt_bld?2self_x86?2c@ 10115af8     LIBCMTD:stdenvp.obj
 0003:00016b34       ??_C@_0DB@OEPBJOLC@f?3?2dd?2vctools?2crt_bld?2self_x86?2c@ 10115b34     LIBCMTD:stdargv.obj
 0003:00016b70       ??_C@_0CP@PPLBCJDN@f?3?2dd?2vctools?2crt_bld?2self_x86?2c@ 10115b70     LIBCMTD:a_env.obj
 0003:00016ba8       ??_C@_1GE@JDDMFOID@?$AAf?$AA?3?$AA?2?$AAd?$AAd?$AA?2?$AAv?$AAc?$AAt?$AAo?$AAo?$AAl?$AAs?$AA?2?$AAc?$AAr?$AAt?$AA_?$AAb?$AAl?$AAd?$AA?2?$AAs?$AAe?$AAl?$AAf?$AA_?$AAx?$AA8?$AA6?$AA?2?$AAc@ 10115ba8     LIBCMTD:heapinit.obj
 0003:00016c20       ??_C@_1BC@DENNNKIM@?$AA_?$AAc?$AAr?$AAt?$AAh?$AAe?$AAa?$AAp?$AA?$AA@ 10115c20     LIBCMTD:heapinit.obj
 0003:00016c38       __XcptActTab               10115c38     LIBCMTD:winxfltr.obj
 0003:00016cc8       __First_FPE_Indx           10115cc8     LIBCMTD:winxfltr.obj
 0003:00016ccc       __Num_FPE                  10115ccc     LIBCMTD:winxfltr.obj
 0003:00016cd0       __XcptActTabSize           10115cd0     LIBCMTD:winxfltr.obj
 0003:00016cd4       __XcptActTabCount          10115cd4     LIBCMTD:winxfltr.obj
 0003:00016d74       ??_C@_03IIINPABG@tan?$AA@  10115d74     LIBCMTD:_libm_error_.obj
 0003:00016d78       ??_C@_03LALBNOCG@cos?$AA@  10115d78     LIBCMTD:_libm_error_.obj
 0003:00016d7c       ??_C@_03BLEJJJBH@sin?$AA@  10115d7c     LIBCMTD:_libm_error_.obj
 0003:00016d80       ??_C@_04EHEDPDJG@modf?$AA@ 10115d80     LIBCMTD:_libm_error_.obj
 0003:00016d88       ??_C@_05PBJFFIGL@floor?$AA@ 10115d88     LIBCMTD:_libm_error_.obj
 0003:00016d90       ??_C@_04GFPJNGEK@ceil?$AA@ 10115d90     LIBCMTD:_libm_error_.obj
 0003:00016d98       ??_C@_04MLLJIGOK@atan?$AA@ 10115d98     LIBCMTD:_libm_error_.obj
 0003:00016da0       ??_C@_05EOHGHCHD@exp10?$AA@ 10115da0     LIBCMTD:_libm_error_.obj
 0003:00016da8       ??_C@_04PDIFKINK@acos?$AA@ 10115da8     LIBCMTD:_libm_error_.obj
 0003:00016db0       ??_C@_04FIHNOPOL@asin?$AA@ 10115db0     LIBCMTD:_libm_error_.obj
 0003:00016db8       ??_C@_03JGHBODFD@pow?$AA@  10115db8     LIBCMTD:_libm_error_.obj
 0003:00016dbc       ??_C@_03KHJOGHMM@exp?$AA@  10115dbc     LIBCMTD:_libm_error_.obj
 0003:00016dc0       ??_C@_05HGHHAHAP@log10?$AA@ 10115dc0     LIBCMTD:_libm_error_.obj
 0003:00016dc8       ??_C@_03MGHMBJCF@log?$AA@  10115dc8     LIBCMTD:_libm_error_.obj
 0003:0001b290       __infinity                 1011a290     LIBCMTD:_87tran_.obj
 0003:0001b29a       __minfinity                1011a29a     LIBCMTD:_87tran_.obj
 0003:0001b2a4       __logemax                  1011a2a4     LIBCMTD:_87tran_.obj
 0003:0001b2ca       __OP_EXPjmptab             1011a2ca     LIBCMTD:_87tran_.obj
 0003:0001b308       __DEFAULT_CW_in_mem        1011a308     LIBCMTD:_common_.obj
 0003:0001b30a       __pi_by_2_to_61            1011a30a     LIBCMTD:_common_.obj
 0003:0001ed34       ??_7exception@std@@6B@     1011dd34     LIBCMTD:stdexcpt.obj
 0003:0001ed40       ??_C@_0BC@EOODALEL@Unknown?5exception?$AA@ 1011dd40     LIBCMTD:stdexcpt.obj
 0003:0001ed5c       ??_7bad_cast@std@@6B@      1011dd5c     LIBCMTD:stdexcpt.obj
 0003:0001ed6c       ??_7bad_typeid@std@@6B@    1011dd6c     LIBCMTD:stdexcpt.obj
 0003:0001ed7c       ??_7__non_rtti_object@std@@6B@ 1011dd7c     LIBCMTD:stdexcpt.obj
 0003:0001ed88       ??_C@_0CP@MKONOLCI@f?3?2dd?2vctools?2crt_bld?2self_x86?2c@ 1011dd88     LIBCMTD:mlock.obj
 0003:0001edc0       ??_C@_1GG@CDHAPCGF@?$AAf?$AA?3?$AA?2?$AAd?$AAd?$AA?2?$AAv?$AAc?$AAt?$AAo?$AAo?$AAl?$AAs?$AA?2?$AAc?$AAr?$AAt?$AA_?$AAb?$AAl?$AAd?$AA?2?$AAs?$AAe?$AAl?$AAf?$AA_?$AAx?$AA8?$AA6?$AA?2?$AAc@ 1011ddc0     LIBCMTD:handler.obj
 0003:0001ee3c       ??_C@_1BC@JLLICHIC@?$AAp?$AAn?$AAh?$AA?5?$AA?$DN?$AA?$DN?$AA?5?$AA0?$AA?$AA@ 1011de3c     LIBCMTD:handler.obj
 0003:0001ee54       ??_C@_1BC@MJNBEDIJ@?$AA_?$AAi?$AAn?$AAp?$AAu?$AAt?$AA_?$AAl?$AA?$AA@ 1011de54     LIBCMTD:input.obj
 0003:0001ee70       ??_C@_1FO@LDDBLKJ@?$AAf?$AA?3?$AA?2?$AAd?$AAd?$AA?2?$AAv?$AAc?$AAt?$AAo?$AAo?$AAl?$AAs?$AA?2?$AAc?$AAr?$AAt?$AA_?$AAb?$AAl?$AAd?$AA?2?$AAs?$AAe?$AAl?$AAf?$AA_?$AAx?$AA8?$AA6?$AA?2?$AAc@ 1011de70     LIBCMTD:input.obj
 0003:0001eee0       ??_C@_0CP@MMGCGBFO@f?3?2dd?2vctools?2crt_bld?2self_x86?2c@ 1011dee0     LIBCMTD:input.obj
 0003:0001ef18       ??_C@_1DO@MBOKMJPK@?$AAn?$AAF?$AAl?$AAo?$AAa?$AAt?$AAS?$AAt?$AAr?$AAU?$AAs?$AAe?$AAd?$AA?$DM?$AA?$DN?$AA?$CI?$AA?$CK?$AAp?$AAn?$AAF?$AAl?$AAo?$AAa?$AAt?$AAS?$AAt?$AAr?$AAS?$AAz?$AA?$CJ?$AA?$AA@ 1011df18     LIBCMTD:input.obj
 0003:0001ef64       ??_C@_1DG@MPPGJOHD@?$AA?$CI?$AA?$CC?$AAI?$AAn?$AAv?$AAa?$AAl?$AAi?$AAd?$AA?5?$AAI?$AAn?$AAp?$AAu?$AAt?$AA?5?$AAF?$AAo?$AAr?$AAm?$AAa?$AAt?$AA?$CC?$AA?0?$AA0?$AA?$CJ?$AA?$AA@ 1011df64     LIBCMTD:inputs.obj
 0003:0001efa4       ??_C@_1BG@LBKFJFHM@?$AA_?$AAi?$AAn?$AAp?$AAu?$AAt?$AA_?$AAs?$AA_?$AAl?$AA?$AA@ 1011dfa4     LIBCMTD:inputs.obj
 0003:0001efc0       ??_C@_1GC@CHGJNMHG@?$AAf?$AA?3?$AA?2?$AAd?$AAd?$AA?2?$AAv?$AAc?$AAt?$AAo?$AAo?$AAl?$AAs?$AA?2?$AAc?$AAr?$AAt?$AA_?$AAb?$AAl?$AAd?$AA?2?$AAs?$AAe?$AAl?$AAf?$AA_?$AAx?$AA8?$AA6?$AA?2?$AAc@ 1011dfc0     LIBCMTD:isctype.obj
 0003:0001f038       ??_C@_1DC@BPLPALML@?$AA?$CI?$AAu?$AAn?$AAs?$AAi?$AAg?$AAn?$AAe?$AAd?$AA?$CJ?$AA?$CI?$AAc?$AA?5?$AA?$CL?$AA?5?$AA1?$AA?$CJ?$AA?5?$AA?$DM?$AA?$DN?$AA?5?$AA2?$AA5?$AA6?$AA?$AA@ 1011e038     LIBCMTD:isctype.obj
 0003:0001f074       ??_C@_0DB@MHMEONEC@f?3?2dd?2vctools?2crt_bld?2self_x86?2c@ 1011e074     LIBCMTD:mbctype.obj
 0003:0001f0b0       ??_C@_1GE@HMAALBPJ@?$AAf?$AA?3?$AA?2?$AAd?$AAd?$AA?2?$AAv?$AAc?$AAt?$AAo?$AAo?$AAl?$AAs?$AA?2?$AAc?$AAr?$AAt?$AA_?$AAb?$AAl?$AAd?$AA?2?$AAs?$AAe?$AAl?$AAf?$AA_?$AAx?$AA8?$AA6?$AA?2?$AAc@ 1011e0b0     LIBCMTD:localref.obj
 0003:0001f128       ??_C@_1BKC@GGIENNAK@?$AA?$CI?$AA?$CI?$AAp?$AAt?$AAl?$AAo?$AAc?$AAi?$AA?9?$AA?$DO?$AAl?$AAc?$AA_?$AAc?$AAa?$AAt?$AAe?$AAg?$AAo?$AAr?$AAy?$AA?$FL?$AAc?$AAa?$AAt?$AAe?$AAg?$AAo?$AAr?$AAy?$AA?$FN?$AA?4@ 1011e128     LIBCMTD:localref.obj
 0003:0001f320       ??_C@_1BC@GDGBMEMK@?$AAH?$AAH?$AA?3?$AAm?$AAm?$AA?3?$AAs?$AAs?$AA?$AA@ 1011e320     LIBCMTD:nlsdata2.obj
 0003:0001f338       ??_C@_1CI@KNAKOEBC@?$AAd?$AAd?$AAd?$AAd?$AA?0?$AA?5?$AAM?$AAM?$AAM?$AAM?$AA?5?$AAd?$AAd?$AA?0?$AA?5?$AAy?$AAy?$AAy?$AAy?$AA?$AA@ 1011e338     LIBCMTD:nlsdata2.obj
 0003:0001f368       ??_C@_1BC@IEBCMHCM@?$AAM?$AAM?$AA?1?$AAd?$AAd?$AA?1?$AAy?$AAy?$AA?$AA@ 1011e368     LIBCMTD:nlsdata2.obj
 0003:0001f380       ??_C@_15CLMNNGEL@?$AAP?$AAM?$AA?$AA@ 1011e380     LIBCMTD:nlsdata2.obj
 0003:0001f388       ??_C@_15ODEHAHHF@?$AAA?$AAM?$AA?$AA@ 1011e388     LIBCMTD:nlsdata2.obj
 0003:0001f390       ??_C@_1BC@FEMKIFH@?$AAD?$AAe?$AAc?$AAe?$AAm?$AAb?$AAe?$AAr?$AA?$AA@ 1011e390     LIBCMTD:nlsdata2.obj
 0003:0001f3a8       ??_C@_1BC@BGLIFPF@?$AAN?$AAo?$AAv?$AAe?$AAm?$AAb?$AAe?$AAr?$AA?$AA@ 1011e3a8     LIBCMTD:nlsdata2.obj
 0003:0001f3c0       ??_C@_1BA@EPANDLNG@?$AAO?$AAc?$AAt?$AAo?$AAb?$AAe?$AAr?$AA?$AA@ 1011e3c0     LIBCMTD:nlsdata2.obj
 0003:0001f3d4       ??_C@_1BE@DKAAMBJL@?$AAS?$AAe?$AAp?$AAt?$AAe?$AAm?$AAb?$AAe?$AAr?$AA?$AA@ 1011e3d4     LIBCMTD:nlsdata2.obj
 0003:0001f3ec       ??_C@_1O@PAHLKOAC@?$AAA?$AAu?$AAg?$AAu?$AAs?$AAt?$AA?$AA@ 1011e3ec     LIBCMTD:nlsdata2.obj
 0003:0001f3fc       ??_C@_19BIFMLPCD@?$AAJ?$AAu?$AAl?$AAy?$AA?$AA@ 1011e3fc     LIBCMTD:nlsdata2.obj
 0003:0001f408       ??_C@_19EPFLPGAP@?$AAJ?$AAu?$AAn?$AAe?$AA?$AA@ 1011e408     LIBCMTD:nlsdata2.obj
 0003:0001f414       ??_C@_1M@GJNLMHFD@?$AAA?$AAp?$AAr?$AAi?$AAl?$AA?$AA@ 1011e414     LIBCMTD:nlsdata2.obj
 0003:0001f424       ??_C@_1M@IKEENEDF@?$AAM?$AAa?$AAr?$AAc?$AAh?$AA?$AA@ 1011e424     LIBCMTD:nlsdata2.obj
 0003:0001f434       ??_C@_1BC@JGDDFFAM@?$AAF?$AAe?$AAb?$AAr?$AAu?$AAa?$AAr?$AAy?$AA?$AA@ 1011e434     LIBCMTD:nlsdata2.obj
 0003:0001f44c       ??_C@_1BA@EFMEIEBA@?$AAJ?$AAa?$AAn?$AAu?$AAa?$AAr?$AAy?$AA?$AA@ 1011e44c     LIBCMTD:nlsdata2.obj
 0003:0001f460       ??_C@_17EGKACKIF@?$AAD?$AAe?$AAc?$AA?$AA@ 1011e460     LIBCMTD:nlsdata2.obj
 0003:0001f46c       ??_C@_17BBDMLCIG@?$AAN?$AAo?$AAv?$AA?$AA@ 1011e46c     LIBCMTD:nlsdata2.obj
 0003:0001f478       ??_C@_17FNLKOI@?$AAO?$AAc?$AAt?$AA?$AA@ 1011e478     LIBCMTD:nlsdata2.obj
 0003:0001f484       ??_C@_17HCHCOKMG@?$AAS?$AAe?$AAp?$AA?$AA@ 1011e484     LIBCMTD:nlsdata2.obj
 0003:0001f490       ??_C@_17ICPELBCN@?$AAA?$AAu?$AAg?$AA?$AA@ 1011e490     LIBCMTD:nlsdata2.obj
 0003:0001f49c       ??_C@_17IJPCKHK@?$AAJ?$AAu?$AAl?$AA?$AA@ 1011e49c     LIBCMTD:nlsdata2.obj
 0003:0001f4a8       ??_C@_17KCJGOCPB@?$AAJ?$AAu?$AAn?$AA?$AA@ 1011e4a8     LIBCMTD:nlsdata2.obj
 0003:0001f4b4       ??_C@_17PNNKMEED@?$AAM?$AAa?$AAy?$AA?$AA@ 1011e4b4     LIBCMTD:nlsdata2.obj
 0003:0001f4c0       ??_C@_17LFPOIHDD@?$AAA?$AAp?$AAr?$AA?$AA@ 1011e4c0     LIBCMTD:nlsdata2.obj
 0003:0001f4cc       ??_C@_17CKNLEDEC@?$AAM?$AAa?$AAr?$AA?$AA@ 1011e4cc     LIBCMTD:nlsdata2.obj
 0003:0001f4d8       ??_C@_17LMDJEKJN@?$AAF?$AAe?$AAb?$AA?$AA@ 1011e4d8     LIBCMTD:nlsdata2.obj
 0003:0001f4e4       ??_C@_17DKNBKCHM@?$AAJ?$AAa?$AAn?$AA?$AA@ 1011e4e4     LIBCMTD:nlsdata2.obj
 0003:0001f4f0       ??_C@_1BC@ENMNNPAJ@?$AAS?$AAa?$AAt?$AAu?$AAr?$AAd?$AAa?$AAy?$AA?$AA@ 1011e4f0     LIBCMTD:nlsdata2.obj
 0003:0001f508       ??_C@_1O@PDICJHAG@?$AAF?$AAr?$AAi?$AAd?$AAa?$AAy?$AA?$AA@ 1011e508     LIBCMTD:nlsdata2.obj
 0003:0001f518       ??_C@_1BC@HHMNLIHE@?$AAT?$AAh?$AAu?$AAr?$AAs?$AAd?$AAa?$AAy?$AA?$AA@ 1011e518     LIBCMTD:nlsdata2.obj
 0003:0001f530       ??_C@_1BE@EBOGMDOH@?$AAW?$AAe?$AAd?$AAn?$AAe?$AAs?$AAd?$AAa?$AAy?$AA?$AA@ 1011e530     LIBCMTD:nlsdata2.obj
 0003:0001f548       ??_C@_1BA@ENFBFFEK@?$AAT?$AAu?$AAe?$AAs?$AAd?$AAa?$AAy?$AA?$AA@ 1011e548     LIBCMTD:nlsdata2.obj
 0003:0001f55c       ??_C@_1O@MMNBFLIA@?$AAM?$AAo?$AAn?$AAd?$AAa?$AAy?$AA?$AA@ 1011e55c     LIBCMTD:nlsdata2.obj
 0003:0001f56c       ??_C@_1O@IHNHDHPB@?$AAS?$AAu?$AAn?$AAd?$AAa?$AAy?$AA?$AA@ 1011e56c     LIBCMTD:nlsdata2.obj
 0003:0001f57c       ??_C@_17GGIBDPIH@?$AAS?$AAa?$AAt?$AA?$AA@ 1011e57c     LIBCMTD:nlsdata2.obj
 0003:0001f588       ??_C@_17HFOLPPLP@?$AAF?$AAr?$AAi?$AA?$AA@ 1011e588     LIBCMTD:nlsdata2.obj
 0003:0001f594       ??_C@_17PDPHAADD@?$AAT?$AAh?$AAu?$AA?$AA@ 1011e594     LIBCMTD:nlsdata2.obj
 0003:0001f5a0       ??_C@_17CJEDCEPE@?$AAW?$AAe?$AAd?$AA?$AA@ 1011e5a0     LIBCMTD:nlsdata2.obj
 0003:0001f5ac       ??_C@_17BMKGEGOJ@?$AAT?$AAu?$AAe?$AA?$AA@ 1011e5ac     LIBCMTD:nlsdata2.obj
 0003:0001f5b8       ??_C@_17KBOMKBF@?$AAM?$AAo?$AAn?$AA?$AA@ 1011e5b8     LIBCMTD:nlsdata2.obj
 0003:0001f5c4       ??_C@_17MBGCMIPB@?$AAS?$AAu?$AAn?$AA?$AA@ 1011e5c4     LIBCMTD:nlsdata2.obj
 0003:0001f5d0       ??_C@_08JCCMCCIL@HH?3mm?3ss?$AA@ 1011e5d0     LIBCMTD:nlsdata2.obj
 0003:0001f5dc       ??_C@_0BE@CKGJFCPC@dddd?0?5MMMM?5dd?0?5yyyy?$AA@ 1011e5dc     LIBCMTD:nlsdata2.obj
 0003:0001f5f4       ??_C@_08BPBNCDIB@MM?1dd?1yy?$AA@ 1011e5f4     LIBCMTD:nlsdata2.obj
 0003:0001f600       ??_C@_02CJNFDJBF@PM?$AA@   1011e600     LIBCMTD:nlsdata2.obj
 0003:0001f604       ??_C@_02DEDBPAFC@AM?$AA@   1011e604     LIBCMTD:nlsdata2.obj
 0003:0001f608       ??_C@_08EDHMEBNP@December?$AA@ 1011e608     LIBCMTD:nlsdata2.obj
 0003:0001f614       ??_C@_08HCHEGEOA@November?$AA@ 1011e614     LIBCMTD:nlsdata2.obj
 0003:0001f620       ??_C@_07JJNFCEND@October?$AA@ 1011e620     LIBCMTD:nlsdata2.obj
 0003:0001f62c       ??_C@_09BHHEALKD@September?$AA@ 1011e62c     LIBCMTD:nlsdata2.obj
 0003:0001f638       ??_C@_06LBBHFDDG@August?$AA@ 1011e638     LIBCMTD:nlsdata2.obj
 0003:0001f640       ??_C@_04MIEPOIFP@July?$AA@ 1011e640     LIBCMTD:nlsdata2.obj
 0003:0001f648       ??_C@_04CNLMGBGM@June?$AA@ 1011e648     LIBCMTD:nlsdata2.obj
 0003:0001f650       ??_C@_05DMJDNLEJ@April?$AA@ 1011e650     LIBCMTD:nlsdata2.obj
 0003:0001f658       ??_C@_05HPCKOFNC@March?$AA@ 1011e658     LIBCMTD:nlsdata2.obj
 0003:0001f660       ??_C@_08GNJGEPFN@February?$AA@ 1011e660     LIBCMTD:nlsdata2.obj
 0003:0001f66c       ??_C@_07CGJPFGJA@January?$AA@ 1011e66c     LIBCMTD:nlsdata2.obj
 0003:0001f678       ??_C@_03MKABNOCG@Dec?$AA@  1011e678     LIBCMTD:nlsdata2.obj
 0003:0001f67c       ??_C@_03JPJOFNIA@Nov?$AA@  1011e67c     LIBCMTD:nlsdata2.obj
 0003:0001f680       ??_C@_03BMAOKBAD@Oct?$AA@  1011e680     LIBCMTD:nlsdata2.obj
 0003:0001f684       ??_C@_03GGCAPAJC@Sep?$AA@  1011e684     LIBCMTD:nlsdata2.obj
 0003:0001f688       ??_C@_03IFJFEIGA@Aug?$AA@  1011e688     LIBCMTD:nlsdata2.obj
 0003:0001f68c       ??_C@_03LBGABGKK@Jul?$AA@  1011e68c     LIBCMTD:nlsdata2.obj
 0003:0001f690       ??_C@_03IDFGHECI@Jun?$AA@  1011e690     LIBCMTD:nlsdata2.obj
 0003:0001f694       ??_C@_03CNMDKL@May?$AA@    1011e694     LIBCMTD:nlsdata2.obj
 0003:0001f698       ??_C@_03LEOLGMJP@Apr?$AA@  1011e698     LIBCMTD:nlsdata2.obj
 0003:0001f69c       ??_C@_03ODNJBKGA@Mar?$AA@  1011e69c     LIBCMTD:nlsdata2.obj
 0003:0001f6a0       ??_C@_03HJBDCHOM@Feb?$AA@  1011e6a0     LIBCMTD:nlsdata2.obj
 0003:0001f6a4       ??_C@_03JIHJHPIE@Jan?$AA@  1011e6a4     LIBCMTD:nlsdata2.obj
 0003:0001f6a8       ??_C@_08INBOOONO@Saturday?$AA@ 1011e6a8     LIBCMTD:nlsdata2.obj
 0003:0001f6b4       ??_C@_06JECMNKMI@Friday?$AA@ 1011e6b4     LIBCMTD:nlsdata2.obj
 0003:0001f6bc       ??_C@_08HACCIKIA@Thursday?$AA@ 1011e6bc     LIBCMTD:nlsdata2.obj
 0003:0001f6c8       ??_C@_09DLIGFAKA@Wednesday?$AA@ 1011e6c8     LIBCMTD:nlsdata2.obj
 0003:0001f6d4       ??_C@_07BAAGCFCM@Tuesday?$AA@ 1011e6d4     LIBCMTD:nlsdata2.obj
 0003:0001f6e0       ??_C@_06JLEDEDGH@Monday?$AA@ 1011e6e0     LIBCMTD:nlsdata2.obj
 0003:0001f6e8       ??_C@_06OOPIFAJ@Sunday?$AA@ 1011e6e8     LIBCMTD:nlsdata2.obj
 0003:0001f6f0       ??_C@_03FEFJNEK@Sat?$AA@   1011e6f0     LIBCMTD:nlsdata2.obj
 0003:0001f6f4       ??_C@_03IDIOELNC@Fri?$AA@  1011e6f4     LIBCMTD:nlsdata2.obj
 0003:0001f6f8       ??_C@_03IOFIKPDN@Thu?$AA@  1011e6f8     LIBCMTD:nlsdata2.obj
 0003:0001f6fc       ??_C@_03MHOMLAJA@Wed?$AA@  1011e6fc     LIBCMTD:nlsdata2.obj
 0003:0001f700       ??_C@_03NAGEINEP@Tue?$AA@  1011e700     LIBCMTD:nlsdata2.obj
 0003:0001f704       ??_C@_03PDAGKDH@Mon?$AA@   1011e704     LIBCMTD:nlsdata2.obj
 0003:0001f708       ??_C@_03KOEHGMDN@Sun?$AA@  1011e708     LIBCMTD:nlsdata2.obj
 0003:0001f70c       ??_C@_1BO@IHLJHOPI@?$AA_?$AA_?$AAs?$AAt?$AAr?$AAg?$AAt?$AAo?$AAl?$AAd?$AA1?$AA2?$AA_?$AAl?$AA?$AA@ 1011e70c     LIBCMTD:_strgtold_.obj
 0003:0001f730       ??_C@_1IG@IGKPPFIM@?$AAf?$AA?3?$AA?2?$AAd?$AAd?$AA?2?$AAv?$AAc?$AAt?$AAo?$AAo?$AAl?$AAs?$AA?2?$AAc?$AAr?$AAt?$AA_?$AAb?$AAl?$AAd?$AA?2?$AAs?$AAe?$AAl?$AAf?$AA_?$AAx?$AA8?$AA6?$AA?2?$AAc@ 1011e730     LIBCMTD:_strgtold_.obj
 0003:0001f7d0       ??_C@_1CA@MBDBOHIB@?$AA_?$AAL?$AAo?$AAc?$AAa?$AAl?$AAe?$AA?5?$AA?$CB?$AA?$DN?$AA?5?$AAN?$AAU?$AAL?$AAL?$AA?$AA@ 1011e7d0     LIBCMTD:_strgtold_.obj
 0003:0001f7f8       ??_C@_1HO@MLMGPAFH@?$AA?$CI?$AA?$CC?$AAi?$AAn?$AAc?$AAo?$AAn?$AAs?$AAi?$AAs?$AAt?$AAe?$AAn?$AAt?$AA?5?$AAI?$AAO?$AAB?$AA?5?$AAf?$AAi?$AAe?$AAl?$AAd?$AAs?$AA?$CC?$AA?0?$AA?5?$AAs?$AAt?$AAr?$AAe@ 1011e7f8     LIBCMTD:_flsbuf.obj
 0003:0001f890       ??_C@_1GC@GNCCMPNN@?$AAf?$AA?3?$AA?2?$AAd?$AAd?$AA?2?$AAv?$AAc?$AAt?$AAo?$AAo?$AAl?$AAs?$AA?2?$AAc?$AAr?$AAt?$AA_?$AAb?$AAl?$AAd?$AA?2?$AAs?$AAe?$AAl?$AAf?$AA_?$AAx?$AA8?$AA6?$AA?2?$AAc@ 1011e890     LIBCMTD:_flsbuf.obj
 0003:0001f908       ??_C@_1GA@INJGGEBC@?$AAf?$AA?3?$AA?2?$AAd?$AAd?$AA?2?$AAv?$AAc?$AAt?$AAo?$AAo?$AAl?$AAs?$AA?2?$AAc?$AAr?$AAt?$AA_?$AAb?$AAl?$AAd?$AA?2?$AAs?$AAe?$AAl?$AAf?$AA_?$AAx?$AA8?$AA6?$AA?2?$AAc@ 1011e908     LIBCMTD:a_map.obj
 0003:0001f980       ??_C@_1FE@KNPCCODH@?$AA?$CI?$AA?$CC?$AAC?$AAo?$AAr?$AAr?$AAu?$AAp?$AAt?$AAe?$AAd?$AA?5?$AAp?$AAo?$AAi?$AAn?$AAt?$AAe?$AAr?$AA?5?$AAp?$AAa?$AAs?$AAs?$AAe?$AAd?$AA?5?$AAt?$AAo?$AA?5?$AA_?$AAf@ 1011e980     LIBCMTD:a_map.obj
 0003:0001f9e4       ??_C@_07LCBHPJJN@LC_TIME?$AA@ 1011e9e4     LIBCMTD:setlocal.obj
 0003:0001f9f0       ??_C@_0L@DLHIECNL@LC_NUMERIC?$AA@ 1011e9f0     LIBCMTD:setlocal.obj
 0003:0001fa00       ??_C@_0M@MIENIKLA@LC_MONETARY?$AA@ 1011ea00     LIBCMTD:setlocal.obj
 0003:0001fa10       ??_C@_08EADHIDAD@LC_CTYPE?$AA@ 1011ea10     LIBCMTD:setlocal.obj
 0003:0001fa1c       ??_C@_0L@KFJHEKIK@LC_COLLATE?$AA@ 1011ea1c     LIBCMTD:setlocal.obj
 0003:0001fa2c       ??_C@_06NEFDFEKB@LC_ALL?$AA@ 1011ea2c     LIBCMTD:setlocal.obj
 0003:0001fa38       ___lc_category             1011ea38     LIBCMTD:setlocal.obj
 0003:0001fb28       ??_C@_1CI@FGIONOJM@?$AA_?$AAc?$AAo?$AAn?$AAf?$AAi?$AAg?$AAt?$AAh?$AAr?$AAe?$AAa?$AAd?$AAl?$AAo?$AAc?$AAa?$AAl?$AAe?$AA?$AA@ 1011eb28     LIBCMTD:setlocal.obj
 0003:0001fb58       ??_C@_1GE@OLEIGPBJ@?$AAf?$AA?3?$AA?2?$AAd?$AAd?$AA?2?$AAv?$AAc?$AAt?$AAo?$AAo?$AAl?$AAs?$AA?2?$AAc?$AAr?$AAt?$AA_?$AAb?$AAl?$AAd?$AA?2?$AAs?$AAe?$AAl?$AAf?$AA_?$AAx?$AA8?$AA6?$AA?2?$AAc@ 1011eb58     LIBCMTD:setlocal.obj
 0003:0001fbd0       ??_C@_1GA@LDEGDKD@?$AA?$CI?$AA?$CC?$AAI?$AAn?$AAv?$AAa?$AAl?$AAi?$AAd?$AA?5?$AAp?$AAa?$AAr?$AAa?$AAm?$AAe?$AAt?$AAe?$AAr?$AA?5?$AAf?$AAo?$AAr?$AA?5?$AA_?$AAc?$AAo?$AAn?$AAf?$AAi?$AAg?$AAt@ 1011ebd0     LIBCMTD:setlocal.obj
 0003:0001fc44       ??_C@_0DC@JCPFNMID@f?3?2dd?2vctools?2crt_bld?2self_x86?2c@ 1011ec44     LIBCMTD:setlocal.obj
 0003:0001fc80       ??_C@_1BE@DBJGBOJC@?$AAs?$AAe?$AAt?$AAl?$AAo?$AAc?$AAa?$AAl?$AAe?$AA?$AA@ 1011ec80     LIBCMTD:setlocal.obj
 0003:0001fc98       ??_C@_1FG@OHLFEKMC@?$AAL?$AAC?$AA_?$AAM?$AAI?$AAN?$AA?5?$AA?$DM?$AA?$DN?$AA?5?$AA_?$AAc?$AAa?$AAt?$AAe?$AAg?$AAo?$AAr?$AAy?$AA?5?$AA?$CG?$AA?$CG?$AA?5?$AA_?$AAc?$AAa?$AAt?$AAe?$AAg?$AAo?$AAr?$AAy@ 1011ec98     LIBCMTD:setlocal.obj
 0003:0001fd00       ??_C@_1IA@PFIKKKFB@?$AAs?$AAt?$AAr?$AAn?$AAc?$AAp?$AAy?$AA_?$AAs?$AA?$CI?$AAl?$AAc?$AAt?$AAe?$AAm?$AAp?$AA?0?$AA?5?$AA?$CI?$AAs?$AAi?$AAz?$AAe?$AAo?$AAf?$AA?$CI?$AAl?$AAc?$AAt?$AAe?$AAm?$AAp@ 1011ed00     LIBCMTD:setlocal.obj
 0003:0001fd9c       ??_C@_1CE@OFNHIOO@?$AA_?$AAs?$AAe?$AAt?$AAl?$AAo?$AAc?$AAa?$AAl?$AAe?$AA_?$AAn?$AAo?$AAl?$AAo?$AAc?$AAk?$AA?$AA@ 1011ed9c     LIBCMTD:setlocal.obj
 0003:0001fdc8       ??_C@_01ICJEACDI@?$DL?$AA@ 1011edc8     LIBCMTD:setlocal.obj
 0003:0001fdcc       ??_C@_02BALPLPBG@?$DN?$DL?$AA@ 1011edcc     LIBCMTD:setlocal.obj
 0003:0001fdd0       ??_C@_1GO@JALHLJEH@?$AAs?$AAt?$AAr?$AAc?$AAp?$AAy?$AA_?$AAs?$AA?$CI?$AAp?$AAc?$AAh?$AA?5?$AA?$CL?$AA?5?$AAs?$AAi?$AAz?$AAe?$AAo?$AAf?$AA?$CI?$AAi?$AAn?$AAt?$AA?$CJ?$AA?0?$AA?5?$AAc?$AAc?$AAh?$AA?5@ 1011edd0     LIBCMTD:setlocal.obj
 0003:0001fe54       ??_C@_1CG@IEFIICPK@?$AA_?$AAs?$AAe?$AAt?$AAl?$AAo?$AAc?$AAa?$AAl?$AAe?$AA_?$AAs?$AAe?$AAt?$AA_?$AAc?$AAa?$AAt?$AA?$AA@ 1011ee54     LIBCMTD:setlocal.obj
 0003:0001fe84       ??_C@_1DA@GDKKLCLM@?$AAs?$AAt?$AAr?$AAc?$AAa?$AAt?$AA_?$AAs?$AA?$CI?$AAp?$AAc?$AAh?$AA?0?$AA?5?$AAc?$AAc?$AAh?$AA?0?$AA?5?$AA?$CC?$AA?$DL?$AA?$CC?$AA?$CJ?$AA?$AA@ 1011ee84     LIBCMTD:setlocal.obj
 0003:0001fec0       ??_C@_1CG@NNFIJLDA@?$AA_?$AAs?$AAe?$AAt?$AAl?$AAo?$AAc?$AAa?$AAl?$AAe?$AA_?$AAg?$AAe?$AAt?$AA_?$AAa?$AAl?$AAl?$AA?$AA@ 1011eec0     LIBCMTD:setlocal.obj
 0003:0001fef0       ??_C@_01NEMOKFLO@?$DN?$AA@ 1011eef0     LIBCMTD:setlocal.obj
 0003:0001fef8       ??_C@_1FA@MHAOOIBO@?$AAs?$AAt?$AAr?$AAc?$AAp?$AAy?$AA_?$AAs?$AA?$CI?$AAo?$AAu?$AAt?$AAp?$AAu?$AAt?$AA?0?$AA?5?$AAs?$AAi?$AAz?$AAe?$AAI?$AAn?$AAC?$AAh?$AAa?$AAr?$AAs?$AA?0?$AA?5?$AAc?$AAa@ 1011eef8     LIBCMTD:setlocal.obj
 0003:0001ff58       ??_C@_1IA@ONNFOEDA@?$AAs?$AAt?$AAr?$AAn?$AAc?$AAp?$AAy?$AA_?$AAs?$AA?$CI?$AAc?$AAa?$AAc?$AAh?$AAe?$AAi?$AAn?$AA?0?$AA?5?$AAc?$AAa?$AAc?$AAh?$AAe?$AAi?$AAn?$AAS?$AAi?$AAz?$AAe?$AA?0?$AA?5@ 1011ef58     LIBCMTD:setlocal.obj
 0003:0001fff4       ??_C@_01GFHCPBMG@C?$AA@    1011eff4     LIBCMTD:setlocal.obj
 0003:0001fff8       ??_C@_1EG@MOMHKOD@?$AAs?$AAt?$AAr?$AAc?$AAp?$AAy?$AA_?$AAs?$AA?$CI?$AAo?$AAu?$AAt?$AAp?$AAu?$AAt?$AA?0?$AA?5?$AAs?$AAi?$AAz?$AAe?$AAI?$AAn?$AAC?$AAh?$AAa?$AAr?$AAs?$AA?0?$AA?5?$AA?$CC?$AAC@ 1011eff8     LIBCMTD:setlocal.obj
 0003:0002004c       ??_C@_1BM@OIIBLEFG@?$AA_?$AAe?$AAx?$AAp?$AAa?$AAn?$AAd?$AAl?$AAo?$AAc?$AAa?$AAl?$AAe?$AA?$AA@ 1011f04c     LIBCMTD:setlocal.obj
 0003:00020070       ??_C@_1BGM@IJDLABMC@?$AAs?$AAt?$AAr?$AAc?$AAa?$AAt?$AA_?$AAs?$AA?$CI?$AAo?$AAu?$AAt?$AAs?$AAt?$AAr?$AA?0?$AA?5?$AAs?$AAi?$AAz?$AAe?$AAI?$AAn?$AAB?$AAy?$AAt?$AAe?$AAs?$AA?0?$AA?5?$AA?$CI?$AA?5@ 1011f070     LIBCMTD:setlocal.obj
 0003:00020224       ??_C@_1BC@PIABMDIP@?$AA_?$AAs?$AAt?$AAr?$AAc?$AAa?$AAt?$AAs?$AA?$AA@ 1011f224     LIBCMTD:setlocal.obj
 0003:00020240       ??_C@_1MM@NOPMGFHF@?$AAs?$AAt?$AAr?$AAn?$AAc?$AAp?$AAy?$AA_?$AAs?$AA?$CI?$AAn?$AAa?$AAm?$AAe?$AAs?$AA?9?$AA?$DO?$AAs?$AAz?$AAC?$AAo?$AAd?$AAe?$AAP?$AAa?$AAg?$AAe?$AA?0?$AA?5?$AA?$CI?$AAs?$AAi@ 1011f240     LIBCMTD:setlocal.obj
 0003:00020338       ??_C@_1MG@PHNILIAG@?$AAs?$AAt?$AAr?$AAn?$AAc?$AAp?$AAy?$AA_?$AAs?$AA?$CI?$AAn?$AAa?$AAm?$AAe?$AAs?$AA?9?$AA?$DO?$AAs?$AAz?$AAC?$AAo?$AAu?$AAn?$AAt?$AAr?$AAy?$AA?0?$AA?5?$AA?$CI?$AAs?$AAi?$AAz@ 1011f338     LIBCMTD:setlocal.obj
 0003:00020428       ??_C@_1MM@BFEECMAF@?$AAs?$AAt?$AAr?$AAn?$AAc?$AAp?$AAy?$AA_?$AAs?$AA?$CI?$AAn?$AAa?$AAm?$AAe?$AAs?$AA?9?$AA?$DO?$AAs?$AAz?$AAL?$AAa?$AAn?$AAg?$AAu?$AAa?$AAg?$AAe?$AA?0?$AA?5?$AA?$CI?$AAs?$AAi@ 1011f428     LIBCMTD:setlocal.obj
 0003:0002051c       ??_C@_03EGDHDPFD@_?4?0?$AA@ 1011f51c     LIBCMTD:setlocal.obj
 0003:00020520       ??_C@_1NG@FMOPGKGG@?$AAs?$AAt?$AAr?$AAn?$AAc?$AAp?$AAy?$AA_?$AAs?$AA?$CI?$AAn?$AAa?$AAm?$AAe?$AAs?$AA?9?$AA?$DO?$AAs?$AAz?$AAC?$AAo?$AAd?$AAe?$AAP?$AAa?$AAg?$AAe?$AA?0?$AA?5?$AA?$CI?$AAs?$AAi@ 1011f520     LIBCMTD:setlocal.obj
 0003:00020620       ??_C@_1BK@CBMMLAGJ@?$AA_?$AA_?$AAl?$AAc?$AA_?$AAs?$AAt?$AAr?$AAt?$AAo?$AAl?$AAc?$AA?$AA@ 1011f620     LIBCMTD:setlocal.obj
 0003:00020640       ??_C@_01IDAFKMJL@_?$AA@    1011f640     LIBCMTD:setlocal.obj
 0003:00020648       ??_C@_1HC@IBDBLKCB@?$AAs?$AAt?$AAr?$AAc?$AAp?$AAy?$AA_?$AAs?$AA?$CI?$AAl?$AAo?$AAc?$AAa?$AAl?$AAe?$AA?0?$AA?5?$AAs?$AAi?$AAz?$AAe?$AAI?$AAn?$AAB?$AAy?$AAt?$AAe?$AAs?$AA?0?$AA?5?$AA?$CI?$AAc@ 1011f648     LIBCMTD:setlocal.obj
 0003:000206d0       ??_C@_1BK@FGDJDEPG@?$AA_?$AA_?$AAl?$AAc?$AA_?$AAl?$AAc?$AAt?$AAo?$AAs?$AAt?$AAr?$AA?$AA@ 1011f6d0     LIBCMTD:setlocal.obj
 0003:000206f0       ??_C@_0CP@HMMFJLEM@f?3?2dd?2vctools?2crt_bld?2self_x86?2c@ 1011f6f0     LIBCMTD:drive.obj
 0003:00020728       ??_C@_1BC@JCHHEAGH@?$AA_?$AAc?$AAh?$AAd?$AAr?$AAi?$AAv?$AAe?$AA?$AA@ 1011f728     LIBCMTD:drive.obj
 0003:00020740       ??_C@_1FO@IEKJKJGK@?$AAf?$AA?3?$AA?2?$AAd?$AAd?$AA?2?$AAv?$AAc?$AAt?$AAo?$AAo?$AAl?$AAs?$AA?2?$AAc?$AAr?$AAt?$AA_?$AAb?$AAl?$AAd?$AA?2?$AAs?$AAe?$AAl?$AAf?$AA_?$AAx?$AA8?$AA6?$AA?2?$AAc@ 1011f740     LIBCMTD:drive.obj
 0003:000207b0       ??_C@_1DE@JLKLCHND@?$AA?$CI?$AA?$CC?$AAI?$AAn?$AAv?$AAa?$AAl?$AAi?$AAd?$AA?5?$AAD?$AAr?$AAi?$AAv?$AAe?$AA?5?$AAI?$AAn?$AAd?$AAe?$AAx?$AA?$CC?$AA?0?$AA0?$AA?$CJ?$AA?$AA@ 1011f7b0     LIBCMTD:drive.obj
 0003:000207f0       ??_C@_1BG@BBCDFOMA@?$AA_?$AAw?$AAo?$AAu?$AAt?$AAp?$AAu?$AAt?$AA_?$AAl?$AA?$AA@ 1011f7f0     LIBCMTD:woutput.obj
 0003:0002080c       ??_C@_1BI@IGILPKD@?$AA_?$AAv?$AAs?$AAp?$AAr?$AAi?$AAn?$AAt?$AAf?$AA_?$AAl?$AA?$AA@ 1011f80c     LIBCMTD:vsprintf.obj
 0003:00020828       ??_C@_1CE@HMKDJHB@?$AA_?$AAv?$AAs?$AAc?$AAp?$AAr?$AAi?$AAn?$AAt?$AAf?$AA_?$AAh?$AAe?$AAl?$AAp?$AAe?$AAr?$AA?$AA@ 1011f828     LIBCMTD:vsprintf.obj
 0003:00020854       ??_C@_1CE@PCFPEIFI@?$AA_?$AAv?$AAs?$AAn?$AAp?$AAr?$AAi?$AAn?$AAt?$AAf?$AA_?$AAh?$AAe?$AAl?$AAp?$AAe?$AAr?$AA?$AA@ 1011f854     LIBCMTD:vsnprnc.obj
 0003:00020880       ??_C@_1DA@HPBFKMEB@?$AA?$CI?$AA?$CC?$AAB?$AAu?$AAf?$AAf?$AAe?$AAr?$AA?5?$AAt?$AAo?$AAo?$AA?5?$AAs?$AAm?$AAa?$AAl?$AAl?$AA?$CC?$AA?0?$AA?5?$AA0?$AA?$CJ?$AA?$AA@ 1011f880     LIBCMTD:vsnprnc.obj
 0003:000208c0       ??_C@_1EE@OKCKIGFK@?$AAs?$AAt?$AAr?$AAi?$AAn?$AAg?$AA?5?$AA?$CB?$AA?$DN?$AA?5?$AAN?$AAU?$AAL?$AAL?$AA?5?$AA?$CG?$AA?$CG?$AA?5?$AAs?$AAi?$AAz?$AAe?$AAI?$AAn?$AAB?$AAy?$AAt?$AAe?$AAs?$AA?5?$AA?$DO?$AA?5@ 1011f8c0     LIBCMTD:vsnprnc.obj
 0003:00020914       ??_C@_1BM@BLJALHEF@?$AA_?$AAv?$AAs?$AAp?$AAr?$AAi?$AAn?$AAt?$AAf?$AA_?$AAs?$AA_?$AAl?$AA?$AA@ 1011f914     LIBCMTD:vsnprnc.obj
 0003:00020938       ??_C@_1BO@MLMCMBKN@?$AAf?$AAo?$AAr?$AAm?$AAa?$AAt?$AA?5?$AA?$CB?$AA?$DN?$AA?5?$AAN?$AAU?$AAL?$AAL?$AA?$AA@ 1011f938     LIBCMTD:vsnprnc.obj
 0003:0002095c       ??_C@_1BO@MMPELNIM@?$AA_?$AAv?$AAs?$AAn?$AAp?$AAr?$AAi?$AAn?$AAt?$AAf?$AA_?$AAs?$AA_?$AAl?$AA?$AA@ 1011f95c     LIBCMTD:vsnprnc.obj
 0003:00020980       ??_C@_03KHICJKCI@?4?4?4?$AA@ 1011f980     LIBCMTD:dbgrpt.obj
 0003:00020984       ??_C@_0BB@NAGLCMLI@Assertion?5Failed?$AA@ 1011f984     LIBCMTD:dbgrpt.obj
 0003:00020998       ??_C@_05NAOIJFC@Error?$AA@ 1011f998     LIBCMTD:dbgrpt.obj
 0003:000209a0       ??_C@_07KGMMFLDN@Warning?$AA@ 1011f9a0     LIBCMTD:dbgrpt.obj
 0003:000209bc       ??_C@_1CG@GNMJDMIO@?$AA_?$AAC?$AAr?$AAt?$AAS?$AAe?$AAt?$AAR?$AAe?$AAp?$AAo?$AAr?$AAt?$AAH?$AAo?$AAo?$AAk?$AA2?$AA?$AA@ 1011f9bc     LIBCMTD:dbgrpt.obj
 0003:000209ec       ??_C@_0CD@EBCGLDDL@Microsoft?5Visual?5C?$CL?$CL?5Debug?5Libra@ 1011f9ec     LIBCMTD:dbgrpt.obj
 0003:00020a18       ??_C@_0CL@EACFGMNB@_CrtDbgReport?3?5String?5too?5long?5o@ 1011fa18     LIBCMTD:dbgrpt.obj
 0003:00020a50       ??_C@_1JG@CPKCIOEE@?$AAs?$AAt?$AAr?$AAc?$AAp?$AAy?$AA_?$AAs?$AA?$CI?$AAs?$AAz?$AAO?$AAu?$AAt?$AAM?$AAe?$AAs?$AAs?$AAa?$AAg?$AAe?$AA?0?$AA?5?$AA4?$AA0?$AA9?$AA6?$AA?0?$AA?5?$AA?$CC?$AA_?$AAC@ 1011fa50     LIBCMTD:dbgrpt.obj
 0003:00020b08       ??_C@_0FF@CCONDJCB@Debug?5?$CFs?$CB?6?6Program?3?5?$CFs?$CFs?$CFs?$CFs?$CFs?$CFs@ 1011fb08     LIBCMTD:dbgrpt.obj
 0003:00020b70       ??_C@_09OFBFHMBK@?6Module?3?5?$AA@ 1011fb70     LIBCMTD:dbgrpt.obj
 0003:00020b7c       ??_C@_07OPHPPLBG@?6File?3?5?$AA@ 1011fb7c     LIBCMTD:dbgrpt.obj
 0003:00020b88       ??_C@_07DBMPPHDI@?6Line?3?5?$AA@ 1011fb88     LIBCMTD:dbgrpt.obj
 0003:00020b94       ??_C@_02PHMGELLB@?6?6?$AA@ 1011fb94     LIBCMTD:dbgrpt.obj
 0003:00020b98       ??_C@_0N@MEECIJGN@Expression?3?5?$AA@ 1011fb98     LIBCMTD:dbgrpt.obj
 0003:00020ba8       ??_C@_0HD@GNBNFCCL@?6?6For?5information?5on?5how?5your?5pr@ 1011fba8     LIBCMTD:dbgrpt.obj
 0003:00020c34       ??_C@_0BH@DNAGHKFM@?$DMprogram?5name?5unknown?$DO?$AA@ 1011fc34     LIBCMTD:dbgrpt.obj
 0003:00020c50       ??_C@_1GG@DLDHOIGE@?$AAs?$AAt?$AAr?$AAc?$AAp?$AAy?$AA_?$AAs?$AA?$CI?$AAs?$AAz?$AAE?$AAx?$AAe?$AAN?$AAa?$AAm?$AAe?$AA?0?$AA?5?$AA2?$AA6?$AA0?$AA?0?$AA?5?$AA?$CC?$AA?$DM?$AAp?$AAr?$AAo?$AAg?$AAr@ 1011fc50     LIBCMTD:dbgrpt.obj
 0003:00020ccc       ??_C@_1CI@IDOKFLAJ@?$AA_?$AA_?$AAc?$AAr?$AAt?$AAM?$AAe?$AAs?$AAs?$AAa?$AAg?$AAe?$AAW?$AAi?$AAn?$AAd?$AAo?$AAw?$AAA?$AA?$AA@ 1011fccc     LIBCMTD:dbgrpt.obj
 0003:00020d1c       ??_C@_0BB@KCIACLNC@PDBOpenValidate5?$AA@ 1011fd1c     LIBCMTD:_pdblkup_.obj
 0003:00020d30       ??_C@_1CK@HHHCOJPD@?$AAE?$AAn?$AAv?$AAi?$AAr?$AAo?$AAn?$AAm?$AAe?$AAn?$AAt?$AAD?$AAi?$AAr?$AAe?$AAc?$AAt?$AAo?$AAr?$AAy?$AA?$AA@ 1011fd30     LIBCMTD:_pdblkup_.obj
 0003:00020d68       ??_C@_1FM@DNCABAP@?$AAS?$AAO?$AAF?$AAT?$AAW?$AAA?$AAR?$AAE?$AA?2?$AAM?$AAi?$AAc?$AAr?$AAo?$AAs?$AAo?$AAf?$AAt?$AA?2?$AAV?$AAi?$AAs?$AAu?$AAa?$AAl?$AAS?$AAt?$AAu?$AAd?$AAi?$AAo?$AA?2@ 1011fd68     LIBCMTD:_pdblkup_.obj
 0003:00020dd8       ??_C@_0M@HLOHPNFA@RegCloseKey?$AA@ 1011fdd8     LIBCMTD:_pdblkup_.obj
 0003:00020de8       ??_C@_0BB@GLNAEDBD@RegQueryValueExW?$AA@ 1011fde8     LIBCMTD:_pdblkup_.obj
 0003:00020dfc       ??_C@_0O@COHOBMLB@RegOpenKeyExW?$AA@ 1011fdfc     LIBCMTD:_pdblkup_.obj
 0003:00020e0c       ??_C@_1BK@GAEMIDIL@?$AAA?$AAD?$AAV?$AAA?$AAP?$AAI?$AA3?$AA2?$AA?4?$AAD?$AAL?$AAL?$AA?$AA@ 1011fe0c     LIBCMTD:_pdblkup_.obj
 0003:00020e2c       ??_C@_1DM@MADKGDLO@?$AA?$CI?$AAL?$AA?$CC?$AAB?$AAu?$AAf?$AAf?$AAe?$AAr?$AA?5?$AAi?$AAs?$AA?5?$AAt?$AAo?$AAo?$AA?5?$AAs?$AAm?$AAa?$AAl?$AAl?$AA?$CC?$AA?5?$AA?$CG?$AA?$CG?$AA?5?$AA0?$AA?$CJ?$AA?$AA@ 1011fe2c     LIBCMTD:strcpy_s.obj
 0003:00020e74       ??_C@_1CI@HCPHDDLE@?$AAB?$AAu?$AAf?$AAf?$AAe?$AAr?$AA?5?$AAi?$AAs?$AA?5?$AAt?$AAo?$AAo?$AA?5?$AAs?$AAm?$AAa?$AAl?$AAl?$AA?$AA@ 1011fe74     LIBCMTD:strcpy_s.obj
 0003:00020ea4       ??_C@_1CG@OFBJMIGJ@?$AA?$CI?$AA?$CI?$AA?$CI?$AA_?$AAS?$AAr?$AAc?$AA?$CJ?$AA?$CJ?$AA?$CJ?$AA?5?$AA?$CB?$AA?$DN?$AA?5?$AAN?$AAU?$AAL?$AAL?$AA?$AA@ 1011fea4     LIBCMTD:strcpy_s.obj
 0003:00020ed4       ??_C@_1BC@CFJEPFGF@?$AAs?$AAt?$AAr?$AAc?$AAp?$AAy?$AA_?$AAs?$AA?$AA@ 1011fed4     LIBCMTD:strcpy_s.obj
 0003:00020ef0       ??_C@_1GI@BGBNCIMA@?$AAf?$AA?3?$AA?2?$AAd?$AAd?$AA?2?$AAv?$AAc?$AAt?$AAo?$AAo?$AAl?$AAs?$AA?2?$AAc?$AAr?$AAt?$AA_?$AAb?$AAl?$AAd?$AA?2?$AAs?$AAe?$AAl?$AAf?$AA_?$AAx?$AA8?$AA6?$AA?2?$AAc@ 1011fef0     LIBCMTD:strcpy_s.obj
 0003:00020f70       ??_C@_1FC@NCPEPIBI@?$AA?$CI?$AA?$CI?$AA_?$AAD?$AAs?$AAt?$AA?$CJ?$AA?$CJ?$AA?5?$AA?$CB?$AA?$DN?$AA?5?$AAN?$AAU?$AAL?$AAL?$AA?5?$AA?$CG?$AA?$CG?$AA?5?$AA?$CI?$AA?$CI?$AA_?$AAS?$AAi?$AAz?$AAe?$AAI?$AAn?$AAB?$AAy?$AAt@ 1011ff70     LIBCMTD:strcpy_s.obj
 0003:00020fd4       ??_C@_0BK@CFCOFLF@?5Complete?5Object?5Locator?8?$AA@ 1011ffd4     LIBCMTD:undname.obj
 0003:00020ff4       ??_C@_0BN@MECKDCOJ@?5Class?5Hierarchy?5Descriptor?8?$AA@ 1011fff4     LIBCMTD:undname.obj
 0003:00021018       ??_C@_0BD@LGICGFMM@?5Base?5Class?5Array?8?$AA@ 10120018     LIBCMTD:undname.obj
 0003:00021030       ??_C@_0BM@LDKODKLH@?5Base?5Class?5Descriptor?5at?5?$CI?$AA@ 10120030     LIBCMTD:undname.obj
 0003:00021054       ??_C@_0BC@DAFEJGAK@?5Type?5Descriptor?8?$AA@ 10120054     LIBCMTD:undname.obj
 0003:0002106c       ??_C@_0BM@PMGGMLDN@?$GAlocal?5static?5thread?5guard?8?$AA@ 1012006c     LIBCMTD:undname.obj
 0003:00021090       ??_C@_0CL@FGIJHLCE@?$GAmanaged?5vector?5copy?5constructor@ 10120090     LIBCMTD:undname.obj
 0003:000210c4       ??_C@_0CJ@GJELGAMM@?$GAvector?5vbase?5copy?5constructor?5i@ 101200c4     LIBCMTD:undname.obj
 0003:000210f8       ??_C@_0CD@CGAJBKEJ@?$GAvector?5copy?5constructor?5iterato@ 101200f8     LIBCMTD:undname.obj
 0003:00021124       ??_C@_0CB@PDBIFEP@?$GAdynamic?5atexit?5destructor?5for?5?8@ 10120124     LIBCMTD:undname.obj
 0003:0002114c       ??_C@_0BL@CLIPGLGB@?$GAdynamic?5initializer?5for?5?8?$AA@ 1012014c     LIBCMTD:undname.obj
 0003:0002116c       ??_C@_0CM@FCBBDIGB@?$GAeh?5vector?5vbase?5copy?5constructo@ 1012016c     LIBCMTD:undname.obj
 0003:000211a0       ??_C@_0CG@HLDDJMAG@?$GAeh?5vector?5copy?5constructor?5iter@ 101201a0     LIBCMTD:undname.obj
 0003:000211d0       ??_C@_0CF@IMGKMJNO@?$GAmanaged?5vector?5destructor?5itera@ 101201d0     LIBCMTD:undname.obj
 0003:000211fc       ??_C@_0CG@CFDHKGGD@?$GAmanaged?5vector?5constructor?5iter@ 101201fc     LIBCMTD:undname.obj
 0003:0002122c       ??_C@_0BN@CKNJLHMB@?$GAplacement?5delete?$FL?$FN?5closure?8?$AA@ 1012022c     LIBCMTD:undname.obj
 0003:00021250       ??_C@_0BL@CNOONJFP@?$GAplacement?5delete?5closure?8?$AA@ 10120250     LIBCMTD:undname.obj
 0003:00021270       ??_C@_0P@HJKNJFNN@?$GAomni?5callsig?8?$AA@ 10120270     LIBCMTD:undname.obj
 0003:00021284       ??_C@_09LBNFPBCA@?5delete?$FL?$FN?$AA@ 10120284     LIBCMTD:undname.obj
 0003:00021290       ??_C@_06FHBGPFGH@?5new?$FL?$FN?$AA@ 10120290     LIBCMTD:undname.obj
 0003:00021298       ??_C@_0CE@IIHCMGGL@?$GAlocal?5vftable?5constructor?5closu@ 10120298     LIBCMTD:undname.obj
 0003:000212c4       ??_C@_0BA@KKLDJDLB@?$GAlocal?5vftable?8?$AA@ 101202c4     LIBCMTD:undname.obj
 0003:000212d8       ??_C@_05KHLCHHI@?$GARTTI?$AA@ 101202d8     LIBCMTD:undname.obj
 0003:000212e0       ??_C@_03KLGMFNMG@?$GAEH?$AA@ 101202e0     LIBCMTD:undname.obj
 0003:000212e4       ??_C@_0BA@KBCDOMBN@?$GAudt?5returning?8?$AA@ 101202e4     LIBCMTD:undname.obj
 0003:000212f8       ??_C@_0BL@LLKPOHJI@?$GAcopy?5constructor?5closure?8?$AA@ 101202f8     LIBCMTD:undname.obj
 0003:00021318       ??_C@_0CH@OOJPLCPH@?$GAeh?5vector?5vbase?5constructor?5ite@ 10120318     LIBCMTD:undname.obj
 0003:00021348       ??_C@_0CA@GCEOPDGL@?$GAeh?5vector?5destructor?5iterator?8?$AA@ 10120348     LIBCMTD:undname.obj
 0003:00021370       ??_C@_0CB@JONCMFFK@?$GAeh?5vector?5constructor?5iterator?8@ 10120370     LIBCMTD:undname.obj
 0003:00021398       ??_C@_0BL@NILFHHPC@?$GAvirtual?5displacement?5map?8?$AA@ 10120398     LIBCMTD:undname.obj
 0003:000213b8       ??_C@_0CE@IKBNEHA@?$GAvector?5vbase?5constructor?5iterat@ 101203b8     LIBCMTD:undname.obj
 0003:000213e4       ??_C@_0BN@LFPFMEDL@?$GAvector?5destructor?5iterator?8?$AA@ 101203e4     LIBCMTD:undname.obj
 0003:00021408       ??_C@_0BO@PFGOCPJJ@?$GAvector?5constructor?5iterator?8?$AA@ 10120408     LIBCMTD:undname.obj
 0003:0002142c       ??_C@_0BN@IMDCHIKM@?$GAscalar?5deleting?5destructor?8?$AA@ 1012042c     LIBCMTD:undname.obj
 0003:00021450       ??_C@_0BO@OBMKPJIG@?$GAdefault?5constructor?5closure?8?$AA@ 10120450     LIBCMTD:undname.obj
 0003:00021474       ??_C@_0BN@DEGPLNFK@?$GAvector?5deleting?5destructor?8?$AA@ 10120474     LIBCMTD:undname.obj
 0003:00021498       ??_C@_0BD@JDLKDPAB@?$GAvbase?5destructor?8?$AA@ 10120498     LIBCMTD:undname.obj
 0003:000214b0       ??_C@_08OBABFOLI@?$GAstring?8?$AA@ 101204b0     LIBCMTD:undname.obj
 0003:000214bc       ??_C@_0BF@KDPPACIK@?$GAlocal?5static?5guard?8?$AA@ 101204bc     LIBCMTD:undname.obj
 0003:000214d8       ??_C@_08LLFFHHDJ@?$GAtypeof?8?$AA@ 101204d8     LIBCMTD:undname.obj
 0003:000214e4       ??_C@_07FEEIOKP@?$GAvcall?8?$AA@ 101204e4     LIBCMTD:undname.obj
 0003:000214f0       ??_C@_09BLBHBJP@?$GAvbtable?8?$AA@ 101204f0     LIBCMTD:undname.obj
 0003:000214fc       ??_C@_09IFPLHPGF@?$GAvftable?8?$AA@ 101204fc     LIBCMTD:undname.obj
 0003:00021508       ??_C@_02MHEGNOJ@?$FO?$DN?$AA@ 10120508     LIBCMTD:undname.obj
 0003:0002150c       ??_C@_02DHLNPPGH@?$HM?$DN?$AA@ 1012050c     LIBCMTD:undname.obj
 0003:00021510       ??_C@_02FGJGFEAB@?$CG?$DN?$AA@ 10120510     LIBCMTD:undname.obj
 0003:00021514       ??_C@_03CDNPDDLA@?$DM?$DM?$DN?$AA@ 10120514     LIBCMTD:undname.obj
 0003:00021518       ??_C@_03IKFCCPFF@?$DO?$DO?$DN?$AA@ 10120518     LIBCMTD:undname.obj
 0003:0002151c       ??_C@_02FENAOKFI@?$CF?$DN?$AA@ 1012051c     LIBCMTD:undname.obj
 0003:00021520       ??_C@_02FJEHGPIO@?1?$DN?$AA@ 10120520     LIBCMTD:undname.obj
 0003:00021524       ??_C@_02FKMDLLOA@?9?$DN?$AA@ 10120524     LIBCMTD:undname.obj
 0003:00021528       ??_C@_02FOEOMHFC@?$CL?$DN?$AA@ 10120528     LIBCMTD:undname.obj
 0003:0002152c       ??_C@_02FPIMKNGF@?$CK?$DN?$AA@ 1012052c     LIBCMTD:undname.obj
 0003:00021530       ??_C@_02NONPIBCD@?$HM?$HM?$AA@ 10120530     LIBCMTD:undname.obj
 0003:00021534       ??_C@_02PPKAJPJL@?$CG?$CG?$AA@ 10120534     LIBCMTD:undname.obj
 0003:00021538       ??_C@_01DNKMNLPK@?$HM?$AA@ 10120538     LIBCMTD:undname.obj
 0003:0002153c       ??_C@_01JKBOJNNK@?$FO?$AA@ 1012053c     LIBCMTD:undname.obj
 0003:00021540       ??_C@_01PJKLJHI@?$HO?$AA@  10120540     LIBCMTD:undname.obj
 0003:00021544       ??_C@_02HCKGKOFO@?$CI?$CJ?$AA@ 10120544     LIBCMTD:undname.obj
 0003:00021548       ??_C@_01IHBHIGKO@?0?$AA@   10120548     LIBCMTD:undname.obj
 0003:0002154c       ??_C@_02EEKDKGMJ@?$DO?$DN?$AA@ 1012054c     LIBCMTD:undname.obj
 0003:00021550       ??_C@_01PPODPGHN@?$DO?$AA@ 10120550     LIBCMTD:undname.obj
 0003:00021554       ??_C@_02EHCHHCKH@?$DM?$DN?$AA@ 10120554     LIBCMTD:undname.obj
 0003:00021558       ??_C@_01MNNFJEPP@?$DM?$AA@ 10120558     LIBCMTD:undname.obj
 0003:0002155c       ??_C@_01FGNFDNOH@?$CF?$AA@ 1012055c     LIBCMTD:undname.obj
 0003:00021560       ??_C@_01KMDKNFGN@?1?$AA@   10120560     LIBCMTD:undname.obj
 0003:00021564       ??_C@_03MNHNFDLC@?9?$DO?$CK?$AA@ 10120564     LIBCMTD:undname.obj
 0003:00021568       ??_C@_01HNPIGOCE@?$CG?$AA@ 10120568     LIBCMTD:undname.obj
 0003:0002156c       ??_C@_01MIFGBAGJ@?$CL?$AA@ 1012056c     LIBCMTD:undname.obj
 0003:00021570       ??_C@_02BAABKJLB@?9?9?$AA@ 10120570     LIBCMTD:undname.obj
 0003:00021574       ??_C@_02ECNGHCIF@?$CL?$CL?$AA@ 10120574     LIBCMTD:undname.obj
 0003:00021578       ??_C@_01NBENCBCI@?$CK?$AA@ 10120578     LIBCMTD:undname.obj
 0003:0002157c       ??_C@_02HBOOOICD@?9?$DO?$AA@ 1012057c     LIBCMTD:undname.obj
 0003:00021580       ??_C@_08LHJFAFGD@operator?$AA@ 10120580     LIBCMTD:undname.obj
 0003:0002158c       ??_C@_02GPECMEKF@?$FL?$FN?$AA@ 1012058c     LIBCMTD:undname.obj
 0003:00021590       ??_C@_02FDNJECIE@?$CB?$DN?$AA@ 10120590     LIBCMTD:undname.obj
 0003:00021594       ??_C@_02EGOFBIJA@?$DN?$DN?$AA@ 10120594     LIBCMTD:undname.obj
 0003:00021598       ??_C@_01DCLJPIOD@?$CB?$AA@ 10120598     LIBCMTD:undname.obj
 0003:0002159c       ??_C@_02FODMEDOG@?$DM?$DM?$AA@ 1012059c     LIBCMTD:undname.obj
 0003:000215a0       ??_C@_02GPIOPFAK@?$DO?$DO?$AA@ 101205a0     LIBCMTD:undname.obj
 0003:000215a4       ??_C@_07FPCDHGMM@?5delete?$AA@ 101205a4     LIBCMTD:undname.obj
 0003:000215b0       ??_C@_04NIHEBCM@?5new?$AA@ 101205b0     LIBCMTD:undname.obj
 0003:000215b8       ??_C@_0M@GFIIJFMG@__unaligned?$AA@ 101205b8     LIBCMTD:undname.obj
 0003:000215c8       ??_C@_0L@PILCLIHE@__restrict?$AA@ 101205c8     LIBCMTD:undname.obj
 0003:000215d8       ??_C@_07JOMMBBKO@__ptr64?$AA@ 101205d8     LIBCMTD:undname.obj
 0003:000215e4       ??_C@_06GHPCKEAG@__eabi?$AA@ 101205e4     LIBCMTD:undname.obj
 0003:000215ec       ??_C@_09HIJEGCPM@__clrcall?$AA@ 101205ec     LIBCMTD:undname.obj
 0003:000215f8       ??_C@_0L@JMKHOMEK@__fastcall?$AA@ 101205f8     LIBCMTD:undname.obj
 0003:00021608       ??_C@_0L@NPHFGOKO@__thiscall?$AA@ 10120608     LIBCMTD:undname.obj
 0003:00021618       ??_C@_09IFJBGAPI@__stdcall?$AA@ 10120618     LIBCMTD:undname.obj
 0003:00021624       ??_C@_08GHMPAG@__pascal?$AA@ 10120624     LIBCMTD:undname.obj
 0003:00021630       ??_C@_07KOLFKCDI@__cdecl?$AA@ 10120630     LIBCMTD:undname.obj
 0003:0002163c       ??_C@_08EHJDFFNH@__based?$CI?$AA@ 1012063c     LIBCMTD:undname.obj
 0003:0002181c       ??_C@_04HEJADOOB@CV?3?5?$AA@ 1012081c     LIBCMTD:undname.obj
 0003:00021824       ??_C@_02MOLJINC@?3?3?$AA@  10120824     LIBCMTD:undname.obj
 0003:00021828       ??_C@_01NLNLIGKH@?$GA?$AA@ 10120828     LIBCMTD:undname.obj
 0003:0002182c       ??_C@_0O@KHGCOMHP@generic?9type?9?$AA@ 1012082c     LIBCMTD:undname.obj
 0003:0002183c       ??_C@_0BE@JAEOCHPE@template?9parameter?9?$AA@ 1012083c     LIBCMTD:undname.obj
 0003:00021854       ??_C@_02OHHJMEON@?8?8?$AA@ 10120854     LIBCMTD:undname.obj
 0003:00021858       ??_C@_0BG@JNJLAMPM@?$GAanonymous?5namespace?8?$AA@ 10120858     LIBCMTD:undname.obj
 0003:00021874       ??_C@_0BN@IBLMMFAP@?$GAnon?9type?9template?9parameter?$AA@ 10120874     LIBCMTD:undname.obj
 0003:00021898       ??_C@_0BE@EODMJLIF@?$GAtemplate?9parameter?$AA@ 10120898     LIBCMTD:undname.obj
 0003:000218b0       ??_C@_04GKJNKENE@void?$AA@ 101208b0     LIBCMTD:undname.obj
 0003:000218b8       ??_C@_04HIBGFPH@NULL?$AA@  101208b8     LIBCMTD:undname.obj
 0003:000218c0       ??_C@_0M@DHNBOJMP@extern?5?$CCC?$CC?5?$AA@ 101208c0     LIBCMTD:undname.obj
 0003:000218d0       ??_C@_08KJLFOPNE@?$FLthunk?$FN?3?$AA@ 101208d0     LIBCMTD:undname.obj
 0003:000218dc       ??_C@_08GPDDCMKI@public?3?5?$AA@ 101208dc     LIBCMTD:undname.obj
 0003:000218e8       ??_C@_0M@GAIFPFIP@protected?3?5?$AA@ 101208e8     LIBCMTD:undname.obj
 0003:000218f8       ??_C@_09LAPHOOG@private?3?5?$AA@ 101208f8     LIBCMTD:undname.obj
 0003:00021904       ??_C@_08NIEOINHE@virtual?5?$AA@ 10120904     LIBCMTD:undname.obj
 0003:00021910       ??_C@_07PGOEDBHP@static?5?$AA@ 10120910     LIBCMTD:undname.obj
 0003:0002191c       ??_C@_0DA@HGFJFBBE@?$GAtemplate?5static?5data?5member?5des@ 1012091c     LIBCMTD:undname.obj
 0003:00021958       ??_C@_0DB@ILEFOCIJ@?$GAtemplate?5static?5data?5member?5con@ 10120958     LIBCMTD:undname.obj
 0003:00021994       ??_C@_0CB@KJDOOODE@?$GAlocal?5static?5destructor?5helper?8@ 10120994     LIBCMTD:undname.obj
 0003:000219bc       ??_C@_0L@HNGCOGAE@?$GAadjustor?$HL?$AA@ 101209bc     LIBCMTD:undname.obj
 0003:000219cc       ??_C@_0L@GHPFDFH@?$GAvtordisp?$HL?$AA@ 101209cc     LIBCMTD:undname.obj
 0003:000219dc       ??_C@_0N@CBHHHENL@?$GAvtordispex?$HL?$AA@ 101209dc     LIBCMTD:undname.obj
 0003:000219ec       ??_C@_02IGFCGPIL@?$HN?8?$AA@ 101209ec     LIBCMTD:undname.obj
 0003:000219f0       ??_C@_03OPGICMGF@?$HN?8?5?$AA@ 101209f0     LIBCMTD:undname.obj
 0003:000219f4       ??_C@_02KCKGHPCA@?$CJ?5?$AA@ 101209f4     LIBCMTD:undname.obj
 0003:000219f8       ??_C@_05BEFAKPML@void?5?$AA@ 101209f8     LIBCMTD:undname.obj
 0003:00021a00       ??_C@_0P@GCOCNKDM@std?3?3nullptr_t?$AA@ 10120a00     LIBCMTD:undname.obj
 0003:00021a14       ??_C@_08PABEKFH@volatile?$AA@ 10120a14     LIBCMTD:undname.obj
 0003:00021a20       ??_C@_0M@ELJOJFFH@?0?$DMellipsis?$DO?$AA@ 10120a20     LIBCMTD:undname.obj
 0003:00021a30       ??_C@_04EENFHACM@?0?4?4?4?$AA@ 10120a30     LIBCMTD:undname.obj
 0003:00021a38       ??_C@_0L@EGPHHEKN@?$DMellipsis?$DO?$AA@ 10120a38     LIBCMTD:undname.obj
 0003:00021a48       ??_C@_07HDJPLPEK@?5throw?$CI?$AA@ 10120a48     LIBCMTD:undname.obj
 0003:00021a54       ??_C@_09EFNPDFFP@?5volatile?$AA@ 10120a54     LIBCMTD:undname.obj
 0003:00021a60       ??_C@_05BNCCCJPP@const?$AA@ 10120a60     LIBCMTD:undname.obj
 0003:00021a68       ??_C@_07EDHNAJHC@signed?5?$AA@ 10120a68     LIBCMTD:undname.obj
 0003:00021a74       ??_C@_09EBBEKKIH@unsigned?5?$AA@ 10120a74     LIBCMTD:undname.obj
 0003:00021a80       ??_C@_07NFANNNEC@UNKNOWN?$AA@ 10120a80     LIBCMTD:undname.obj
 0003:00021a8c       ??_C@_06GCICPBLB@__w64?5?$AA@ 10120a8c     LIBCMTD:undname.obj
 0003:00021a94       ??_C@_07CLGGIAMF@wchar_t?$AA@ 10120a94     LIBCMTD:undname.obj
 0003:00021aa0       ??_C@_09EEKGDCPH@?$DMunknown?$DO?$AA@ 10120aa0     LIBCMTD:undname.obj
 0003:00021aac       ??_C@_08GAHOLHEO@__int128?$AA@ 10120aac     LIBCMTD:undname.obj
 0003:00021ab8       ??_C@_07LFCOJCAC@__int64?$AA@ 10120ab8     LIBCMTD:undname.obj
 0003:00021ac4       ??_C@_07OFLPPHGP@__int32?$AA@ 10120ac4     LIBCMTD:undname.obj
 0003:00021ad0       ??_C@_07ICFHOGAF@__int16?$AA@ 10120ad0     LIBCMTD:undname.obj
 0003:00021adc       ??_C@_06EBGKOKIG@__int8?$AA@ 10120adc     LIBCMTD:undname.obj
 0003:00021ae4       ??_C@_04DDKJGDCM@bool?$AA@ 10120ae4     LIBCMTD:undname.obj
 0003:00021aec       ??_C@_06BNJCAIGJ@double?$AA@ 10120aec     LIBCMTD:undname.obj
 0003:00021af4       ??_C@_05CJIMAING@long?5?$AA@ 10120af4     LIBCMTD:undname.obj
 0003:00021afc       ??_C@_05KNFBNCOH@float?$AA@ 10120afc     LIBCMTD:undname.obj
 0003:00021b04       ??_C@_04GOKPGOLB@long?$AA@ 10120b04     LIBCMTD:undname.obj
 0003:00021b0c       ??_C@_03JBIPMCLC@int?$AA@  10120b0c     LIBCMTD:undname.obj
 0003:00021b10       ??_C@_05BFKKPKCG@short?$AA@ 10120b10     LIBCMTD:undname.obj
 0003:00021b18       ??_C@_04ENMBGAPA@char?$AA@ 10120b18     LIBCMTD:undname.obj
 0003:00021b20       ??_C@_05LJGMCFOG@enum?5?$AA@ 10120b20     LIBCMTD:undname.obj
 0003:00021b28       ??_C@_0N@DLIEFKNA@cointerface?5?$AA@ 10120b28     LIBCMTD:undname.obj
 0003:00021b38       ??_C@_08KOFANOFK@coclass?5?$AA@ 10120b38     LIBCMTD:undname.obj
 0003:00021b44       ??_C@_06LJBABKPM@class?5?$AA@ 10120b44     LIBCMTD:undname.obj
 0003:00021b4c       ??_C@_07DIBCDNGL@struct?5?$AA@ 10120b4c     LIBCMTD:undname.obj
 0003:00021b58       ??_C@_06MOJHIBMG@union?5?$AA@ 10120b58     LIBCMTD:undname.obj
 0003:00021b60       ??_C@_0P@GCIFDJCJ@?$GAunknown?5ecsu?8?$AA@ 10120b60     LIBCMTD:undname.obj
 0003:00021b74       ??_C@_04LAHKHJMA@int?5?$AA@ 10120b74     LIBCMTD:undname.obj
 0003:00021b7c       ??_C@_06EHJMALKF@short?5?$AA@ 10120b7c     LIBCMTD:undname.obj
 0003:00021b84       ??_C@_05CIHEBHNO@char?5?$AA@ 10120b84     LIBCMTD:undname.obj
 0003:00021b8c       ??_C@_06LIJLOJAG@const?5?$AA@ 10120b8c     LIBCMTD:undname.obj
 0003:00021b94       ??_C@_09GAIEOBLP@volatile?5?$AA@ 10120b94     LIBCMTD:undname.obj
 0003:00021ba0       ??_C@_0O@GKABPPIF@cli?3?3pin_ptr?$DM?$AA@ 10120ba0     LIBCMTD:undname.obj
 0003:00021bb0       ??_C@_0M@EALIELKG@cli?3?3array?$DM?$AA@ 10120bb0     LIBCMTD:undname.obj
 0003:00021bc0       ??_C@_02GOGNNPBN@?$CJ?$FL?$AA@ 10120bc0     LIBCMTD:undname.obj
 0003:00021bc4       ??_C@_06EEGAIFAK@?$HLflat?$HN?$AA@ 10120bc4     LIBCMTD:undname.obj
 0003:00021bcc       ??_C@_02MDINNEEG@s?5?$AA@  10120bcc     LIBCMTD:undname.obj
 0003:00021bd0       ??_C@_05JIBOFOHK@?$HLfor?5?$AA@ 10120bd0     LIBCMTD:undname.obj
 0003:00021bd8       ??_7DNameNode@@6B@         10120bd8     LIBCMTD:undname.obj
 0003:00021be8       ??_7charNode@@6B@          10120be8     LIBCMTD:undname.obj
 0003:00021bf8       ??_7pcharNode@@6B@         10120bf8     LIBCMTD:undname.obj
 0003:00021c08       ??_7pDNameNode@@6B@        10120c08     LIBCMTD:undname.obj
 0003:00021c18       ??_7DNameStatusNode@@6B@   10120c18     LIBCMTD:undname.obj
 0003:00021c28       ??_C@_04OKOHEJBO@?5?$DP?$DP?5?$AA@ 10120c28     LIBCMTD:undname.obj
 0003:00021c30       ??_7pairNode@@6B@          10120c30     LIBCMTD:undname.obj
 0003:00021c40       ??_C@_1O@EJLDHPPL@?$AAs?$AAi?$AAg?$AAn?$AAa?$AAl?$AA?$AA@ 10120c40     LIBCMTD:winsig.obj
 0003:00021c50       ??_C@_1GA@DBECNFG@?$AAf?$AA?3?$AA?2?$AAd?$AAd?$AA?2?$AAv?$AAc?$AAt?$AAo?$AAo?$AAl?$AAs?$AA?2?$AAc?$AAr?$AAt?$AA_?$AAb?$AAl?$AAd?$AA?2?$AAs?$AAe?$AAl?$AAf?$AA_?$AAx?$AA8?$AA6?$AA?2?$AAc@ 10120c50     LIBCMTD:winsig.obj
 0003:00021cc4       ??_C@_1DO@MLNEDKGB@?$AA?$CI?$AA?$CC?$AAI?$AAn?$AAv?$AAa?$AAl?$AAi?$AAd?$AA?5?$AAs?$AAi?$AAg?$AAn?$AAa?$AAl?$AA?5?$AAo?$AAr?$AA?5?$AAe?$AAr?$AAr?$AAo?$AAr?$AA?$CC?$AA?0?$AA?5?$AA0?$AA?$CJ?$AA?$AA@ 10120cc4     LIBCMTD:winsig.obj
 0003:00021d10       ??_C@_0DA@ELJOOIJF@f?3?2dd?2vctools?2crt_bld?2self_x86?2c@ 10120d10     LIBCMTD:winsig.obj
 0003:00021d4c       ??_C@_1M@DMJEIKHL@?$AAr?$AAa?$AAi?$AAs?$AAe?$AA?$AA@ 10120d4c     LIBCMTD:winsig.obj
 0003:00021d5c       ??_C@_1CA@LFDHAMEM@?$AA_?$AAs?$AAe?$AAt?$AA_?$AAe?$AAr?$AAr?$AAo?$AAr?$AA_?$AAm?$AAo?$AAd?$AAe?$AA?$AA@ 10120d5c     LIBCMTD:errmode.obj
 0003:00021d88       ??_C@_1GC@FGMGFCNB@?$AAf?$AA?3?$AA?2?$AAd?$AAd?$AA?2?$AAv?$AAc?$AAt?$AAo?$AAo?$AAl?$AAs?$AA?2?$AAc?$AAr?$AAt?$AA_?$AAb?$AAl?$AAd?$AA?2?$AAs?$AAe?$AAl?$AAf?$AA_?$AAx?$AA8?$AA6?$AA?2?$AAc@ 10120d88     LIBCMTD:errmode.obj
 0003:00021e00       ??_C@_1DE@BCNCAIK@?$AA?$CI?$AA?$CC?$AAI?$AAn?$AAv?$AAa?$AAl?$AAi?$AAd?$AA?5?$AAe?$AAr?$AAr?$AAo?$AAr?$AA_?$AAm?$AAo?$AAd?$AAe?$AA?$CC?$AA?0?$AA?5?$AA0?$AA?$CJ?$AA?$AA@ 10120e00     LIBCMTD:errmode.obj
 0003:00021e40       ??_C@_0BI@DFKBFLJE@GetProcessWindowStation?$AA@ 10120e40     LIBCMTD:crtmboxw.obj
 0003:00021e5c       ??_C@_0BK@DEKFELLI@GetUserObjectInformationW?$AA@ 10120e5c     LIBCMTD:crtmboxw.obj
 0003:00021e7c       ??_C@_0BD@HHGDFDBJ@GetLastActivePopup?$AA@ 10120e7c     LIBCMTD:crtmboxw.obj
 0003:00021e94       ??_C@_0BA@HNOPNCHB@GetActiveWindow?$AA@ 10120e94     LIBCMTD:crtmboxw.obj
 0003:00021ea8       ??_C@_0M@DLDCCGNP@MessageBoxW?$AA@ 10120ea8     LIBCMTD:crtmboxw.obj
 0003:00021eb8       ??_C@_1BG@GOEBHBDC@?$AAU?$AAS?$AAE?$AAR?$AA3?$AA2?$AA?4?$AAD?$AAL?$AAL?$AA?$AA@ 10120eb8     LIBCMTD:crtmboxw.obj
 0003:00021ed8       ??_C@_1FA@MJKDNFFB@?$AA?$CI?$AAL?$AA?$CC?$AAS?$AAt?$AAr?$AAi?$AAn?$AAg?$AA?5?$AAi?$AAs?$AA?5?$AAn?$AAo?$AAt?$AA?5?$AAn?$AAu?$AAl?$AAl?$AA?5?$AAt?$AAe?$AAr?$AAm?$AAi?$AAn?$AAa?$AAt?$AAe?$AAd@ 10120ed8     LIBCMTD:wcscat_s.obj
 0003:00021f38       ??_C@_1DM@FHLMIEG@?$AAS?$AAt?$AAr?$AAi?$AAn?$AAg?$AA?5?$AAi?$AAs?$AA?5?$AAn?$AAo?$AAt?$AA?5?$AAn?$AAu?$AAl?$AAl?$AA?5?$AAt?$AAe?$AAr?$AAm?$AAi?$AAn?$AAa?$AAt?$AAe?$AAd?$AA?$AA@ 10120f38     LIBCMTD:wcscat_s.obj
 0003:00021f80       ??_C@_1BC@PLIEPKPJ@?$AAw?$AAc?$AAs?$AAc?$AAa?$AAt?$AA_?$AAs?$AA?$AA@ 10120f80     LIBCMTD:wcscat_s.obj
 0003:00021f98       ??_C@_1GI@NOKGIAGA@?$AAf?$AA?3?$AA?2?$AAd?$AAd?$AA?2?$AAv?$AAc?$AAt?$AAo?$AAo?$AAl?$AAs?$AA?2?$AAc?$AAr?$AAt?$AA_?$AAb?$AAl?$AAd?$AA?2?$AAs?$AAe?$AAl?$AAf?$AA_?$AAx?$AA8?$AA6?$AA?2?$AAc@ 10120f98     LIBCMTD:wcscat_s.obj
 0003:00022018       ??_C@_1FC@PFMLEHKI@?$AA?$CI?$AA?$CI?$AA_?$AAD?$AAs?$AAt?$AA?$CJ?$AA?$CJ?$AA?5?$AA?$CB?$AA?$DN?$AA?5?$AAN?$AAU?$AAL?$AAL?$AA?5?$AA?$CG?$AA?$CG?$AA?5?$AA?$CI?$AA?$CI?$AA_?$AAS?$AAi?$AAz?$AAe?$AAI?$AAn?$AAW?$AAo?$AAr@ 10121018     LIBCMTD:wcscat_s.obj
 0003:0002207c       ??_C@_1BE@PMMBFFCC@?$AAw?$AAc?$AAs?$AAn?$AAc?$AAp?$AAy?$AA_?$AAs?$AA?$AA@ 1012107c     LIBCMTD:wcsncpy_s.obj
 0003:00022098       ??_C@_1GK@PAJJBKJF@?$AAf?$AA?3?$AA?2?$AAd?$AAd?$AA?2?$AAv?$AAc?$AAt?$AAo?$AAo?$AAl?$AAs?$AA?2?$AAc?$AAr?$AAt?$AA_?$AAb?$AAl?$AAd?$AA?2?$AAs?$AAe?$AAl?$AAf?$AA_?$AAx?$AA8?$AA6?$AA?2?$AAc@ 10121098     LIBCMTD:wcsncpy_s.obj
 0003:00022118       ??_C@_1BC@KIONAFPO@?$AAw?$AAc?$AAs?$AAc?$AAp?$AAy?$AA_?$AAs?$AA?$AA@ 10121118     LIBCMTD:wcscpy_s.obj
 0003:00022130       ??_C@_1BE@NDMJHJJG@?$AAs?$AAt?$AAr?$AAn?$AAc?$AAp?$AAy?$AA_?$AAs?$AA?$AA@ 10121130     LIBCMTD:strncpy_s.obj
 0003:00022148       ??_C@_1BK@CDOALEA@?$AA_?$AAc?$AAo?$AAn?$AAt?$AAr?$AAo?$AAl?$AAf?$AAp?$AA_?$AAs?$AA?$AA@ 10121148     LIBCMTD:_contrlfp_.obj
 0003:00022168       ??_C@_1HI@JIOCECAH@?$AAf?$AA?3?$AA?2?$AAd?$AAd?$AA?2?$AAv?$AAc?$AAt?$AAo?$AAo?$AAl?$AAs?$AA?2?$AAc?$AAr?$AAt?$AA_?$AAb?$AAl?$AAd?$AA?2?$AAs?$AAe?$AAl?$AAf?$AA_?$AAx?$AA8?$AA6?$AA?2?$AAc@ 10121168     LIBCMTD:_contrlfp_.obj
 0003:000221f8       ??_C@_1DG@JNDMIEJL@?$AA?$CI?$AA?$CC?$AAI?$AAn?$AAv?$AAa?$AAl?$AAi?$AAd?$AA?5?$AAi?$AAn?$AAp?$AAu?$AAt?$AA?5?$AAv?$AAa?$AAl?$AAu?$AAe?$AA?$CC?$AA?0?$AA?5?$AA0?$AA?$CJ?$AA?$AA@ 101211f8     LIBCMTD:_contrlfp_.obj
 0003:00022238       ??_C@_1BK@CLIEHFDF@?$AAp?$AAf?$AAl?$AAt?$AA?5?$AA?$CB?$AA?$DN?$AA?5?$AAN?$AAU?$AAL?$AAL?$AA?$AA@ 10121238     LIBCMTD:_fptostr.obj
 0003:00022258       ??_C@_1GM@CEDLGDDI@?$AAs?$AAi?$AAz?$AAe?$AAI?$AAn?$AAB?$AAy?$AAt?$AAe?$AAs?$AA?5?$AA?$DO?$AA?5?$AA?$CI?$AAs?$AAi?$AAz?$AAe?$AA_?$AAt?$AA?$CJ?$AA?$CI?$AA?$CI?$AAd?$AAi?$AAg?$AAi?$AAt?$AAs?$AA?5?$AA?$DO@ 10121258     LIBCMTD:_fptostr.obj
 0003:000222dc       ??_C@_1BC@OPALLEB@?$AA_?$AAf?$AAp?$AAt?$AAo?$AAs?$AAt?$AAr?$AA?$AA@ 101212dc     LIBCMTD:_fptostr.obj
 0003:000222f8       ??_C@_1GE@BDKOPHIO@?$AAf?$AA?3?$AA?2?$AAd?$AAd?$AA?2?$AAv?$AAc?$AAt?$AAo?$AAo?$AAl?$AAs?$AA?2?$AAc?$AAr?$AAt?$AA_?$AAb?$AAl?$AAd?$AA?2?$AAs?$AAe?$AAl?$AAf?$AA_?$AAx?$AA8?$AA6?$AA?2?$AAc@ 101212f8     LIBCMTD:_fptostr.obj
 0003:00022370       ??_C@_1FK@KODCOBKF@?$AAs?$AAt?$AAr?$AAc?$AAp?$AAy?$AA_?$AAs?$AA?$CI?$AAr?$AAe?$AAs?$AAu?$AAl?$AAt?$AAs?$AAt?$AAr?$AA?0?$AA?5?$AAr?$AAe?$AAs?$AAu?$AAl?$AAt?$AAs?$AAi?$AAz?$AAe?$AA?0?$AA?5@ 10121370     LIBCMTD:_cfout_.obj
 0003:000223dc       ??_C@_1BC@BPMMEHLK@?$AA_?$AAf?$AAl?$AAt?$AAo?$AAu?$AAt?$AA2?$AA?$AA@ 101213dc     LIBCMTD:_cfout_.obj
 0003:000223f8       ??_C@_1HC@PKFDNKN@?$AAf?$AA?3?$AA?2?$AAd?$AAd?$AA?2?$AAv?$AAc?$AAt?$AAo?$AAo?$AAl?$AAs?$AA?2?$AAc?$AAr?$AAt?$AA_?$AAb?$AAl?$AAd?$AA?2?$AAs?$AAe?$AAl?$AAf?$AA_?$AAx?$AA8?$AA6?$AA?2?$AAc@ 101213f8     LIBCMTD:_cfout_.obj
 0003:00022480       ??_C@_1CG@EBJECAJM@?$AA_?$AAs?$AAe?$AAt?$AA_?$AAo?$AAu?$AAt?$AAp?$AAu?$AAt?$AA_?$AAf?$AAo?$AAr?$AAm?$AAa?$AAt?$AA?$AA@ 10121480     LIBCMTD:outputformat.obj
 0003:000224b0       ??_C@_1GM@NFGGJJCM@?$AAf?$AA?3?$AA?2?$AAd?$AAd?$AA?2?$AAv?$AAc?$AAt?$AAo?$AAo?$AAl?$AAs?$AA?2?$AAc?$AAr?$AAt?$AA_?$AAb?$AAl?$AAd?$AA?2?$AAs?$AAe?$AAl?$AAf?$AA_?$AAx?$AA8?$AA6?$AA?2?$AAc@ 101214b0     LIBCMTD:outputformat.obj
 0003:00022538       ??_C@_1EM@EGEEBJLG@?$AA?$CI?$AAo?$AAp?$AAt?$AAi?$AAo?$AAn?$AAs?$AA?5?$AA?$CG?$AA?5?$AA?$HO?$AA_?$AAT?$AAW?$AAO?$AA_?$AAD?$AAI?$AAG?$AAI?$AAT?$AA_?$AAE?$AAX?$AAP?$AAO?$AAN?$AAE?$AAN?$AAT?$AA?$CJ@ 10121538     LIBCMTD:outputformat.obj
 0003:00022594       ??_C@_0BC@JEAENNKH@SystemFunction036?$AA@ 10121594     LIBCMTD:rand_s.obj
 0003:000225b0       ??_C@_1GA@EBEDGGGB@?$AA?$CI?$AA?$CC?$AAr?$AAa?$AAn?$AAd?$AA_?$AAs?$AA?5?$AAi?$AAs?$AA?5?$AAn?$AAo?$AAt?$AA?5?$AAa?$AAv?$AAa?$AAi?$AAl?$AAa?$AAb?$AAl?$AAe?$AA?5?$AAo?$AAn?$AA?5?$AAt?$AAh?$AAi@ 101215b0     LIBCMTD:rand_s.obj
 0003:00022624       ??_C@_1O@IJGPPOGF@?$AAr?$AAa?$AAn?$AAd?$AA_?$AAs?$AA?$AA@ 10121624     LIBCMTD:rand_s.obj
 0003:00022638       ??_C@_1GA@HBGBBKCD@?$AAf?$AA?3?$AA?2?$AAd?$AAd?$AA?2?$AAv?$AAc?$AAt?$AAo?$AAo?$AAl?$AAs?$AA?2?$AAc?$AAr?$AAt?$AA_?$AAb?$AAl?$AAd?$AA?2?$AAs?$AAe?$AAl?$AAf?$AA_?$AAx?$AA8?$AA6?$AA?2?$AAc@ 10121638     LIBCMTD:rand_s.obj
 0003:000226ac       ??_C@_1CK@GFDNDKK@?$AA_?$AAR?$AAa?$AAn?$AAd?$AAo?$AAm?$AAV?$AAa?$AAl?$AAu?$AAe?$AA?5?$AA?$CB?$AA?$DN?$AA?5?$AAN?$AAU?$AAL?$AAL?$AA?$AA@ 101216ac     LIBCMTD:rand_s.obj
 0003:000226e0       ??_C@_1BK@JMCGJOCC@?$AA_?$AAe?$AAx?$AAp?$AAa?$AAn?$AAd?$AA_?$AAb?$AAa?$AAs?$AAe?$AA?$AA@ 101216e0     LIBCMTD:expand.obj
 0003:00022700       ??_C@_1GA@EBHFLDNH@?$AAf?$AA?3?$AA?2?$AAd?$AAd?$AA?2?$AAv?$AAc?$AAt?$AAo?$AAo?$AAl?$AAs?$AA?2?$AAc?$AAr?$AAt?$AA_?$AAb?$AAl?$AAd?$AA?2?$AAs?$AAe?$AAl?$AAf?$AA_?$AAx?$AA8?$AA6?$AA?2?$AAc@ 10121700     LIBCMTD:expand.obj
 0003:00022774       ??_C@_1BO@KFIJIAEA@?$AAp?$AAB?$AAl?$AAo?$AAc?$AAk?$AA?5?$AA?$CB?$AA?$DN?$AA?5?$AAN?$AAU?$AAL?$AAL?$AA?$AA@ 10121774     LIBCMTD:expand.obj
 0003:00022798       ??_C@_1BA@LEBDGIHM@?$AA_?$AAi?$AAs?$AAa?$AAt?$AAt?$AAy?$AA?$AA@ 10121798     LIBCMTD:isatty.obj
 0003:000227b0       ??_C@_1GA@LPGDJDEN@?$AAf?$AA?3?$AA?2?$AAd?$AAd?$AA?2?$AAv?$AAc?$AAt?$AAo?$AAo?$AAl?$AAs?$AA?2?$AAc?$AAr?$AAt?$AA_?$AAb?$AAl?$AAd?$AA?2?$AAs?$AAe?$AAl?$AAf?$AA_?$AAx?$AA8?$AA6?$AA?2?$AAc@ 101217b0     LIBCMTD:isatty.obj
 0003:00022828       ??_C@_1FO@LPCLHKGE@?$AA?$CI?$AAf?$AAh?$AA?5?$AA?$DO?$AA?$DN?$AA?5?$AA0?$AA?5?$AA?$CG?$AA?$CG?$AA?5?$AA?$CI?$AAu?$AAn?$AAs?$AAi?$AAg?$AAn?$AAe?$AAd?$AA?$CJ?$AAf?$AAh?$AA?5?$AA?$DM?$AA?5?$AA?$CI?$AAu?$AAn?$AAs?$AAi@ 10121828     LIBCMTD:isatty.obj
 0003:00022898       ??_C@_1BA@JGHIEKKM@?$AA_?$AAf?$AAi?$AAl?$AAe?$AAn?$AAo?$AA?$AA@ 10121898     LIBCMTD:fileno.obj
 0003:000228b0       ??_C@_1GA@PBJHELNC@?$AAf?$AA?3?$AA?2?$AAd?$AAd?$AA?2?$AAv?$AAc?$AAt?$AAo?$AAo?$AAl?$AAs?$AA?2?$AAc?$AAr?$AAt?$AA_?$AAb?$AAl?$AAd?$AA?2?$AAs?$AAe?$AAl?$AAf?$AA_?$AAx?$AA8?$AA6?$AA?2?$AAc@ 101218b0     LIBCMTD:fileno.obj
 0003:00022924       ??_C@_1BI@IEADNOHF@?$AA_?$AAw?$AAc?$AAt?$AAo?$AAm?$AAb?$AA_?$AAs?$AA_?$AAl?$AA?$AA@ 10121924     LIBCMTD:wctomb.obj
 0003:00022940       ??_C@_1GA@LDLHPOO@?$AAf?$AA?3?$AA?2?$AAd?$AAd?$AA?2?$AAv?$AAc?$AAt?$AAo?$AAo?$AAl?$AAs?$AA?2?$AAc?$AAr?$AAt?$AA_?$AAb?$AAl?$AAd?$AA?2?$AAs?$AAe?$AAl?$AAf?$AA_?$AAx?$AA8?$AA6?$AA?2?$AAc@ 10121940     LIBCMTD:wctomb.obj
 0003:000229b4       ??_C@_1CO@HFMIILNF@?$AAs?$AAi?$AAz?$AAe?$AAI?$AAn?$AAB?$AAy?$AAt?$AAe?$AAs?$AA?5?$AA?$DM?$AA?$DN?$AA?5?$AAI?$AAN?$AAT?$AA_?$AAM?$AAA?$AAX?$AA?$AA@ 101219b4     LIBCMTD:wctomb.obj
 0003:000229f0       ??_C@_1NK@LOFHIHFC@?$AAf?$AAM?$AAo?$AAd?$AAe?$AA?5?$AA?$DN?$AA?$DN?$AA?5?$AA_?$AAC?$AAR?$AAT?$AAD?$AAB?$AAG?$AA_?$AAR?$AAE?$AAP?$AAO?$AAR?$AAT?$AA_?$AAM?$AAO?$AAD?$AAE?$AA?5?$AA?$HM?$AA?$HM?$AA?5@ 101219f0     LIBCMTD:dbgrptt.obj
 0003:00022af8       ??_C@_1CE@FIHIECNJ@?$AA_?$AAC?$AAr?$AAt?$AAS?$AAe?$AAt?$AAR?$AAe?$AAp?$AAo?$AAr?$AAt?$AAM?$AAo?$AAd?$AAe?$AA?$AA@ 10121af8     LIBCMTD:dbgrptt.obj
 0003:00022b28       ??_C@_1GC@FIGJJMEN@?$AAf?$AA?3?$AA?2?$AAd?$AAd?$AA?2?$AAv?$AAc?$AAt?$AAo?$AAo?$AAl?$AAs?$AA?2?$AAc?$AAr?$AAt?$AA_?$AAb?$AAl?$AAd?$AA?2?$AAs?$AAe?$AAl?$AAf?$AA_?$AAx?$AA8?$AA6?$AA?2?$AAc@ 10121b28     LIBCMTD:dbgrptt.obj
 0003:00022ba0       ??_C@_1FA@IFFFOLDJ@?$AAn?$AAR?$AAp?$AAt?$AAT?$AAy?$AAp?$AAe?$AA?5?$AA?$DO?$AA?$DN?$AA?5?$AA0?$AA?5?$AA?$CG?$AA?$CG?$AA?5?$AAn?$AAR?$AAp?$AAt?$AAT?$AAy?$AAp?$AAe?$AA?5?$AA?$DM?$AA?5?$AA_?$AAC?$AAR?$AAT@ 10121ba0     LIBCMTD:dbgrptt.obj
 0003:00022c00       ??_C@_1CE@IKKEDCME@?$AA_?$AAC?$AAr?$AAt?$AAS?$AAe?$AAt?$AAR?$AAe?$AAp?$AAo?$AAr?$AAt?$AAF?$AAi?$AAl?$AAe?$AA?$AA@ 10121c00     LIBCMTD:dbgrptt.obj
 0003:00022c30       ??_C@_1HO@PJOFIKFE@?$AA_?$AAC?$AAr?$AAt?$AAD?$AAb?$AAg?$AAR?$AAe?$AAp?$AAo?$AAr?$AAt?$AA?3?$AA?5?$AAS?$AAt?$AAr?$AAi?$AAn?$AAg?$AA?5?$AAt?$AAo?$AAo?$AA?5?$AAl?$AAo?$AAn?$AAg?$AA?5?$AAo@ 10121c30     LIBCMTD:dbgrptt.obj
 0003:00022cc8       ??_C@_1MC@IGEECMDB@?$AAw?$AAc?$AAs?$AAc?$AAp?$AAy?$AA_?$AAs?$AA?$CI?$AAs?$AAz?$AAO?$AAu?$AAt?$AAM?$AAe?$AAs?$AAs?$AAa?$AAg?$AAe?$AA2?$AA?0?$AA?5?$AA4?$AA0?$AA9?$AA6?$AA?0?$AA?5?$AAL?$AA?$CC@ 10121cc8     LIBCMTD:dbgrptt.obj
 0003:00022db0       ??_C@_1IM@OOKIFKOH@?$AAe?$AA?5?$AA?$DN?$AA?5?$AAm?$AAb?$AAs?$AAt?$AAo?$AAw?$AAc?$AAs?$AA_?$AAs?$AA?$CI?$AA?$CG?$AAr?$AAe?$AAt?$AA?0?$AA?5?$AAs?$AAz?$AAO?$AAu?$AAt?$AAM?$AAe?$AAs?$AAs?$AAa?$AAg@ 10121db0     LIBCMTD:dbgrptt.obj
 0003:00022e58       ??_C@_1FI@IBIOIHEG@?$AAs?$AAt?$AAr?$AAc?$AAp?$AAy?$AA_?$AAs?$AA?$CI?$AAs?$AAz?$AAO?$AAu?$AAt?$AAM?$AAe?$AAs?$AAs?$AAa?$AAg?$AAe?$AA?0?$AA?5?$AA4?$AA0?$AA9?$AA6?$AA?0?$AA?5?$AAs?$AAz?$AAL@ 10121e58     LIBCMTD:dbgrptt.obj
 0003:00022ec4       ??_C@_0M@IPILFDFN@?$CFs?$CI?$CFd?$CJ?5?3?5?$CFs?$AA@ 10121ec4     LIBCMTD:dbgrptt.obj
 0003:00022ed8       ??_C@_1EI@LDHJEDO@?$AAs?$AAt?$AAr?$AAc?$AAa?$AAt?$AA_?$AAs?$AA?$CI?$AAs?$AAz?$AAL?$AAi?$AAn?$AAe?$AAM?$AAe?$AAs?$AAs?$AAa?$AAg?$AAe?$AA?0?$AA?5?$AA4?$AA0?$AA9?$AA6?$AA?0?$AA?5?$AA?$CC?$AA?2@ 10121ed8     LIBCMTD:dbgrptt.obj
 0003:00022f30       ??_C@_01LIIJDEN@?$AN?$AA@  10121f30     LIBCMTD:dbgrptt.obj
 0003:00022f38       ??_C@_1EI@CACDLAFK@?$AAs?$AAt?$AAr?$AAc?$AAa?$AAt?$AA_?$AAs?$AA?$CI?$AAs?$AAz?$AAL?$AAi?$AAn?$AAe?$AAM?$AAe?$AAs?$AAs?$AAa?$AAg?$AAe?$AA?0?$AA?5?$AA4?$AA0?$AA9?$AA6?$AA?0?$AA?5?$AA?$CC?$AA?2@ 10121f38     LIBCMTD:dbgrptt.obj
 0003:00022f90       ??_C@_1FK@NPGBPOFO@?$AAs?$AAt?$AAr?$AAc?$AAa?$AAt?$AA_?$AAs?$AA?$CI?$AAs?$AAz?$AAL?$AAi?$AAn?$AAe?$AAM?$AAe?$AAs?$AAs?$AAa?$AAg?$AAe?$AA?0?$AA?5?$AA4?$AA0?$AA9?$AA6?$AA?0?$AA?5?$AAs?$AAz@ 10121f90     LIBCMTD:dbgrptt.obj
 0003:00023000       ??_C@_1KK@GIGAEDMO@?$AAs?$AAt?$AAr?$AAc?$AAp?$AAy?$AA_?$AAs?$AA?$CI?$AAs?$AAz?$AAL?$AAi?$AAn?$AAe?$AAM?$AAe?$AAs?$AAs?$AAa?$AAg?$AAe?$AA?0?$AA?5?$AA4?$AA0?$AA9?$AA6?$AA?0?$AA?5?$AAs?$AAz@ 10122000     LIBCMTD:dbgrptt.obj
 0003:000230cc       ??_C@_0BC@LAIDCHCH@Assertion?5failed?$CB?$AA@ 101220cc     LIBCMTD:dbgrptt.obj
 0003:000230e4       ??_C@_0BD@CAENFOHP@Assertion?5failed?3?5?$AA@ 101220e4     LIBCMTD:dbgrptt.obj
 0003:00023100       ??_C@_1JI@GAALPGBM@?$AAs?$AAt?$AAr?$AAc?$AAp?$AAy?$AA_?$AAs?$AA?$CI?$AAs?$AAz?$AAU?$AAs?$AAe?$AAr?$AAM?$AAe?$AAs?$AAs?$AAa?$AAg?$AAe?$AA?0?$AA?5?$AA4?$AA0?$AA9?$AA6?$AA?0?$AA?5?$AA?$CC?$AA_@ 10122100     LIBCMTD:dbgrptt.obj
 0003:000231b8       ??_C@_07BHGABMGB@?0?5Line?5?$AA@ 101221b8     LIBCMTD:dbgrptt.obj
 0003:000231c4       ??_C@_0P@DFJNDPOP@?$DMfile?5unknown?$DO?$AA@ 101221c4     LIBCMTD:dbgrptt.obj
 0003:000231d8       ??_C@_0CG@BNGLOCEO@Second?5Chance?5Assertion?5Failed?3?5@ 101221d8     LIBCMTD:dbgrptt.obj
 0003:00023208       ??_C@_1FA@JPHJBHEM@?$AA_?$AAi?$AAt?$AAo?$AAa?$AA_?$AAs?$AA?$CI?$AAn?$AAL?$AAi?$AAn?$AAe?$AA?0?$AA?5?$AAs?$AAz?$AAL?$AAi?$AAn?$AAe?$AAM?$AAe?$AAs?$AAs?$AAa?$AAg?$AAe?$AA?0?$AA?5?$AA4?$AA0@ 10122208     LIBCMTD:dbgrptt.obj
 0003:00023268       ??_C@_1CA@KHJHLKA@?$AA_?$AAV?$AAC?$AAr?$AAt?$AAD?$AAb?$AAg?$AAR?$AAe?$AAp?$AAo?$AAr?$AAt?$AAA?$AA?$AA@ 10122268     LIBCMTD:dbgrptt.obj
 0003:00023290       ??_C@_1IE@CPGKIAGP@?$AAw?$AAc?$AAs?$AAt?$AAo?$AAm?$AAb?$AAs?$AA_?$AAs?$AA?$CI?$AA?$CG?$AAr?$AAe?$AAt?$AA?0?$AA?5?$AAs?$AAz?$AAa?$AAO?$AAu?$AAt?$AAM?$AAe?$AAs?$AAs?$AAa?$AAg?$AAe?$AA?0?$AA?5@ 10122290     LIBCMTD:dbgrptt.obj
 0003:00023330       ??_C@_0DP@GNPEPHJD@_CrtDbgReport?3?5String?5too?5long?5o@ 10122330     LIBCMTD:dbgrptt.obj
 0003:00023380       ??_C@_1MA@LBAMNNOB@?$AAs?$AAt?$AAr?$AAc?$AAp?$AAy?$AA_?$AAs?$AA?$CI?$AAs?$AAz?$AAO?$AAu?$AAt?$AAM?$AAe?$AAs?$AAs?$AAa?$AAg?$AAe?$AA2?$AA?0?$AA?5?$AA4?$AA0?$AA9?$AA6?$AA?0?$AA?5?$AA?$CC?$AA_@ 10122380     LIBCMTD:dbgrptt.obj
 0003:00023468       ??_C@_1JC@EOAPFDLN@?$AAw?$AAc?$AAs?$AAt?$AAo?$AAm?$AAb?$AAs?$AA_?$AAs?$AA?$CI?$AA?$CI?$AA?$CI?$AAv?$AAo?$AAi?$AAd?$AA?5?$AA?$CK?$AA?$CJ?$AA0?$AA?$CJ?$AA?0?$AA?5?$AAs?$AAz?$AAO?$AAu?$AAt?$AAM?$AAe?$AAs@ 10122468     LIBCMTD:dbgrptt.obj
 0003:00023518       ??_C@_1FI@DBAIJPJE@?$AAw?$AAc?$AAs?$AAc?$AAp?$AAy?$AA_?$AAs?$AA?$CI?$AAs?$AAz?$AAO?$AAu?$AAt?$AAM?$AAe?$AAs?$AAs?$AAa?$AAg?$AAe?$AA?0?$AA?5?$AA4?$AA0?$AA9?$AA6?$AA?0?$AA?5?$AAs?$AAz?$AAL@ 10122518     LIBCMTD:dbgrptt.obj
 0003:00023584       ??_C@_1BI@JIDBEPIG@?$AA?$CF?$AAs?$AA?$CI?$AA?$CF?$AAd?$AA?$CJ?$AA?5?$AA?3?$AA?5?$AA?$CF?$AAs?$AA?$AA@ 10122584     LIBCMTD:dbgrptt.obj
 0003:000235a0       ??_C@_1EK@PHCBEDKB@?$AAw?$AAc?$AAs?$AAc?$AAa?$AAt?$AA_?$AAs?$AA?$CI?$AAs?$AAz?$AAL?$AAi?$AAn?$AAe?$AAM?$AAe?$AAs?$AAs?$AAa?$AAg?$AAe?$AA?0?$AA?5?$AA4?$AA0?$AA9?$AA6?$AA?0?$AA?5?$AAL?$AA?$CC@ 101225a0     LIBCMTD:dbgrptt.obj
 0003:000235f8       ??_C@_13CMNBPIDO@?$AA?$AN?$AA?$AA@ 101225f8     LIBCMTD:dbgrptt.obj
 0003:00023600       ??_C@_1EK@NMDFGHMF@?$AAw?$AAc?$AAs?$AAc?$AAa?$AAt?$AA_?$AAs?$AA?$CI?$AAs?$AAz?$AAL?$AAi?$AAn?$AAe?$AAM?$AAe?$AAs?$AAs?$AAa?$AAg?$AAe?$AA?0?$AA?5?$AA4?$AA0?$AA9?$AA6?$AA?0?$AA?5?$AAL?$AA?$CC@ 10122600     LIBCMTD:dbgrptt.obj
 0003:00023658       ??_C@_1FK@HPADHBBD@?$AAw?$AAc?$AAs?$AAc?$AAa?$AAt?$AA_?$AAs?$AA?$CI?$AAs?$AAz?$AAL?$AAi?$AAn?$AAe?$AAM?$AAe?$AAs?$AAs?$AAa?$AAg?$AAe?$AA?0?$AA?5?$AA4?$AA0?$AA9?$AA6?$AA?0?$AA?5?$AAs?$AAz@ 10122658     LIBCMTD:dbgrptt.obj
 0003:000236c8       ??_C@_1KO@DGAHENCH@?$AAw?$AAc?$AAs?$AAc?$AAp?$AAy?$AA_?$AAs?$AA?$CI?$AAs?$AAz?$AAL?$AAi?$AAn?$AAe?$AAM?$AAe?$AAs?$AAs?$AAa?$AAg?$AAe?$AA?0?$AA?5?$AA4?$AA0?$AA9?$AA6?$AA?0?$AA?5?$AAs?$AAz@ 101226c8     LIBCMTD:dbgrptt.obj
 0003:00023798       ??_C@_1CE@OJBNHDMO@?$AAA?$AAs?$AAs?$AAe?$AAr?$AAt?$AAi?$AAo?$AAn?$AA?5?$AAf?$AAa?$AAi?$AAl?$AAe?$AAd?$AA?$CB?$AA?$AA@ 10122798     LIBCMTD:dbgrptt.obj
 0003:000237c4       ??_C@_1CG@FFFGGODN@?$AAA?$AAs?$AAs?$AAe?$AAr?$AAt?$AAi?$AAo?$AAn?$AA?5?$AAf?$AAa?$AAi?$AAl?$AAe?$AAd?$AA?3?$AA?5?$AA?$AA@ 101227c4     LIBCMTD:dbgrptt.obj
 0003:000237f8       ??_C@_1JK@KHFABAEO@?$AAw?$AAc?$AAs?$AAc?$AAp?$AAy?$AA_?$AAs?$AA?$CI?$AAs?$AAz?$AAU?$AAs?$AAe?$AAr?$AAM?$AAe?$AAs?$AAs?$AAa?$AAg?$AAe?$AA?0?$AA?5?$AA4?$AA0?$AA9?$AA6?$AA?0?$AA?5?$AAL?$AA?$CC@ 101227f8     LIBCMTD:dbgrptt.obj
 0003:000238b0       ??_C@_13LBAGMAIH@?$AA?6?$AA?$AA@ 101228b0     LIBCMTD:dbgrptt.obj
 0003:000238b4       ??_C@_1BA@ELMMDCFC@?$AA?0?$AA?5?$AAL?$AAi?$AAn?$AAe?$AA?5?$AA?$AA@ 101228b4     LIBCMTD:dbgrptt.obj
 0003:000238c8       ??_C@_1BO@OCHMLCAG@?$AA?$DM?$AAf?$AAi?$AAl?$AAe?$AA?5?$AAu?$AAn?$AAk?$AAn?$AAo?$AAw?$AAn?$AA?$DO?$AA?$AA@ 101228c8     LIBCMTD:dbgrptt.obj
 0003:000238f0       ??_C@_1EM@MJFLEDMB@?$AAS?$AAe?$AAc?$AAo?$AAn?$AAd?$AA?5?$AAC?$AAh?$AAa?$AAn?$AAc?$AAe?$AA?5?$AAA?$AAs?$AAs?$AAe?$AAr?$AAt?$AAi?$AAo?$AAn?$AA?5?$AAF?$AAa?$AAi?$AAl?$AAe?$AAd?$AA?3?$AA?5@ 101228f0     LIBCMTD:dbgrptt.obj
 0003:00023950       ??_C@_1FA@CNLLOMHI@?$AA_?$AAi?$AAt?$AAo?$AAw?$AA_?$AAs?$AA?$CI?$AAn?$AAL?$AAi?$AAn?$AAe?$AA?0?$AA?5?$AAs?$AAz?$AAL?$AAi?$AAn?$AAe?$AAM?$AAe?$AAs?$AAs?$AAa?$AAg?$AAe?$AA?0?$AA?5?$AA4?$AA0@ 10122950     LIBCMTD:dbgrptt.obj
 0003:000239b0       ??_C@_1CA@HPALHDOD@?$AA_?$AAV?$AAC?$AAr?$AAt?$AAD?$AAb?$AAg?$AAR?$AAe?$AAp?$AAo?$AAr?$AAt?$AAW?$AA?$AA@ 101229b0     LIBCMTD:dbgrptt.obj
 0003:000239d8       ??_C@_1BE@BMIJMLDD@?$AA_?$AAs?$AAw?$AAp?$AAr?$AAi?$AAn?$AAt?$AAf?$AA?$AA@ 101229d8     LIBCMTD:swprintf.obj
 0003:000239f0       ??_C@_1GE@DKGHLBLP@?$AAf?$AA?3?$AA?2?$AAd?$AAd?$AA?2?$AAv?$AAc?$AAt?$AAo?$AAo?$AAl?$AAs?$AA?2?$AAc?$AAr?$AAt?$AA_?$AAb?$AAl?$AAd?$AA?2?$AAs?$AAe?$AAl?$AAf?$AA_?$AAx?$AA8?$AA6?$AA?2?$AAc@ 101229f0     LIBCMTD:swprintf.obj
 0003:00023a68       ??_C@_1CK@DDKKOLAN@?$AAs?$AAi?$AAz?$AAe?$AAI?$AAn?$AAB?$AAy?$AAt?$AAe?$AAs?$AA?5?$AA?$DO?$AA?$DN?$AA?5?$AAc?$AAo?$AAu?$AAn?$AAt?$AA?$AA@ 10122a68     LIBCMTD:memcpy_s.obj
 0003:00023a9c       ??_C@_1BI@DCHLDCPP@?$AAs?$AAr?$AAc?$AA?5?$AA?$CB?$AA?$DN?$AA?5?$AAN?$AAU?$AAL?$AAL?$AA?$AA@ 10122a9c     LIBCMTD:memcpy_s.obj
 0003:00023ab8       ??_C@_1BC@GKHDJMGB@?$AAm?$AAe?$AAm?$AAc?$AAp?$AAy?$AA_?$AAs?$AA?$AA@ 10122ab8     LIBCMTD:memcpy_s.obj
 0003:00023ad0       ??_C@_1GE@NEOPGGBM@?$AAf?$AA?3?$AA?2?$AAd?$AAd?$AA?2?$AAv?$AAc?$AAt?$AAo?$AAo?$AAl?$AAs?$AA?2?$AAc?$AAr?$AAt?$AA_?$AAb?$AAl?$AAd?$AA?2?$AAs?$AAe?$AAl?$AAf?$AA_?$AAx?$AA8?$AA6?$AA?2?$AAc@ 10122ad0     LIBCMTD:memcpy_s.obj
 0003:00023b48       ??_C@_1BI@GKKCBDMD@?$AAd?$AAs?$AAt?$AA?5?$AA?$CB?$AA?$DN?$AA?5?$AAN?$AAU?$AAL?$AAL?$AA?$AA@ 10122b48     LIBCMTD:memcpy_s.obj
 0003:00023b68       ___lookuptable_s           10122b68     LIBCMTD:outputs.obj
 0003:00023bd8       ??_C@_1FK@LNCFKALM@?$AA?$CI?$AA?$CI?$AAs?$AAt?$AAa?$AAt?$AAe?$AA?5?$AA?$DN?$AA?$DN?$AA?5?$AAS?$AAT?$AA_?$AAN?$AAO?$AAR?$AAM?$AAA?$AAL?$AA?$CJ?$AA?5?$AA?$HM?$AA?$HM?$AA?5?$AA?$CI?$AAs?$AAt?$AAa?$AAt?$AAe?$AA?5@ 10122bd8     LIBCMTD:outputs.obj
 0003:00023c48       ??_C@_1EE@DMAIGNBG@?$AA?$CI?$AA?$CC?$AAI?$AAn?$AAc?$AAo?$AAr?$AAr?$AAe?$AAc?$AAt?$AA?5?$AAf?$AAo?$AAr?$AAm?$AAa?$AAt?$AA?5?$AAs?$AAp?$AAe?$AAc?$AAi?$AAf?$AAi?$AAe?$AAr?$AA?$CC?$AA?0?$AA?5?$AA0@ 10122c48     LIBCMTD:outputs.obj
 0003:00023c9c       ??_C@_1BI@COFBLHCG@?$AA_?$AAo?$AAu?$AAt?$AAp?$AAu?$AAt?$AA_?$AAs?$AA_?$AAl?$AA?$AA@ 10122c9c     LIBCMTD:outputs.obj
 0003:00023cb8       ??_C@_1FK@BCPANIEK@?$AA?$CI?$AA?$CC?$AAM?$AAi?$AAs?$AAs?$AAi?$AAn?$AAg?$AA?5?$AAp?$AAo?$AAs?$AAi?$AAt?$AAi?$AAo?$AAn?$AA?5?$AAi?$AAn?$AA?5?$AAt?$AAh?$AAe?$AA?5?$AAf?$AAo?$AAr?$AAm?$AAa?$AAt@ 10122cb8     LIBCMTD:outputp.obj
 0003:00023d28       ??_C@_1JC@OACKELNN@?$AA_?$AAt?$AAv?$AAa?$AAl?$AAi?$AAd?$AAa?$AAt?$AAe?$AA_?$AAp?$AAa?$AAr?$AAa?$AAm?$AA_?$AAr?$AAe?$AAu?$AAs?$AAe?$AA?$CI?$AA?$CG?$AAp?$AAo?$AAs?$AA_?$AAv?$AAa?$AAl?$AAu@ 10122d28     LIBCMTD:outputp.obj
 0003:00023dd8       ??_C@_1IK@NBGDDCBN@?$AA_?$AAt?$AAv?$AAa?$AAl?$AAi?$AAd?$AAa?$AAt?$AAe?$AA_?$AAp?$AAa?$AAr?$AAa?$AAm?$AA_?$AAr?$AAe?$AAu?$AAs?$AAe?$AA?$CI?$AA?$CG?$AAp?$AAo?$AAs?$AA_?$AAv?$AAa?$AAl?$AAu@ 10122dd8     LIBCMTD:outputp.obj
 0003:00023e80       ??_C@_1DG@GOHGNKHE@?$AAp?$AAa?$AAs?$AAs?$AA?5?$AA?$DN?$AA?$DN?$AA?5?$AAF?$AAO?$AAR?$AAM?$AAA?$AAT?$AA_?$AAO?$AAU?$AAT?$AAP?$AAU?$AAT?$AA_?$AAP?$AAA?$AAS?$AAS?$AA?$AA@ 10122e80     LIBCMTD:outputp.obj
 0003:00023ec0       ??_C@_1IM@DNGHAPLB@?$AA_?$AAt?$AAv?$AAa?$AAl?$AAi?$AAd?$AAa?$AAt?$AAe?$AA_?$AAp?$AAa?$AAr?$AAa?$AAm?$AA_?$AAr?$AAe?$AAu?$AAs?$AAe?$AA?$CI?$AA?$CG?$AAp?$AAo?$AAs?$AA_?$AAv?$AAa?$AAl?$AAu@ 10122ec0     LIBCMTD:outputp.obj
 0003:00023f68       ??_C@_1IG@HJIMKDHC@?$AA_?$AAt?$AAv?$AAa?$AAl?$AAi?$AAd?$AAa?$AAt?$AAe?$AA_?$AAp?$AAa?$AAr?$AAa?$AAm?$AA_?$AAr?$AAe?$AAu?$AAs?$AAe?$AA?$CI?$AA?$CG?$AAp?$AAo?$AAs?$AA_?$AAv?$AAa?$AAl?$AAu@ 10122f68     LIBCMTD:outputp.obj
 0003:00024008       ??_C@_1IG@FDCPLALG@?$AA_?$AAt?$AAv?$AAa?$AAl?$AAi?$AAd?$AAa?$AAt?$AAe?$AA_?$AAp?$AAa?$AAr?$AAa?$AAm?$AA_?$AAr?$AAe?$AAu?$AAs?$AAe?$AA?$CI?$AA?$CG?$AAp?$AAo?$AAs?$AA_?$AAv?$AAa?$AAl?$AAu@ 10123008     LIBCMTD:outputp.obj
 0003:000240a8       ??_C@_1IK@MHEDJAMK@?$AA_?$AAt?$AAv?$AAa?$AAl?$AAi?$AAd?$AAa?$AAt?$AAe?$AA_?$AAp?$AAa?$AAr?$AAa?$AAm?$AA_?$AAr?$AAe?$AAu?$AAs?$AAe?$AA?$CI?$AA?$CG?$AAp?$AAo?$AAs?$AA_?$AAv?$AAa?$AAl?$AAu@ 101230a8     LIBCMTD:outputp.obj
 0003:00024150       ??_C@_1EM@BNPHBBIA@?$AA?$CI?$AA?$CI?$AAt?$AAy?$AAp?$AAe?$AA_?$AAp?$AAo?$AAs?$AA?$DO?$AA?$DN?$AA0?$AA?$CJ?$AA?5?$AA?$CG?$AA?$CG?$AA?5?$AA?$CI?$AAt?$AAy?$AAp?$AAe?$AA_?$AAp?$AAo?$AAs?$AA?$DM?$AA_?$AAA?$AAR?$AAG@ 10123150     LIBCMTD:outputp.obj
 0003:000241b0       ??_C@_1IK@EIEPDKHJ@?$AA_?$AAt?$AAv?$AAa?$AAl?$AAi?$AAd?$AAa?$AAt?$AAe?$AA_?$AAp?$AAa?$AAr?$AAa?$AAm?$AA_?$AAr?$AAe?$AAu?$AAs?$AAe?$AA?$CI?$AA?$CG?$AAp?$AAo?$AAs?$AA_?$AAv?$AAa?$AAl?$AAu@ 101231b0     LIBCMTD:outputp.obj
 0003:00024258       ??_C@_1JG@JBJBOCFB@?$AA?$CI?$AA?$CI?$AAp?$AAr?$AAe?$AAc?$AAi?$AAs?$AA_?$AAp?$AAo?$AAs?$AA?5?$AA?$DO?$AA?$DN?$AA?5?$AA0?$AA?$CJ?$AA?5?$AA?$CG?$AA?$CG?$AA?5?$AA?$CI?$AA?$CK?$AAe?$AAn?$AAd?$AA_?$AAp?$AAo?$AAs?$AA?5@ 10123258     LIBCMTD:outputp.obj
 0003:00024310       ??_C@_1II@PIPIMLPF@?$AA_?$AAt?$AAv?$AAa?$AAl?$AAi?$AAd?$AAa?$AAt?$AAe?$AA_?$AAp?$AAa?$AAr?$AAa?$AAm?$AA_?$AAr?$AAe?$AAu?$AAs?$AAe?$AA?$CI?$AA?$CG?$AAp?$AAo?$AAs?$AA_?$AAv?$AAa?$AAl?$AAu@ 10123310     LIBCMTD:outputp.obj
 0003:000243b8       ??_C@_1JE@NMBHOLFI@?$AA?$CI?$AA?$CI?$AAw?$AAi?$AAd?$AAt?$AAh?$AA_?$AAp?$AAo?$AAs?$AA?5?$AA?$DO?$AA?$DN?$AA?5?$AA0?$AA?$CJ?$AA?5?$AA?$CG?$AA?$CG?$AA?5?$AA?$CI?$AA?$CK?$AAe?$AAn?$AAd?$AA_?$AAp?$AAo?$AAs?$AA?5?$AA?$DN@ 101233b8     LIBCMTD:outputp.obj
 0003:00024470       ??_C@_1JC@PFJNKEIO@?$AA?$CI?$AA?$CI?$AAt?$AAy?$AAp?$AAe?$AA_?$AAp?$AAo?$AAs?$AA?5?$AA?$DO?$AA?$DN?$AA?5?$AA0?$AA?$CJ?$AA?5?$AA?$CG?$AA?$CG?$AA?5?$AA?$CI?$AA?$CK?$AAe?$AAn?$AAd?$AA_?$AAp?$AAo?$AAs?$AA?5?$AA?$DN?$AA?$DN@ 10123470     LIBCMTD:outputp.obj
 0003:00024520       ??_C@_1BI@KANOLAMF@?$AA_?$AAo?$AAu?$AAt?$AAp?$AAu?$AAt?$AA_?$AAp?$AA_?$AAl?$AA?$AA@ 10123520     LIBCMTD:outputp.obj
 0003:0002453c       ??_C@_0L@KDOEJCKC@_nextafter?$AA@ 1012353c     LIBCMTD:_fpexcept_.obj
 0003:0002454c       ??_C@_05JGDBENOH@_logb?$AA@ 1012354c     LIBCMTD:_fpexcept_.obj
 0003:00024554       ??_C@_03ONILCKOB@_yn?$AA@  10123554     LIBCMTD:_fpexcept_.obj
 0003:00024558       ??_C@_03NAKIGLHK@_y1?$AA@  10123558     LIBCMTD:_fpexcept_.obj
 0003:0002455c       ??_C@_03MJLDFKDL@_y0?$AA@  1012355c     LIBCMTD:_fpexcept_.obj
 0003:00024560       ??_C@_05GKKHEGJL@frexp?$AA@ 10123560     LIBCMTD:_fpexcept_.obj
 0003:00024568       ??_C@_04KEPJIHGP@fmod?$AA@ 10123568     LIBCMTD:_fpexcept_.obj
 0003:00024570       ??_C@_06MEIMCGCF@_hypot?$AA@ 10123570     LIBCMTD:_fpexcept_.obj
 0003:00024578       ??_C@_05KBKMEMPO@_cabs?$AA@ 10123578     LIBCMTD:_fpexcept_.obj
 0003:00024580       ??_C@_05CEJMAHNP@ldexp?$AA@ 10123580     LIBCMTD:_fpexcept_.obj
 0003:00024588       ??_C@_04ODHECPBC@fabs?$AA@ 10123588     LIBCMTD:_fpexcept_.obj
 0003:00024590       ??_C@_04EIAKFFMI@sqrt?$AA@ 10123590     LIBCMTD:_fpexcept_.obj
 0003:00024598       ??_C@_05KNGEOGJB@atan2?$AA@ 10123598     LIBCMTD:_fpexcept_.obj
 0003:000245a0       ??_C@_04FJHINJAO@tanh?$AA@ 101235a0     LIBCMTD:_fpexcept_.obj
 0003:000245a8       ??_C@_04HPJJNFIM@cosh?$AA@ 101235a8     LIBCMTD:_fpexcept_.obj
 0003:000245b0       ??_C@_04COOMCNPB@sinh?$AA@ 101235b0     LIBCMTD:_fpexcept_.obj
 0003:000275b8       ??_C@_1GA@GFFDGGFH@?$AAf?$AA?3?$AA?2?$AAd?$AAd?$AA?2?$AAv?$AAc?$AAt?$AAo?$AAo?$AAl?$AAs?$AA?2?$AAc?$AAr?$AAt?$AA_?$AAb?$AAl?$AAd?$AA?2?$AAs?$AAe?$AAl?$AAf?$AA_?$AAx?$AA8?$AA6?$AA?2?$AAc@ 101265b8     LIBCMTD:mbtowc.obj
 0003:00027630       ??_C@_1NC@EINCOKCO@?$AA_?$AAl?$AAo?$AAc?$AA_?$AAu?$AAp?$AAd?$AAa?$AAt?$AAe?$AA?4?$AAG?$AAe?$AAt?$AAL?$AAo?$AAc?$AAa?$AAl?$AAe?$AAT?$AA?$CI?$AA?$CJ?$AA?9?$AA?$DO?$AAl?$AAo?$AAc?$AAi?$AAn?$AAf@ 10126630     LIBCMTD:mbtowc.obj
 0003:0002772c       ??_C@_1BA@IIKEPOGH@?$AA_?$AAf?$AAi?$AAl?$AAb?$AAu?$AAf?$AA?$AA@ 1012672c     LIBCMTD:_filbuf.obj
 0003:00027740       ??_C@_1GC@CHFNJKFB@?$AAf?$AA?3?$AA?2?$AAd?$AAd?$AA?2?$AAv?$AAc?$AAt?$AAo?$AAo?$AAl?$AAs?$AA?2?$AAc?$AAr?$AAt?$AA_?$AAb?$AAl?$AAd?$AA?2?$AAs?$AAe?$AAl?$AAf?$AA_?$AAx?$AA8?$AA6?$AA?2?$AAc@ 10126740     LIBCMTD:_filbuf.obj
 0003:000277b8       ??_C@_1O@JDPLECOK@?$AAu?$AAn?$AAg?$AAe?$AAt?$AAc?$AA?$AA@ 101267b8     LIBCMTD:ungetc.obj
 0003:000277c8       ??_C@_1GA@OAFAANFO@?$AAf?$AA?3?$AA?2?$AAd?$AAd?$AA?2?$AAv?$AAc?$AAt?$AAo?$AAo?$AAl?$AAs?$AA?2?$AAc?$AAr?$AAt?$AA_?$AAb?$AAl?$AAd?$AA?2?$AAs?$AAe?$AAl?$AAf?$AA_?$AAx?$AA8?$AA6?$AA?2?$AAc@ 101267c8     LIBCMTD:ungetc.obj
 0003:0002783c       ??_C@_1BO@OLMLKKEA@?$AA_?$AAu?$AAn?$AAg?$AAe?$AAt?$AAc?$AA_?$AAn?$AAo?$AAl?$AAo?$AAc?$AAk?$AA?$AA@ 1012683c     LIBCMTD:ungetc.obj
 0003:00027860       ??_C@_1HC@OEJDDIIH@?$AAf?$AA?3?$AA?2?$AAd?$AAd?$AA?2?$AAv?$AAc?$AAt?$AAo?$AAo?$AAl?$AAs?$AA?2?$AAc?$AAr?$AAt?$AA_?$AAb?$AAl?$AAd?$AA?2?$AAs?$AAe?$AAl?$AAf?$AA_?$AAx?$AA8?$AA6?$AA?2?$AAc@ 10126860     LIBCMTD:ungetc.obj
 0003:000278f8       ??_C@_1GE@GJCMHHMH@?$AAf?$AA?3?$AA?2?$AAd?$AAd?$AA?2?$AAv?$AAc?$AAt?$AAo?$AAo?$AAl?$AAs?$AA?2?$AAc?$AAr?$AAt?$AA_?$AAb?$AAl?$AAd?$AA?2?$AAs?$AAe?$AAl?$AAf?$AA_?$AAx?$AA8?$AA6?$AA?2?$AAc@ 101268f8     LIBCMTD:inittime.obj
 0003:00027970       ??_C@_1EE@FDHCFDHN@?$AAp?$AAl?$AAo?$AAc?$AAi?$AA?9?$AA?$DO?$AAl?$AAc?$AA_?$AAt?$AAi?$AAm?$AAe?$AA_?$AAc?$AAu?$AAr?$AAr?$AA?9?$AA?$DO?$AAr?$AAe?$AAf?$AAc?$AAo?$AAu?$AAn?$AAt?$AA?5?$AA?$DO?$AA?5@ 10126970     LIBCMTD:inittime.obj
 0003:000279c4       ??_C@_0DC@KICHHNFK@f?3?2dd?2vctools?2crt_bld?2self_x86?2c@ 101269c4     LIBCMTD:inittime.obj
 0003:00027a00       ??_C@_1GC@EDJOCBCL@?$AAf?$AA?3?$AA?2?$AAd?$AAd?$AA?2?$AAv?$AAc?$AAt?$AAo?$AAo?$AAl?$AAs?$AA?2?$AAc?$AAr?$AAt?$AA_?$AAb?$AAl?$AAd?$AA?2?$AAs?$AAe?$AAl?$AAf?$AA_?$AAx?$AA8?$AA6?$AA?2?$AAc@ 10126a00     LIBCMTD:initnum.obj
 0003:00027a78       ??_C@_1DM@IFKAINNE@?$AAp?$AAl?$AAo?$AAc?$AAi?$AA?9?$AA?$DO?$AAl?$AAc?$AAo?$AAn?$AAv?$AA_?$AAn?$AAu?$AAm?$AA_?$AAr?$AAe?$AAf?$AAc?$AAo?$AAu?$AAn?$AAt?$AA?5?$AA?$DO?$AA?5?$AA0?$AA?$AA@ 10126a78     LIBCMTD:initnum.obj
 0003:00027ac0       ??_C@_0DB@KKFMDHFI@f?3?2dd?2vctools?2crt_bld?2self_x86?2c@ 10126ac0     LIBCMTD:initnum.obj
 0003:00027b00       ??_C@_1GC@IKADOFBJ@?$AAf?$AA?3?$AA?2?$AAd?$AAd?$AA?2?$AAv?$AAc?$AAt?$AAo?$AAo?$AAl?$AAs?$AA?2?$AAc?$AAr?$AAt?$AA_?$AAb?$AAl?$AAd?$AA?2?$AAs?$AAe?$AAl?$AAf?$AA_?$AAx?$AA8?$AA6?$AA?2?$AAc@ 10126b00     LIBCMTD:initmon.obj
 0003:00027b78       ??_C@_1DM@GKAPAMDO@?$AAp?$AAl?$AAo?$AAc?$AAi?$AA?9?$AA?$DO?$AAl?$AAc?$AAo?$AAn?$AAv?$AA_?$AAm?$AAo?$AAn?$AA_?$AAr?$AAe?$AAf?$AAc?$AAo?$AAu?$AAn?$AAt?$AA?5?$AA?$DO?$AA?5?$AA0?$AA?$AA@ 10126b78     LIBCMTD:initmon.obj
 0003:00027bc0       ??_C@_0DB@BECNGFDL@f?3?2dd?2vctools?2crt_bld?2self_x86?2c@ 10126bc0     LIBCMTD:initmon.obj
 0003:00027c00       ___newctype                10126c00     LIBCMTD:ctype.obj
 0003:00027f00       __wctype                   10126f00     LIBCMTD:ctype.obj
 0003:00028108       ___newclmap                10127108     LIBCMTD:ctype.obj
 0003:00028288       ___newcumap                10127288     LIBCMTD:ctype.obj
 0003:000285a8       ??_C@_1JE@ECKHFIFP@?$AA?$CI?$AA?$CC?$AAI?$AAn?$AAv?$AAa?$AAl?$AAi?$AAd?$AA?5?$AAf?$AAi?$AAl?$AAe?$AA?5?$AAd?$AAe?$AAs?$AAc?$AAr?$AAi?$AAp?$AAt?$AAo?$AAr?$AA?4?$AA?5?$AAF?$AAi?$AAl?$AAe?$AA?5@ 101275a8     LIBCMTD:lseeki64.obj
 0003:0002865c       ??_C@_1CM@OKGMMMDH@?$AA?$CI?$AA_?$AAo?$AAs?$AAf?$AAi?$AAl?$AAe?$AA?$CI?$AAf?$AAh?$AA?$CJ?$AA?5?$AA?$CG?$AA?5?$AAF?$AAO?$AAP?$AAE?$AAN?$AA?$CJ?$AA?$AA@ 1012765c     LIBCMTD:lseeki64.obj
 0003:00028690       ??_C@_1BE@KHFBJMNM@?$AA_?$AAl?$AAs?$AAe?$AAe?$AAk?$AAi?$AA6?$AA4?$AA?$AA@ 10127690     LIBCMTD:lseeki64.obj
 0003:000286a8       ??_C@_1GE@MINKPNPH@?$AAf?$AA?3?$AA?2?$AAd?$AAd?$AA?2?$AAv?$AAc?$AAt?$AAo?$AAo?$AAl?$AAs?$AA?2?$AAc?$AAr?$AAt?$AA_?$AAb?$AAl?$AAd?$AA?2?$AAs?$AAe?$AAl?$AAf?$AA_?$AAx?$AA8?$AA6?$AA?2?$AAc@ 101276a8     LIBCMTD:lseeki64.obj
 0003:00028720       ??_C@_1O@KOFKDHPL@?$AA_?$AAw?$AAr?$AAi?$AAt?$AAe?$AA?$AA@ 10127720     LIBCMTD:write.obj
 0003:00028730       ??_C@_1FO@EPLDPDDL@?$AAf?$AA?3?$AA?2?$AAd?$AAd?$AA?2?$AAv?$AAc?$AAt?$AAo?$AAo?$AAl?$AAs?$AA?2?$AAc?$AAr?$AAt?$AA_?$AAb?$AAl?$AAd?$AA?2?$AAs?$AAe?$AAl?$AAf?$AA_?$AAx?$AA8?$AA6?$AA?2?$AAc@ 10127730     LIBCMTD:write.obj
 0003:000287a0       ??_C@_1DI@CNMHHHLG@?$AAi?$AAs?$AAl?$AAe?$AAa?$AAd?$AAb?$AAy?$AAt?$AAe?$AA?$CI?$AA_?$AAd?$AAb?$AAc?$AAs?$AAB?$AAu?$AAf?$AAf?$AAe?$AAr?$AA?$CI?$AAf?$AAh?$AA?$CJ?$AA?$CJ?$AA?$AA@ 101277a0     LIBCMTD:write.obj
 0003:000287e4       ??_C@_1CC@EEOLPHGO@?$AA?$CI?$AA?$CI?$AAc?$AAn?$AAt?$AA?5?$AA?$CG?$AA?5?$AA1?$AA?$CJ?$AA?5?$AA?$DN?$AA?$DN?$AA?5?$AA0?$AA?$CJ?$AA?$AA@ 101277e4     LIBCMTD:write.obj
 0003:0002880c       ??_C@_1BM@NCANHCIP@?$AA_?$AAw?$AAr?$AAi?$AAt?$AAe?$AA_?$AAn?$AAo?$AAl?$AAo?$AAc?$AAk?$AA?$AA@ 1012780c     LIBCMTD:write.obj
 0003:00028830       ??_C@_1BM@KFJLMBPG@?$AA?$CI?$AAb?$AAu?$AAf?$AA?5?$AA?$CB?$AA?$DN?$AA?5?$AAN?$AAU?$AAL?$AAL?$AA?$CJ?$AA?$AA@ 10127830     LIBCMTD:write.obj
 0003:00028854       ??_C@_0DB@JEHOCBEJ@f?3?2dd?2vctools?2crt_bld?2self_x86?2c@ 10127854     LIBCMTD:_getbuf.obj
 0003:00028890       ??_C@_1GC@DKMGNNCC@?$AAf?$AA?3?$AA?2?$AAd?$AAd?$AA?2?$AAv?$AAc?$AAt?$AAo?$AAo?$AAl?$AAs?$AA?2?$AAc?$AAr?$AAt?$AA_?$AAb?$AAl?$AAd?$AA?2?$AAs?$AAe?$AAl?$AAf?$AA_?$AAx?$AA8?$AA6?$AA?2?$AAc@ 10127890     LIBCMTD:_getbuf.obj
 0003:00028908       ??_C@_1DG@NMBGBDM@?$AAp?$AAl?$AAo?$AAc?$AAi?$AA?9?$AA?$DO?$AAc?$AAt?$AAy?$AAp?$AAe?$AA1?$AA_?$AAr?$AAe?$AAf?$AAc?$AAo?$AAu?$AAn?$AAt?$AA?5?$AA?$DO?$AA?5?$AA0?$AA?$AA@ 10127908     LIBCMTD:initctyp.obj
 0003:00028948       ??_C@_1GE@OCPKBDKE@?$AAf?$AA?3?$AA?2?$AAd?$AAd?$AA?2?$AAv?$AAc?$AAt?$AAo?$AAo?$AAl?$AAs?$AA?2?$AAc?$AAr?$AAt?$AA_?$AAb?$AAl?$AAd?$AA?2?$AAs?$AAe?$AAl?$AAf?$AA_?$AAx?$AA8?$AA6?$AA?2?$AAc@ 10127948     LIBCMTD:initctyp.obj
 0003:000289c0       ??_C@_0DC@EHLBFILA@f?3?2dd?2vctools?2crt_bld?2self_x86?2c@ 101279c0     LIBCMTD:initctyp.obj
 0003:000289fc       ??_C@_1BC@HGPNAKGC@?$AAs?$AAt?$AAr?$AAc?$AAa?$AAt?$AA_?$AAs?$AA?$AA@ 101279fc     LIBCMTD:strcat_s.obj
 0003:00028a14       ??_C@_0O@FMJNFNKE@united?9states?$AA@ 10127a14     LIBCMTD:getqloc.obj
 0003:00028a24       ??_C@_0P@NDHFFKCA@united?9kingdom?$AA@ 10127a24     LIBCMTD:getqloc.obj
 0003:00028a38       ??_C@_0BC@HHDADLGF@trinidad?5?$CG?5tobago?$AA@ 10127a38     LIBCMTD:getqloc.obj
 0003:00028a50       ??_C@_0M@IOAEBDAC@south?9korea?$AA@ 10127a50     LIBCMTD:getqloc.obj
 0003:00028a60       ??_C@_0N@FIELFKIJ@south?9africa?$AA@ 10127a60     LIBCMTD:getqloc.obj
 0003:00028a70       ??_C@_0M@OPNDHCMC@south?5korea?$AA@ 10127a70     LIBCMTD:getqloc.obj
 0003:00028a80       ??_C@_0N@MDEOEPFI@south?5africa?$AA@ 10127a80     LIBCMTD:getqloc.obj
 0003:00028a90       ??_C@_06FKAPCJLB@slovak?$AA@ 10127a90     LIBCMTD:getqloc.obj
 0003:00028a98       ??_C@_0M@EFJANOAL@puerto?9rico?$AA@ 10127a98     LIBCMTD:getqloc.obj
 0003:00028aa8       ??_C@_08PGOJKDAI@pr?9china?$AA@ 10127aa8     LIBCMTD:getqloc.obj
 0003:00028ab4       ??_C@_08JHDOMCMI@pr?5china?$AA@ 10127ab4     LIBCMTD:getqloc.obj
 0003:00028ac0       ??_C@_02JHCHFBLL@nz?$AA@   10127ac0     LIBCMTD:getqloc.obj
 0003:00028ac4       ??_C@_0M@LINHDHKP@new?9zealand?$AA@ 10127ac4     LIBCMTD:getqloc.obj
 0003:00028ad4       ??_C@_09IIIPPBDB@hong?9kong?$AA@ 10127ad4     LIBCMTD:getqloc.obj
 0003:00028ae0       ??_C@_07HJLCKBG@holland?$AA@ 10127ae0     LIBCMTD:getqloc.obj
 0003:00028aec       ??_C@_0O@LEHGMHAG@great?5britain?$AA@ 10127aec     LIBCMTD:getqloc.obj
 0003:00028afc       ??_C@_07FACOMELA@england?$AA@ 10127afc     LIBCMTD:getqloc.obj
 0003:00028b08       ??_C@_05JIHCEICB@czech?$AA@ 10127b08     LIBCMTD:getqloc.obj
 0003:00028b10       ??_C@_05BBJOBLGB@china?$AA@ 10127b10     LIBCMTD:getqloc.obj
 0003:00028b18       ??_C@_07GPKPHICP@britain?$AA@ 10127b18     LIBCMTD:getqloc.obj
 0003:00028b24       ??_C@_07MHIPBHMG@america?$AA@ 10127b24     LIBCMTD:getqloc.obj
 0003:00028b30       ??_C@_03KIALPMKC@usa?$AA@  10127b30     LIBCMTD:getqloc.obj
 0003:00028b34       ??_C@_02FGJGKGGD@us?$AA@   10127b34     LIBCMTD:getqloc.obj
 0003:00028b38       ??_C@_02NEINDODK@uk?$AA@   10127b38     LIBCMTD:getqloc.obj
 0003:00028b3c       ??_C@_05JMPCFJFJ@swiss?$AA@ 10127b3c     LIBCMTD:getqloc.obj
 0003:00028b44       ??_C@_0BA@HLOCPIOD@swedish?9finland?$AA@ 10127b44     LIBCMTD:getqloc.obj
 0003:00028b58       ??_C@_0BC@PKCNIABK@spanish?9venezuela?$AA@ 10127b58     LIBCMTD:getqloc.obj
 0003:00028b70       ??_C@_0BA@GBHHMIJI@spanish?9uruguay?$AA@ 10127b70     LIBCMTD:getqloc.obj
 0003:00028b84       ??_C@_0BE@BHDOHPMC@spanish?9puerto?5rico?$AA@ 10127b84     LIBCMTD:getqloc.obj
 0003:00028b9c       ??_C@_0N@KMOIDGGN@spanish?9peru?$AA@ 10127b9c     LIBCMTD:getqloc.obj
 0003:00028bac       ??_C@_0BB@HMHLPGPH@spanish?9paraguay?$AA@ 10127bac     LIBCMTD:getqloc.obj
 0003:00028bc0       ??_C@_0P@MCPKNGFD@spanish?9panama?$AA@ 10127bc0     LIBCMTD:getqloc.obj
 0003:00028bd4       ??_C@_0BC@IHOHGAIL@spanish?9nicaragua?$AA@ 10127bd4     LIBCMTD:getqloc.obj
 0003:00028bec       ??_C@_0P@KLMJDNFJ@spanish?9modern?$AA@ 10127bec     LIBCMTD:getqloc.obj
 0003:00028c00       ??_C@_0BA@BPAPGBCM@spanish?9mexican?$AA@ 10127c00     LIBCMTD:getqloc.obj
 0003:00028c14       ??_C@_0BB@PDECHHHE@spanish?9honduras?$AA@ 10127c14     LIBCMTD:getqloc.obj
 0003:00028c28       ??_C@_0BC@KLHKFGDB@spanish?9guatemala?$AA@ 10127c28     LIBCMTD:getqloc.obj
 0003:00028c40       ??_C@_0BE@MFOOKJAI@spanish?9el?5salvador?$AA@ 10127c40     LIBCMTD:getqloc.obj
 0003:00028c58       ??_C@_0BA@FCOKFPFC@spanish?9ecuador?$AA@ 10127c58     LIBCMTD:getqloc.obj
 0003:00028c6c       ??_C@_0BL@PLMGIMOO@spanish?9dominican?5republic?$AA@ 10127c6c     LIBCMTD:getqloc.obj
 0003:00028c8c       ??_C@_0BD@HLGDNMHB@spanish?9costa?5rica?$AA@ 10127c8c     LIBCMTD:getqloc.obj
 0003:00028ca4       ??_C@_0BB@PKCBKCPE@spanish?9colombia?$AA@ 10127ca4     LIBCMTD:getqloc.obj
 0003:00028cb8       ??_C@_0O@MCBIJGNE@spanish?9chile?$AA@ 10127cb8     LIBCMTD:getqloc.obj
 0003:00028cc8       ??_C@_0BA@BEFEIGJJ@spanish?9bolivia?$AA@ 10127cc8     LIBCMTD:getqloc.obj
 0003:00028cdc       ??_C@_0BC@EMECMPD@spanish?9argentina?$AA@ 10127cdc     LIBCMTD:getqloc.obj
 0003:00028cf4       ??_C@_0BF@EALFLENP@portuguese?9brazilian?$AA@ 10127cf4     LIBCMTD:getqloc.obj
 0003:00028d10       ??_C@_0BC@HBLEBLNN@norwegian?9nynorsk?$AA@ 10127d10     LIBCMTD:getqloc.obj
 0003:00028d28       ??_C@_0BB@HMACDDCK@norwegian?9bokmal?$AA@ 10127d28     LIBCMTD:getqloc.obj
 0003:00028d3c       ??_C@_09BAFFPPHE@norwegian?$AA@ 10127d3c     LIBCMTD:getqloc.obj
 0003:00028d48       ??_C@_0O@EAJFJDFG@italian?9swiss?$AA@ 10127d48     LIBCMTD:getqloc.obj
 0003:00028d58       ??_C@_0O@CNOMPGD@irish?9english?$AA@ 10127d58     LIBCMTD:getqloc.obj
 0003:00028d68       ??_C@_0N@EDHBGCKG@german?9swiss?$AA@ 10127d68     LIBCMTD:getqloc.obj
 0003:00028d78       ??_C@_0BC@JACMHNBP@german?9luxembourg?$AA@ 10127d78     LIBCMTD:getqloc.obj
 0003:00028d90       ??_C@_0BE@HBGMGFEG@german?9lichtenstein?$AA@ 10127d90     LIBCMTD:getqloc.obj
 0003:00028da8       ??_C@_0BA@HKKBIBKL@german?9austrian?$AA@ 10127da8     LIBCMTD:getqloc.obj
 0003:00028dbc       ??_C@_0N@GCAEPEBK@french?9swiss?$AA@ 10127dbc     LIBCMTD:getqloc.obj
 0003:00028dcc       ??_C@_0BC@DJFJJCK@french?9luxembourg?$AA@ 10127dcc     LIBCMTD:getqloc.obj
 0003:00028de4       ??_C@_0BA@NNCEDFIC@french?9canadian?$AA@ 10127de4     LIBCMTD:getqloc.obj
 0003:00028df8       ??_C@_0P@CMPOCLM@french?9belgian?$AA@ 10127df8     LIBCMTD:getqloc.obj
 0003:00028e0c       ??_C@_0M@GHHDJOK@english?9usa?$AA@ 10127e0c     LIBCMTD:getqloc.obj
 0003:00028e1c       ??_C@_0L@PLDJKEIL@english?9us?$AA@ 10127e1c     LIBCMTD:getqloc.obj
 0003:00028e2c       ??_C@_0L@HJCCDMNC@english?9uk?$AA@ 10127e2c     LIBCMTD:getqloc.obj
 0003:00028e3c       ??_C@_0BK@CKLIAGJB@english?9trinidad?5y?5tobago?$AA@ 10127e3c     LIBCMTD:getqloc.obj
 0003:00028e5c       ??_C@_0BF@JMJMGNNF@english?9south?5africa?$AA@ 10127e5c     LIBCMTD:getqloc.obj
 0003:00028e78       ??_C@_0L@DKIIFDFD@english?9nz?$AA@ 10127e78     LIBCMTD:getqloc.obj
 0003:00028e88       ??_C@_0BA@ONHGJCLH@english?9jamaica?$AA@ 10127e88     LIBCMTD:getqloc.obj
 0003:00028e9c       ??_C@_0M@HJBGHOPO@english?9ire?$AA@ 10127e9c     LIBCMTD:getqloc.obj
 0003:00028eac       ??_C@_0BC@LFEKMIFB@english?9caribbean?$AA@ 10127eac     LIBCMTD:getqloc.obj
 0003:00028ec4       ??_C@_0M@OLDPFKHI@english?9can?$AA@ 10127ec4     LIBCMTD:getqloc.obj
 0003:00028ed4       ??_C@_0P@OMDEHBMP@english?9belize?$AA@ 10127ed4     LIBCMTD:getqloc.obj
 0003:00028ee8       ??_C@_0M@KFHFPFED@english?9aus?$AA@ 10127ee8     LIBCMTD:getqloc.obj
 0003:00028ef8       ??_C@_0BB@MNMBKDFE@english?9american?$AA@ 10127ef8     LIBCMTD:getqloc.obj
 0003:00028f0c       ??_C@_0O@KIDLNNBA@dutch?9belgian?$AA@ 10127f0c     LIBCMTD:getqloc.obj
 0003:00028f1c       ??_C@_0BE@JBKABBMH@chinese?9traditional?$AA@ 10127f1c     LIBCMTD:getqloc.obj
 0003:00028f34       ??_C@_0BC@MJJMPKCG@chinese?9singapore?$AA@ 10127f34     LIBCMTD:getqloc.obj
 0003:00028f4c       ??_C@_0BD@FDKADDCP@chinese?9simplified?$AA@ 10127f4c     LIBCMTD:getqloc.obj
 0003:00028f64       ??_C@_0BB@DBEFDDME@chinese?9hongkong?$AA@ 10127f64     LIBCMTD:getqloc.obj
 0003:00028f78       ??_C@_07DHNMFMCI@chinese?$AA@ 10127f78     LIBCMTD:getqloc.obj
 0003:00028f84       ??_C@_03FNDDCHI@chi?$AA@   10127f84     LIBCMTD:getqloc.obj
 0003:00028f88       ??_C@_03BMMIADDJ@chh?$AA@  10127f88     LIBCMTD:getqloc.obj
 0003:00028f8c       ??_C@_08OAIPJDGI@canadian?$AA@ 10127f8c     LIBCMTD:getqloc.obj
 0003:00028f98       ??_C@_07HBPMNPNJ@belgian?$AA@ 10127f98     LIBCMTD:getqloc.obj
 0003:00028fa4       ??_C@_0L@OEKOPBEL@australian?$AA@ 10127fa4     LIBCMTD:getqloc.obj
 0003:00028fb4       ??_C@_0BB@MEIMBEDG@american?9english?$AA@ 10127fb4     LIBCMTD:getqloc.obj
 0003:00028fc8       ??_C@_0BB@DFMDPDGB@american?5english?$AA@ 10127fc8     LIBCMTD:getqloc.obj
 0003:00028fdc       ??_C@_08IJLOKOLL@american?$AA@ 10127fdc     LIBCMTD:getqloc.obj
 0003:00028fe8       ___rg_language             10127fe8     LIBCMTD:getqloc.obj
 0003:00029258       ___rg_country              10128258     LIBCMTD:getqloc.obj
 0003:00029334       ___rglangidNotDefault      10128334     LIBCMTD:getqloc.obj
 0003:0002934c       ??_C@_0BC@NFIEMBLL@Norwegian?9Nynorsk?$AA@ 1012834c     LIBCMTD:getqloc.obj
 0003:00029368       ??_C@_1OM@OECHDGCF@?$AAs?$AAt?$AAr?$AAc?$AAp?$AAy?$AA_?$AAs?$AA?$CI?$AAl?$AAp?$AAO?$AAu?$AAt?$AAS?$AAt?$AAr?$AA?9?$AA?$DO?$AAs?$AAz?$AAL?$AAa?$AAn?$AAg?$AAu?$AAa?$AAg?$AAe?$AA?0?$AA?5?$AA?$CI@ 10128368     LIBCMTD:getqloc.obj
 0003:00029484       ??_C@_1CO@NJACLALJ@?$AA_?$AA_?$AAg?$AAe?$AAt?$AA_?$AAq?$AAu?$AAa?$AAl?$AAi?$AAf?$AAi?$AAe?$AAd?$AA_?$AAl?$AAo?$AAc?$AAa?$AAl?$AAe?$AA?$AA@ 10128484     LIBCMTD:getqloc.obj
 0003:000294c0       ??_C@_1GC@FECJGAE@?$AAf?$AA?3?$AA?2?$AAd?$AAd?$AA?2?$AAv?$AAc?$AAt?$AAo?$AAo?$AAl?$AAs?$AA?2?$AAc?$AAr?$AAt?$AA_?$AAb?$AAl?$AAd?$AA?2?$AAs?$AAe?$AAl?$AAf?$AA_?$AAx?$AA8?$AA6?$AA?2?$AAc@ 101284c0     LIBCMTD:getqloc.obj
 0003:00029538       ??_C@_03NFKLAGEF@OCP?$AA@  10128538     LIBCMTD:getqloc.obj
 0003:0002953c       ??_C@_03DFHEHBHG@ACP?$AA@  1012853c     LIBCMTD:getqloc.obj
 0003:00029540       ??_C@_1O@HJNPHHHB@?$AAf?$AAp?$AAu?$AAt?$AAw?$AAc?$AA?$AA@ 10128540     LIBCMTD:fputwc.obj
 0003:00029550       ??_C@_1GA@BJIGKGEA@?$AAf?$AA?3?$AA?2?$AAd?$AAd?$AA?2?$AAv?$AAc?$AAt?$AAo?$AAo?$AAl?$AAs?$AA?2?$AAc?$AAr?$AAt?$AA_?$AAb?$AAl?$AAd?$AA?2?$AAs?$AAe?$AAl?$AAf?$AA_?$AAx?$AA8?$AA6?$AA?2?$AAc@ 10128550     LIBCMTD:fputwc.obj
 0003:000295c4       ??_C@_1BM@JMKHIAHP@?$AA?$CI?$AAs?$AAt?$AAr?$AA?5?$AA?$CB?$AA?$DN?$AA?5?$AAN?$AAU?$AAL?$AAL?$AA?$CJ?$AA?$AA@ 101285c4     LIBCMTD:fputwc.obj
 0003:000295e8       __pDestructExceptionObject 101285e8     LIBCMTD:frame.obj
 0003:000295ec       ??_C@_0O@DPKOEFFH@bad?5exception?$AA@ 101285ec     LIBCMTD:frame.obj
 0003:00029600       ??_7bad_exception@std@@6B@ 10128600     LIBCMTD:frame.obj
 0003:0002960c       ??_C@_0BK@CIDNPOGP@GetUserObjectInformationA?$AA@ 1012860c     LIBCMTD:crtmbox.obj
 0003:0002962c       ??_C@_0M@CHKKJDAI@MessageBoxA?$AA@ 1012862c     LIBCMTD:crtmbox.obj
 0003:0002963c       ?commonFlags@?1??_control87@@9@9 1012863c     LIBCMTD:_ieee87_.obj
 0003:00029640       ??_C@_1GO@OKJGOMCB@?$AA_?$AAc?$AAo?$AAn?$AAt?$AAr?$AAo?$AAl?$AAf?$AAp?$AA_?$AAs?$AA?$CI?$AA?$CI?$AA?$CI?$AAv?$AAo?$AAi?$AAd?$AA?5?$AA?$CK?$AA?$CJ?$AA0?$AA?$CJ?$AA?0?$AA?5?$AAn?$AAe?$AAw?$AAc?$AAt?$AAr@ 10128640     LIBCMTD:_ieee87_.obj
 0003:000296c4       ??_C@_1BO@OFDNCLL@?$AA_?$AAs?$AAe?$AAt?$AA_?$AAc?$AAo?$AAn?$AAt?$AAr?$AAo?$AAl?$AAf?$AAp?$AA?$AA@ 101286c4     LIBCMTD:_ieee87_.obj
 0003:000296e8       ??_C@_1HO@BFDKGHOI@?$AAf?$AA?3?$AA?2?$AAd?$AAd?$AA?2?$AAv?$AAc?$AAt?$AAo?$AAo?$AAl?$AAs?$AA?2?$AAc?$AAr?$AAt?$AA_?$AAb?$AAl?$AAd?$AA?2?$AAs?$AAe?$AAl?$AAf?$AA_?$AAx?$AA8?$AA6?$AA?2?$AAc@ 101286e8     LIBCMTD:_ieee87_.obj
 0003:00029780       ??_C@_06IMKFLFPG@1?$CDQNAN?$AA@ 10128780     LIBCMTD:_x10fout_.obj
 0003:00029788       ??_C@_1EG@MCFPJJEM@?$AAs?$AAt?$AAr?$AAc?$AAp?$AAy?$AA_?$AAs?$AA?$CI?$AAf?$AAo?$AAs?$AA?9?$AA?$DO?$AAm?$AAa?$AAn?$AA?0?$AA?5?$AA2?$AA1?$AA?$CL?$AA1?$AA?0?$AA?5?$AA?$CC?$AA1?$AA?$CD?$AAQ?$AAN?$AAA?$AAN@ 10128788     LIBCMTD:_x10fout_.obj
 0003:000297dc       ??_C@_05DNEBIAHO@1?$CDINF?$AA@ 101287dc     LIBCMTD:_x10fout_.obj
 0003:000297e8       ??_C@_1EE@ICBBBPAI@?$AAs?$AAt?$AAr?$AAc?$AAp?$AAy?$AA_?$AAs?$AA?$CI?$AAf?$AAo?$AAs?$AA?9?$AA?$DO?$AAm?$AAa?$AAn?$AA?0?$AA?5?$AA2?$AA1?$AA?$CL?$AA1?$AA?0?$AA?5?$AA?$CC?$AA1?$AA?$CD?$AAI?$AAN?$AAF?$AA?$CC@ 101287e8     LIBCMTD:_x10fout_.obj
 0003:0002983c       ??_C@_05PHHOCPM@1?$CDIND?$AA@ 1012883c     LIBCMTD:_x10fout_.obj
 0003:00029848       ??_C@_1EE@MADEBIHF@?$AAs?$AAt?$AAr?$AAc?$AAp?$AAy?$AA_?$AAs?$AA?$CI?$AAf?$AAo?$AAs?$AA?9?$AA?$DO?$AAm?$AAa?$AAn?$AA?0?$AA?5?$AA2?$AA1?$AA?$CL?$AA1?$AA?0?$AA?5?$AA?$CC?$AA1?$AA?$CD?$AAI?$AAN?$AAD?$AA?$CC@ 10128848     LIBCMTD:_x10fout_.obj
 0003:0002989c       ??_C@_06PGGFOGJG@1?$CDSNAN?$AA@ 1012889c     LIBCMTD:_x10fout_.obj
 0003:000298a8       ??_C@_1EG@CDDBFNOB@?$AAs?$AAt?$AAr?$AAc?$AAp?$AAy?$AA_?$AAs?$AA?$CI?$AAf?$AAo?$AAs?$AA?9?$AA?$DO?$AAm?$AAa?$AAn?$AA?0?$AA?5?$AA2?$AA1?$AA?$CL?$AA1?$AA?0?$AA?5?$AA?$CC?$AA1?$AA?$CD?$AAS?$AAN?$AAA?$AAN@ 101288a8     LIBCMTD:_x10fout_.obj
 0003:000298fc       ??_C@_1BI@ELMAAFLN@?$AA$?$AAI?$AA1?$AA0?$AA_?$AAO?$AAU?$AAT?$AAP?$AAU?$AAT?$AA?$AA@ 101288fc     LIBCMTD:_x10fout_.obj
 0003:00029918       ??_C@_1HG@HFJMHCFK@?$AAf?$AA?3?$AA?2?$AAd?$AAd?$AA?2?$AAv?$AAc?$AAt?$AAo?$AAo?$AAl?$AAs?$AA?2?$AAc?$AAr?$AAt?$AA_?$AAb?$AAl?$AAd?$AA?2?$AAs?$AAe?$AAl?$AAf?$AA_?$AAx?$AA8?$AA6?$AA?2?$AAc@ 10128918     LIBCMTD:_x10fout_.obj
 0003:000299a8       ??_C@_1O@EGMJNCOI@?$AAf?$AAc?$AAl?$AAo?$AAs?$AAe?$AA?$AA@ 101289a8     LIBCMTD:fclose.obj
 0003:000299b8       ??_C@_1GA@KMIDAPAP@?$AAf?$AA?3?$AA?2?$AAd?$AAd?$AA?2?$AAv?$AAc?$AAt?$AAo?$AAo?$AAl?$AAs?$AA?2?$AAc?$AAr?$AAt?$AA_?$AAb?$AAl?$AAd?$AA?2?$AAs?$AAe?$AAl?$AAf?$AA_?$AAx?$AA8?$AA6?$AA?2?$AAc@ 101289b8     LIBCMTD:fclose.obj
 0003:00029a2c       ??_C@_1BO@JINCABEC@?$AA_?$AAf?$AAc?$AAl?$AAo?$AAs?$AAe?$AA_?$AAn?$AAo?$AAl?$AAo?$AAc?$AAk?$AA?$AA@ 10128a2c     LIBCMTD:fclose.obj
 0003:00029a50       ??_C@_1DG@LNNHNFHJ@?$AA?$CI?$AA_?$AAo?$AAs?$AAf?$AAi?$AAl?$AAe?$AA?$CI?$AAf?$AAi?$AAl?$AAe?$AAd?$AAe?$AAs?$AA?$CJ?$AA?5?$AA?$CG?$AA?5?$AAF?$AAO?$AAP?$AAE?$AAN?$AA?$CJ?$AA?$AA@ 10128a50     LIBCMTD:commit.obj
 0003:00029a90       ??_C@_1BA@FLNMBBIM@?$AA_?$AAc?$AAo?$AAm?$AAm?$AAi?$AAt?$AA?$AA@ 10128a90     LIBCMTD:commit.obj
 0003:00029aa8       ??_C@_1GA@BOPCOCFN@?$AAf?$AA?3?$AA?2?$AAd?$AAd?$AA?2?$AAv?$AAc?$AAt?$AAo?$AAo?$AAl?$AAs?$AA?2?$AAc?$AAr?$AAt?$AA_?$AAb?$AAl?$AAd?$AA?2?$AAs?$AAe?$AAl?$AAf?$AA_?$AAx?$AA8?$AA6?$AA?2?$AAc@ 10128aa8     LIBCMTD:commit.obj
 0003:00029b20       ??_C@_1HC@KFLBHHBC@?$AA?$CI?$AAf?$AAi?$AAl?$AAe?$AAd?$AAe?$AAs?$AA?5?$AA?$DO?$AA?$DN?$AA?5?$AA0?$AA?5?$AA?$CG?$AA?$CG?$AA?5?$AA?$CI?$AAu?$AAn?$AAs?$AAi?$AAg?$AAn?$AAe?$AAd?$AA?$CJ?$AAf?$AAi?$AAl?$AAe?$AAd@ 10128b20     LIBCMTD:commit.obj
 0003:00029ba8       ??_C@_1CG@JEHFHLNG@?$AA_?$AAm?$AAb?$AAs?$AAt?$AAo?$AAw?$AAc?$AAs?$AA_?$AAl?$AA_?$AAh?$AAe?$AAl?$AAp?$AAe?$AAr?$AA?$AA@ 10128ba8     LIBCMTD:mbstowcs.obj
 0003:00029bd8       ??_C@_1GE@LCCDHBMH@?$AAf?$AA?3?$AA?2?$AAd?$AAd?$AA?2?$AAv?$AAc?$AAt?$AAo?$AAo?$AAl?$AAs?$AA?2?$AAc?$AAr?$AAt?$AA_?$AAb?$AAl?$AAd?$AA?2?$AAs?$AAe?$AAl?$AAf?$AA_?$AAx?$AA8?$AA6?$AA?2?$AAc@ 10128bd8     LIBCMTD:mbstowcs.obj
 0003:00029c50       ??_C@_1BE@EEKACIGI@?$AAs?$AA?5?$AA?$CB?$AA?$DN?$AA?5?$AAN?$AAU?$AAL?$AAL?$AA?$AA@ 10128c50     LIBCMTD:mbstowcs.obj
 0003:00029c68       ??_C@_1CO@JNPEPJAL@?$AAr?$AAe?$AAt?$AAs?$AAi?$AAz?$AAe?$AA?5?$AA?$DM?$AA?$DN?$AA?5?$AAs?$AAi?$AAz?$AAe?$AAI?$AAn?$AAW?$AAo?$AAr?$AAd?$AAs?$AA?$AA@ 10128c68     LIBCMTD:mbstowcs.obj
 0003:00029ca0       ??_C@_1CM@LLECFMFH@?$AAb?$AAu?$AAf?$AAf?$AAe?$AAr?$AAS?$AAi?$AAz?$AAe?$AA?5?$AA?$DM?$AA?$DN?$AA?5?$AAI?$AAN?$AAT?$AA_?$AAM?$AAA?$AAX?$AA?$AA@ 10128ca0     LIBCMTD:mbstowcs.obj
 0003:00029cd4       ??_C@_1BM@PHENIGHD@?$AA_?$AAm?$AAb?$AAs?$AAt?$AAo?$AAw?$AAc?$AAs?$AA_?$AAs?$AA_?$AAl?$AA?$AA@ 10128cd4     LIBCMTD:mbstowcs.obj
 0003:00029cf8       ??_C@_1JA@JKDFMOPO@?$AA?$CI?$AAp?$AAw?$AAc?$AAs?$AA?5?$AA?$DN?$AA?$DN?$AA?5?$AAN?$AAU?$AAL?$AAL?$AA?5?$AA?$CG?$AA?$CG?$AA?5?$AAs?$AAi?$AAz?$AAe?$AAI?$AAn?$AAW?$AAo?$AAr?$AAd?$AAs?$AA?5?$AA?$DN?$AA?$DN?$AA?5@ 10128cf8     LIBCMTD:mbstowcs.obj
 0003:00029da4       ??_C@_1CM@HABGDNLJ@?$AAl?$AAe?$AAn?$AAg?$AAt?$AAh?$AA?5?$AA?$DM?$AA?5?$AAs?$AAi?$AAz?$AAe?$AAI?$AAn?$AAT?$AAC?$AAh?$AAa?$AAr?$AAs?$AA?$AA@ 10128da4     LIBCMTD:xtoas.obj
 0003:00029dd8       ??_C@_1DE@PCJGDBBD@?$AA2?$AA?5?$AA?$DM?$AA?$DN?$AA?5?$AAr?$AAa?$AAd?$AAi?$AAx?$AA?5?$AA?$CG?$AA?$CG?$AA?5?$AAr?$AAa?$AAd?$AAi?$AAx?$AA?5?$AA?$DM?$AA?$DN?$AA?5?$AA3?$AA6?$AA?$AA@ 10128dd8     LIBCMTD:xtoas.obj
 0003:00029e18       ??_C@_1FA@MKGGAGEI@?$AAs?$AAi?$AAz?$AAe?$AAI?$AAn?$AAT?$AAC?$AAh?$AAa?$AAr?$AAs?$AA?5?$AA?$DO?$AA?5?$AA?$CI?$AAs?$AAi?$AAz?$AAe?$AA_?$AAt?$AA?$CJ?$AA?$CI?$AAi?$AAs?$AA_?$AAn?$AAe?$AAg?$AA?5?$AA?$DP@ 10128e18     LIBCMTD:xtoas.obj
 0003:00029e78       ??_C@_1CC@JNJFIMGE@?$AAs?$AAi?$AAz?$AAe?$AAI?$AAn?$AAT?$AAC?$AAh?$AAa?$AAr?$AAs?$AA?5?$AA?$DO?$AA?5?$AA0?$AA?$AA@ 10128e78     LIBCMTD:xtoas.obj
 0003:00029ea0       ??_C@_1O@GIMBNLEI@?$AAx?$AAt?$AAo?$AAa?$AA_?$AAs?$AA?$AA@ 10128ea0     LIBCMTD:xtoas.obj
 0003:00029eb0       ??_C@_1FM@MFCBFCGB@?$AAf?$AA?3?$AA?2?$AAd?$AAd?$AA?2?$AAv?$AAc?$AAt?$AAo?$AAo?$AAl?$AAs?$AA?2?$AAc?$AAr?$AAt?$AA_?$AAb?$AAl?$AAd?$AA?2?$AAs?$AAe?$AAl?$AAf?$AA_?$AAx?$AA8?$AA6?$AA?2?$AAc@ 10128eb0     LIBCMTD:xtoas.obj
 0003:00029f20       ??_C@_1BC@MJJNBNFN@?$AAx?$AA6?$AA4?$AAt?$AAo?$AAa?$AA_?$AAs?$AA?$AA@ 10128f20     LIBCMTD:xtoas.obj
 0003:00029f38       ??_C@_1CG@LLJCAOHF@?$AA_?$AAw?$AAc?$AAs?$AAt?$AAo?$AAm?$AAb?$AAs?$AA_?$AAl?$AA_?$AAh?$AAe?$AAl?$AAp?$AAe?$AAr?$AA?$AA@ 10128f38     LIBCMTD:wcstombs.obj
 0003:00029f68       ??_C@_1GE@OAENIBOD@?$AAf?$AA?3?$AA?2?$AAd?$AAd?$AA?2?$AAv?$AAc?$AAt?$AAo?$AAo?$AAl?$AAs?$AA?2?$AAc?$AAr?$AAt?$AA_?$AAb?$AAl?$AAd?$AA?2?$AAs?$AAe?$AAl?$AAf?$AA_?$AAx?$AA8?$AA6?$AA?2?$AAc@ 10128f68     LIBCMTD:wcstombs.obj
 0003:00029fe0       ??_C@_1BK@OIBENBPM@?$AAp?$AAw?$AAc?$AAs?$AA?5?$AA?$CB?$AA?$DN?$AA?5?$AAN?$AAU?$AAL?$AAL?$AA?$AA@ 10128fe0     LIBCMTD:wcstombs.obj
 0003:0002a000       ??_C@_1CM@KEOGBFLI@?$AAs?$AAi?$AAz?$AAe?$AAI?$AAn?$AAB?$AAy?$AAt?$AAe?$AAs?$AA?5?$AA?$DO?$AA?5?$AAr?$AAe?$AAt?$AAs?$AAi?$AAz?$AAe?$AA?$AA@ 10129000     LIBCMTD:wcstombs.obj
 0003:0002a034       ??_C@_1BM@BDMCLLDL@?$AA_?$AAw?$AAc?$AAs?$AAt?$AAo?$AAm?$AAb?$AAs?$AA_?$AAs?$AA_?$AAl?$AA?$AA@ 10129034     LIBCMTD:wcstombs.obj
 0003:0002a058       ??_C@_1IM@MFGKHGBP@?$AA?$CI?$AAd?$AAs?$AAt?$AA?5?$AA?$CB?$AA?$DN?$AA?5?$AAN?$AAU?$AAL?$AAL?$AA?5?$AA?$CG?$AA?$CG?$AA?5?$AAs?$AAi?$AAz?$AAe?$AAI?$AAn?$AAB?$AAy?$AAt?$AAe?$AAs?$AA?5?$AA?$DO?$AA?5?$AA0?$AA?$CJ@ 10129058     LIBCMTD:wcstombs.obj
 0003:0002a100       ??_C@_1CE@IGKFIJFD@?$AA_?$AAv?$AAs?$AAw?$AAp?$AAr?$AAi?$AAn?$AAt?$AAf?$AA_?$AAh?$AAe?$AAl?$AAp?$AAe?$AAr?$AA?$AA@ 10129100     LIBCMTD:vswprnc.obj
 0003:0002a130       ??_C@_1EE@MPCHJFGP@?$AAs?$AAt?$AAr?$AAi?$AAn?$AAg?$AA?5?$AA?$CB?$AA?$DN?$AA?5?$AAN?$AAU?$AAL?$AAL?$AA?5?$AA?$CG?$AA?$CG?$AA?5?$AAs?$AAi?$AAz?$AAe?$AAI?$AAn?$AAW?$AAo?$AAr?$AAd?$AAs?$AA?5?$AA?$DO?$AA?5@ 10129130     LIBCMTD:vswprnc.obj
 0003:0002a184       ??_C@_1BO@OALHJLCI@?$AA_?$AAv?$AAs?$AAw?$AAp?$AAr?$AAi?$AAn?$AAt?$AAf?$AA_?$AAs?$AA_?$AAl?$AA?$AA@ 10129184     LIBCMTD:vswprnc.obj
 0003:0002a1a8       ??_C@_1CA@BKFKMJFF@?$AA_?$AAv?$AAs?$AAn?$AAw?$AAp?$AAr?$AAi?$AAn?$AAt?$AAf?$AA_?$AAs?$AA_?$AAl?$AA?$AA@ 101291a8     LIBCMTD:vswprnc.obj
 0003:0002a1d0       ??_C@_1O@NCBFODOE@?$AAx?$AAt?$AAo?$AAw?$AA_?$AAs?$AA?$AA@ 101291d0     LIBCMTD:xtows.obj
 0003:0002a1e0       ??_C@_1BC@HDEJCFPB@?$AAx?$AA6?$AA4?$AAt?$AAo?$AAw?$AA_?$AAs?$AA?$AA@ 101291e0     LIBCMTD:xtows.obj
 0003:0002a1f8       ??_C@_1BK@EPLNBKAK@?$AA_?$AAv?$AAs?$AAw?$AAp?$AAr?$AAi?$AAn?$AAt?$AAf?$AA_?$AAl?$AA?$AA@ 101291f8     LIBCMTD:vswprint.obj
 0003:0002a218       ??_C@_1CG@IMMIEPNA@?$AA_?$AAv?$AAs?$AAc?$AAw?$AAp?$AAr?$AAi?$AAn?$AAt?$AAf?$AA_?$AAh?$AAe?$AAl?$AAp?$AAe?$AAr?$AA?$AA@ 10129218     LIBCMTD:vswprint.obj
 0003:0002a248       ??_C@_1CC@HBLPFNKH@?$AA?$CI?$AAc?$AAn?$AAt?$AA?5?$AA?$DM?$AA?$DN?$AA?5?$AAI?$AAN?$AAT?$AA_?$AAM?$AAA?$AAX?$AA?$CJ?$AA?$AA@ 10129248     LIBCMTD:read.obj
 0003:0002a270       ??_C@_1M@NHJOLLDM@?$AA_?$AAr?$AAe?$AAa?$AAd?$AA?$AA@ 10129270     LIBCMTD:read.obj
 0003:0002a280       ??_C@_1FM@NGICBHLO@?$AAf?$AA?3?$AA?2?$AAd?$AAd?$AA?2?$AAv?$AAc?$AAt?$AAo?$AAo?$AAl?$AAs?$AA?2?$AAc?$AAr?$AAt?$AA_?$AAb?$AAl?$AAd?$AA?2?$AAs?$AAe?$AAl?$AAf?$AA_?$AAx?$AA8?$AA6?$AA?2?$AAc@ 10129280     LIBCMTD:read.obj
 0003:0002a2f0       ??_C@_0CO@CEGKNHEH@f?3?2dd?2vctools?2crt_bld?2self_x86?2c@ 101292f0     LIBCMTD:read.obj
 0003:0002a328       ??_C@_1CG@OHLJHGGK@?$AA?$CI?$AAi?$AAn?$AAp?$AAu?$AAt?$AAb?$AAu?$AAf?$AA?5?$AA?$CB?$AA?$DN?$AA?5?$AAN?$AAU?$AAL?$AAL?$AA?$CJ?$AA?$AA@ 10129328     LIBCMTD:read.obj
 0003:0002a358       ??_C@_1BK@JJBHNDKJ@?$AA_?$AAr?$AAe?$AAa?$AAd?$AA_?$AAn?$AAo?$AAl?$AAo?$AAc?$AAk?$AA?$AA@ 10129358     LIBCMTD:read.obj
 0003:0002a378       ??_C@_0DB@KIKNCIEC@f?3?2dd?2vctools?2crt_bld?2self_x86?2c@ 10129378     LIBCMTD:osfinfo.obj
 0003:0002a3b4       ??_C@_1BO@EMBOBGKE@?$AA_?$AAg?$AAe?$AAt?$AA_?$AAo?$AAs?$AAf?$AAh?$AAa?$AAn?$AAd?$AAl?$AAe?$AA?$AA@ 101293b4     LIBCMTD:osfinfo.obj
 0003:0002a3d8       ??_C@_1GC@MLKLDJJG@?$AAf?$AA?3?$AA?2?$AAd?$AAd?$AA?2?$AAv?$AAc?$AAt?$AAo?$AAo?$AAl?$AAs?$AA?2?$AAc?$AAr?$AAt?$AA_?$AAb?$AAl?$AAd?$AA?2?$AAs?$AAe?$AAl?$AAf?$AA_?$AAx?$AA8?$AA6?$AA?2?$AAc@ 101293d8     LIBCMTD:osfinfo.obj
 0003:0002a450       ??_C@_1BG@GLLONOEH@?$AA_?$AAs?$AAt?$AAr?$AAi?$AAc?$AAm?$AAp?$AA_?$AAl?$AA?$AA@ 10129450     LIBCMTD:stricmp.obj
 0003:0002a470       ??_C@_1GC@OILHAOLL@?$AAf?$AA?3?$AA?2?$AAd?$AAd?$AA?2?$AAv?$AAc?$AAt?$AAo?$AAo?$AAl?$AAs?$AA?2?$AAc?$AAr?$AAt?$AA_?$AAb?$AAl?$AAd?$AA?2?$AAs?$AAe?$AAl?$AAf?$AA_?$AAx?$AA8?$AA6?$AA?2?$AAc@ 10129470     LIBCMTD:stricmp.obj
 0003:0002a4e8       ??_C@_1BC@JLGKKIIG@?$AA_?$AAs?$AAt?$AAr?$AAi?$AAc?$AAm?$AAp?$AA?$AA@ 101294e8     LIBCMTD:stricmp.obj
 0003:0002a500       ??_C@_1CC@JLPHKJPH@?$AAc?$AAo?$AAu?$AAn?$AAt?$AA?5?$AA?$DM?$AA?$DN?$AA?5?$AAI?$AAN?$AAT?$AA_?$AAM?$AAA?$AAX?$AA?$AA@ 10129500     LIBCMTD:strnicmp.obj
 0003:0002a528       ??_C@_1BI@BJLEPLEF@?$AA_?$AAs?$AAt?$AAr?$AAn?$AAi?$AAc?$AAm?$AAp?$AA_?$AAl?$AA?$AA@ 10129528     LIBCMTD:strnicmp.obj
 0003:0002a548       ??_C@_1GE@CONPOJMA@?$AAf?$AA?3?$AA?2?$AAd?$AAd?$AA?2?$AAv?$AAc?$AAt?$AAo?$AAo?$AAl?$AAs?$AA?2?$AAc?$AAr?$AAt?$AA_?$AAb?$AAl?$AAd?$AA?2?$AAs?$AAe?$AAl?$AAf?$AA_?$AAx?$AA8?$AA6?$AA?2?$AAc@ 10129548     LIBCMTD:strnicmp.obj
 0003:0002a5c0       ??_C@_1BE@BHJDFFNA@?$AA_?$AAs?$AAt?$AAr?$AAn?$AAi?$AAc?$AAm?$AAp?$AA?$AA@ 101295c0     LIBCMTD:strnicmp.obj
 0003:0002a5d8       ??_C@_1O@EDEJGJBM@?$AA_?$AAc?$AAl?$AAo?$AAs?$AAe?$AA?$AA@ 101295d8     LIBCMTD:close.obj
 0003:0002a5e8       ??_C@_1FO@NNGNFGFH@?$AAf?$AA?3?$AA?2?$AAd?$AAd?$AA?2?$AAv?$AAc?$AAt?$AAo?$AAo?$AAl?$AAs?$AA?2?$AAc?$AAr?$AAt?$AA_?$AAb?$AAl?$AAd?$AA?2?$AAs?$AAe?$AAl?$AAf?$AA_?$AAx?$AA8?$AA6?$AA?2?$AAc@ 101295e8     LIBCMTD:close.obj
 0003:0002a658       ??_C@_1GE@MIMBMOF@?$AAf?$AA?3?$AA?2?$AAd?$AAd?$AA?2?$AAv?$AAc?$AAt?$AAo?$AAo?$AAl?$AAs?$AA?2?$AAc?$AAr?$AAt?$AA_?$AAb?$AAl?$AAd?$AA?2?$AAs?$AAe?$AAl?$AAf?$AA_?$AAx?$AA8?$AA6?$AA?2?$AAc@ 10129658     LIBCMTD:_freebuf.obj
 0003:0002a6d0       ??_C@_1BO@KIJENGPH@?$AAs?$AAt?$AAr?$AAe?$AAa?$AAm?$AA?5?$AA?$CB?$AA?$DN?$AA?5?$AAN?$AAU?$AAL?$AAL?$AA?$AA@ 101296d0     LIBCMTD:_freebuf.obj
 0003:0002a6f4       ??_C@_1BK@ONMFGLDB@?$AA_?$AAw?$AAo?$AAu?$AAt?$AAp?$AAu?$AAt?$AA_?$AAs?$AA_?$AAl?$AA?$AA@ 101296f4     LIBCMTD:woutputs.obj
 0003:0002a714       ??_C@_1BK@GDEKGMNC@?$AA_?$AAw?$AAo?$AAu?$AAt?$AAp?$AAu?$AAt?$AA_?$AAp?$AA_?$AAl?$AA?$AA@ 10129714     LIBCMTD:woutputp.obj
 0003:0002a734       ??_C@_1BA@BALFACEM@?$AAC?$AAO?$AAN?$AAO?$AAU?$AAT?$AA$?$AA?$AA@ 10129734     LIBCMTD:initcon.obj
 0003:0002a748       ??_C@_1BA@PCFLFGNC@?$AAw?$AAc?$AAs?$AAt?$AAo?$AAx?$AAl?$AA?$AA@ 10129748     LIBCMTD:wcstol.obj
 0003:0002a760       ??_C@_1GA@CADFOND@?$AAf?$AA?3?$AA?2?$AAd?$AAd?$AA?2?$AAv?$AAc?$AAt?$AAo?$AAo?$AAl?$AAs?$AA?2?$AAc?$AAr?$AAt?$AA_?$AAb?$AAl?$AAd?$AA?2?$AAs?$AAe?$AAl?$AAf?$AA_?$AAx?$AA8?$AA6?$AA?2?$AAc@ 10129760     LIBCMTD:wcstol.obj
 0003:0002a7d4       ??_C@_0BD@DDBDNLPL@GameUISystemMgr001?$AA@ 101297d4     interfaces:interfaces.obj
 0003:0002a7ec       ??_C@_0BD@LAPBEDAK@MATCHFRAMEWORK_001?$AA@ 101297ec     interfaces:interfaces.obj
 0003:0002a804       ??_C@_0BH@KGEMLLBN@RenderSystemSurface001?$AA@ 10129804     interfaces:interfaces.obj
 0003:0002a820       ??_C@_0BE@FAMOEOGE@WorldRendererMgr001?$AA@ 10129820     interfaces:interfaces.obj
 0003:0002a838       ??_C@_0BA@CCICIDEG@SceneSystem_001?$AA@ 10129838     interfaces:interfaces.obj
 0003:0002a84c       ??_C@_0BI@BHPBJDM@RenderHardwareConfig001?$AA@ 1012984c     interfaces:interfaces.obj
 0003:0002a868       ??_C@_0BA@IKKMFFNE@RenderDevice001?$AA@ 10129868     interfaces:interfaces.obj
 0003:0002a87c       ??_C@_0O@GNEFFBLO@MeshSystem001?$AA@ 1012987c     interfaces:interfaces.obj
 0003:0002a88c       ??_C@_0BB@CFGCNABN@VSoundEmitter003?$AA@ 1012988c     interfaces:interfaces.obj
 0003:0002a8a0       ??_C@_0BF@PLKAEACL@VPhysicsCollision007?$AA@ 101298a0     interfaces:interfaces.obj
 0003:0002a8bc       ??_C@_0BF@IHBOFOAB@VDmeMakeFileUtils001?$AA@ 101298bc     interfaces:interfaces.obj
 0003:0002a8d8       ??_C@_07JAELMMK@VBik001?$AA@ 101298d8     interfaces:interfaces.obj
 0003:0002a8e4       ??_C@_07LAKMEFHJ@VAvi001?$AA@ 101298e4     interfaces:interfaces.obj
 0003:0002a8f0       ??_C@_0M@FDOOFAJO@MDLCache004?$AA@ 101298f0     interfaces:interfaces.obj
 0003:0002a900       ??_C@_0O@JLMOFHOC@VDataCache003?$AA@ 10129900     interfaces:interfaces.obj
 0003:0002a910       ??_C@_0BE@MBLMPAED@MatSystemSurface006?$AA@ 10129910     interfaces:interfaces.obj
 0003:0002a928       ??_C@_0N@LHOFGHBG@Localize_001?$AA@ 10129928     interfaces:interfaces.obj
 0003:0002a938       ??_C@_0P@PFJGPHGG@VGUI_System010?$AA@ 10129938     interfaces:interfaces.obj
 0003:0002a94c       ??_C@_0P@PACDEMCC@VGUI_Scheme010?$AA@ 1012994c     interfaces:interfaces.obj
 0003:0002a960       ??_C@_0BA@NFOMELFH@VGUI_Surface031?$AA@ 10129960     interfaces:interfaces.obj
 0003:0002a974       ??_C@_0O@BLBEAEJG@VGUI_Panel009?$AA@ 10129974     interfaces:interfaces.obj
 0003:0002a984       ??_C@_0O@KEFJEFH@VGUI_Input005?$AA@ 10129984     interfaces:interfaces.obj
 0003:0002a994       ??_C@_0O@KIENLDFE@VGUI_ivgui008?$AA@ 10129994     interfaces:interfaces.obj
 0003:0002a9a4       ??_C@_0BB@PEKNOCJA@VStudioRender026?$AA@ 101299a4     interfaces:interfaces.obj
 0003:0002a9b8       ??_C@_0BD@GAPHACDN@VPrecacheSystem001?$AA@ 101299b8     interfaces:interfaces.obj
 0003:0002a9d0       ??_C@_0BK@BNADKAOO@VResourceAccessControl001?$AA@ 101299d0     interfaces:interfaces.obj
 0003:0002a9f0       ??_C@_0BH@EDCMADAP@QueuedLoaderVersion001?$AA@ 101299f0     interfaces:interfaces.obj
 0003:0002aa0c       ??_C@_0L@JKJAFMO@VMDLLIB001?$AA@ 10129a0c     interfaces:interfaces.obj
 0003:0002aa1c       ??_C@_06EDIJKDPN@VP4002?$AA@ 10129a1c     interfaces:interfaces.obj
 0003:0002aa24       ??_C@_0BK@BIOKFMO@COLORCORRECTION_VERSION_1?$AA@ 10129a24     interfaces:interfaces.obj
 0003:0002aa44       ??_C@_0BC@LDFGJHOB@VBAllocTracker001?$AA@ 10129a44     interfaces:interfaces.obj
 0003:0002aa5c       ??_C@_0BE@PCBACOML@DebugTextureInfo001?$AA@ 10129a5c     interfaces:interfaces.obj
 0003:0002aa74       ??_C@_0P@PEGJMBKP@SoundSystem001?$AA@ 10129a74     interfaces:interfaces.obj
 0003:0002aa88       ??_C@_0BD@DFGGKAK@RenderDeviceMgr001?$AA@ 10129a88     interfaces:interfaces.obj
 0003:0002aaa0       ??_C@_0BI@OFANKHPJ@NetworkSystemVersion001?$AA@ 10129aa0     interfaces:interfaces.obj
 0003:0002aabc       ??_C@_0BL@PKFICKHM@InputStackSystemVersion001?$AA@ 10129abc     interfaces:interfaces.obj
 0003:0002aadc       ??_C@_0BG@BKNMCPPE@InputSystemVersion001?$AA@ 10129adc     interfaces:interfaces.obj
 0003:0002aaf8       ??_C@_0BF@IJKDMCLN@VMaterialSystem2_001?$AA@ 10129af8     interfaces:interfaces.obj
 0003:0002ab14       ??_C@_0BD@ECOBDDLG@VMaterialSystem080?$AA@ 10129b14     interfaces:interfaces.obj
 0003:0002ab2c       ??_C@_0BC@MGEMDEGG@ResourceSystem004?$AA@ 10129b2c     interfaces:interfaces.obj
 0003:0002ab44       ??_C@_0BH@HAEACKAF@VNewAsyncFileSystem001?$AA@ 10129b44     interfaces:interfaces.obj
 0003:0002ab60       ??_C@_0P@PAEMGLHD@VFileSystem017?$AA@ 10129b60     interfaces:interfaces.obj
 0003:0002ab74       ??_C@_0CE@KHAPOONI@Physics2?5Interface?5ResourceMgr?5v@ 10129b74     interfaces:interfaces.obj
 0003:0002aba0       ??_C@_0CB@GAHAMLDC@Physics2?5Interface?5ActorMgr?5v0?41@ 10129ba0     interfaces:interfaces.obj
 0003:0002abc8       ??_C@_0BI@BCGHDMHK@Physics2?5Interface?5v0?43?$AA@ 10129bc8     interfaces:interfaces.obj
 0003:0002abe4       ??_C@_0BB@OIAKPELP@VProcessUtils002?$AA@ 10129be4     interfaces:interfaces.obj
 0003:0002abf8       ??_C@_0P@EAOECLCP@EventSystem001?$AA@ 10129bf8     interfaces:interfaces.obj
 0003:0002ac0c       ??_C@_0P@DHJOKMPC@VEngineCvar007?$AA@ 10129c0c     interfaces:interfaces.obj
 0003:0002ae28       ??_C@_0EA@IJLIBNOB@APPSYSTEM?3?5In?5ConnectInterfaces?$CI@ 10129e28     interfaces:interfaces.obj
 0003:0002ae74       ??_C@_1BA@DIKNJIGG@?$AA_?$AAs?$AAt?$AAr?$AAu?$AAp?$AAr?$AA?$AA@ 10129e74     LIBCMTD:strupr.obj
 0003:0002ae88       ??_C@_1GA@KLELBLFL@?$AAf?$AA?3?$AA?2?$AAd?$AAd?$AA?2?$AAv?$AAc?$AAt?$AAo?$AAo?$AAl?$AAs?$AA?2?$AAc?$AAr?$AAt?$AA_?$AAb?$AAl?$AAd?$AA?2?$AAs?$AAe?$AAl?$AAf?$AA_?$AAx?$AA8?$AA6?$AA?2?$AAc@ 10129e88     LIBCMTD:strupr.obj
 0003:0002aefc       ??_C@_1BO@JIBAMMGI@?$AAs?$AAt?$AAr?$AAi?$AAn?$AAg?$AA?5?$AA?$CB?$AA?$DN?$AA?5?$AAN?$AAU?$AAL?$AAL?$AA?$AA@ 10129efc     LIBCMTD:strupr.obj
 0003:0002af20       ??_C@_1CC@NFHGNMIC@?$AA_?$AAs?$AAt?$AAr?$AAu?$AAp?$AAr?$AA_?$AAs?$AA_?$AAl?$AA_?$AAs?$AAt?$AAa?$AAt?$AA?$AA@ 10129f20     LIBCMTD:strupr.obj
 0003:0002af48       ??_C@_1BA@EGFMICNO@?$AA_?$AAs?$AAt?$AAr?$AAl?$AAw?$AAr?$AA?$AA@ 10129f48     LIBCMTD:strlwr.obj
 0003:0002af60       ??_C@_1GA@NICGNHEP@?$AAf?$AA?3?$AA?2?$AAd?$AAd?$AA?2?$AAv?$AAc?$AAt?$AAo?$AAo?$AAl?$AAs?$AA?2?$AAc?$AAr?$AAt?$AA_?$AAb?$AAl?$AAd?$AA?2?$AAs?$AAe?$AAl?$AAf?$AA_?$AAx?$AA8?$AA6?$AA?2?$AAc@ 10129f60     LIBCMTD:strlwr.obj
 0003:0002afd4       ??_C@_1CC@PMAIDLKG@?$AA_?$AAs?$AAt?$AAr?$AAl?$AAw?$AAr?$AA_?$AAs?$AA_?$AAl?$AA_?$AAs?$AAt?$AAa?$AAt?$AA?$AA@ 10129fd4     LIBCMTD:strlwr.obj
 0003:0002b7b8       ??_R4CShaderDLLVerification@@6B@ 1012a7b8     shader_dll_verify.obj
 0003:0002b7d0       ??_R3CShaderDLLVerification@@8 1012a7d0     shader_dll_verify.obj
 0003:0002b7e4       ??_R2CShaderDLLVerification@@8 1012a7e4     shader_dll_verify.obj
 0003:0002b7f0       ??_R1A@?0A@EA@CShaderDLLVerification@@8 1012a7f0     shader_dll_verify.obj
 0003:0002b814       ??_R1A@?0A@EA@IShaderDLLVerification@@8 1012a814     shader_dll_verify.obj
 0003:0002b838       ??_R3IShaderDLLVerification@@8 1012a838     shader_dll_verify.obj
 0003:0002b84c       ??_R2IShaderDLLVerification@@8 1012a84c     shader_dll_verify.obj
 0003:0002b854       ??_R4IShaderDLLVerification@@6B@ 1012a854     shader_dll_verify.obj
 0003:0002b86c       ??_R4CShader@PBR@@6B@      1012a86c     pbr_dx9.obj
 0003:0002b884       ??_R3CShader@PBR@@8        1012a884     pbr_dx9.obj
 0003:0002b898       ??_R2CShader@PBR@@8        1012a898     pbr_dx9.obj
 0003:0002b8ac       ??_R1A@?0A@EA@CShader@PBR@@8 1012a8ac     pbr_dx9.obj
 0003:0002b8d0       ??_R1A@?0A@EA@CBaseVSShader@@8 1012a8d0     pbr_dx9.obj
 0003:0002b8f4       ??_R3CBaseVSShader@@8      1012a8f4     pbr_dx9.obj
 0003:0002b908       ??_R2CBaseVSShader@@8      1012a908     pbr_dx9.obj
 0003:0002b918       ??_R1A@?0A@EA@CBaseShader@@8 1012a918     pbr_dx9.obj
 0003:0002b93c       ??_R3CBaseShader@@8        1012a93c     pbr_dx9.obj
 0003:0002b950       ??_R2CBaseShader@@8        1012a950     pbr_dx9.obj
 0003:0002b95c       ??_R1A@?0A@EA@IShader@@8   1012a95c     pbr_dx9.obj
 0003:0002b980       ??_R3IShader@@8            1012a980     pbr_dx9.obj
 0003:0002b994       ??_R2IShader@@8            1012a994     pbr_dx9.obj
 0003:0002b99c       ??_R4CBaseVSShader@@6B@    1012a99c     pbr_dx9.obj
 0003:0002b9b4       ??_R4CBaseShader@@6B@      1012a9b4     shaderlib:BaseShader.obj
 0003:0002b9cc       ??_R4IShader@@6B@          1012a9cc     shaderlib:BaseShader.obj
 0003:0002b9e4       ??_R4CPerInstanceContextData@@6B@ 1012a9e4     shaderlib:BaseShader.obj
 0003:0002b9fc       ??_R3CPerInstanceContextData@@8 1012a9fc     shaderlib:BaseShader.obj
 0003:0002ba10       ??_R2CPerInstanceContextData@@8 1012aa10     shaderlib:BaseShader.obj
 0003:0002ba1c       ??_R1A@?0A@EA@CPerInstanceContextData@@8 1012aa1c     shaderlib:BaseShader.obj
 0003:0002ba40       ??_R1A@?0A@EA@CBasePerInstanceContextData@@8 1012aa40     shaderlib:BaseShader.obj
 0003:0002ba64       ??_R3CBasePerInstanceContextData@@8 1012aa64     shaderlib:BaseShader.obj
 0003:0002ba78       ??_R2CBasePerInstanceContextData@@8 1012aa78     shaderlib:BaseShader.obj
 0003:0002ba80       ??_R4CBasePerInstanceContextData@@6B@ 1012aa80     shaderlib:BaseShader.obj
 0003:0002ba98       ??_R4CShaderDLL@@6BIShaderDLLInternal@@@ 1012aa98     shaderlib:ShaderDLL.obj
 0003:0002bab0       ??_R3CShaderDLL@@8         1012aab0     shaderlib:ShaderDLL.obj
 0003:0002bac4       ??_R2CShaderDLL@@8         1012aac4     shaderlib:ShaderDLL.obj
 0003:0002bad4       ??_R1A@?0A@EA@CShaderDLL@@8 1012aad4     shaderlib:ShaderDLL.obj
 0003:0002baf8       ??_R1A@?0A@EA@IShaderDLLInternal@@8 1012aaf8     shaderlib:ShaderDLL.obj
 0003:0002bb1c       ??_R3IShaderDLLInternal@@8 1012ab1c     shaderlib:ShaderDLL.obj
 0003:0002bb30       ??_R2IShaderDLLInternal@@8 1012ab30     shaderlib:ShaderDLL.obj
 0003:0002bb38       ??_R13?0A@EA@IShaderDLL@@8 1012ab38     shaderlib:ShaderDLL.obj
 0003:0002bb5c       ??_R3IShaderDLL@@8         1012ab5c     shaderlib:ShaderDLL.obj
 0003:0002bb70       ??_R2IShaderDLL@@8         1012ab70     shaderlib:ShaderDLL.obj
 0003:0002bb78       ??_R1A@?0A@EA@IShaderDLL@@8 1012ab78     shaderlib:ShaderDLL.obj
 0003:0002bb9c       ??_R4CShaderDLL@@6BIShaderDLL@@@ 1012ab9c     shaderlib:ShaderDLL.obj
 0003:0002bbb4       ??_R4IShaderDLLInternal@@6B@ 1012abb4     shaderlib:ShaderDLL.obj
 0003:0002bbcc       ??_R4IShaderDLL@@6B@       1012abcc     shaderlib:ShaderDLL.obj
 0003:0002bbe4       ??_R4CShaderLibConVarAccessor@@6B@ 1012abe4     shaderlib:shaderlib_cvar.obj
 0003:0002bbfc       ??_R3CShaderLibConVarAccessor@@8 1012abfc     shaderlib:shaderlib_cvar.obj
 0003:0002bc10       ??_R2CShaderLibConVarAccessor@@8 1012ac10     shaderlib:shaderlib_cvar.obj
 0003:0002bc1c       ??_R1A@?0A@EA@CShaderLibConVarAccessor@@8 1012ac1c     shaderlib:shaderlib_cvar.obj
 0003:0002bc40       ??_R1A@?0A@EA@IConCommandBaseAccessor@@8 1012ac40     shaderlib:shaderlib_cvar.obj
 0003:0002bc64       ??_R3IConCommandBaseAccessor@@8 1012ac64     shaderlib:shaderlib_cvar.obj
 0003:0002bc78       ??_R2IConCommandBaseAccessor@@8 1012ac78     shaderlib:shaderlib_cvar.obj
 0003:0002bc80       ??_R4IConCommandBaseAccessor@@6B@ 1012ac80     shaderlib:shaderlib_cvar.obj
 0003:0002bc98       ??_R4ConCommandBase@@6B@   1012ac98     tier1:convar.obj
 0003:0002bcb0       ??_R3ConCommandBase@@8     1012acb0     tier1:convar.obj
 0003:0002bcc4       ??_R2ConCommandBase@@8     1012acc4     tier1:convar.obj
 0003:0002bccc       ??_R1A@?0A@EA@ConCommandBase@@8 1012accc     tier1:convar.obj
 0003:0002bcf0       ??_R4ConCommand@@6B@       1012acf0     tier1:convar.obj
 0003:0002bd08       ??_R3ConCommand@@8         1012ad08     tier1:convar.obj
 0003:0002bd1c       ??_R2ConCommand@@8         1012ad1c     tier1:convar.obj
 0003:0002bd28       ??_R1A@?0A@EA@ConCommand@@8 1012ad28     tier1:convar.obj
 0003:0002bd4c       ??_R4IConVar@@6B@          1012ad4c     tier1:convar.obj
 0003:0002bd64       ??_R3IConVar@@8            1012ad64     tier1:convar.obj
 0003:0002bd78       ??_R2IConVar@@8            1012ad78     tier1:convar.obj
 0003:0002bd80       ??_R1A@?0A@EA@IConVar@@8   1012ad80     tier1:convar.obj
 0003:0002bda4       ??_R4CDefaultAccessor@@6B@ 1012ada4     tier1:convar.obj
 0003:0002bdbc       ??_R3CDefaultAccessor@@8   1012adbc     tier1:convar.obj
 0003:0002bdd0       ??_R2CDefaultAccessor@@8   1012add0     tier1:convar.obj
 0003:0002bddc       ??_R1A@?0A@EA@CDefaultAccessor@@8 1012addc     tier1:convar.obj
 0003:0002be00       ??_R4ConVar@@6BConCommandBase@@@ 1012ae00     tier1:convar.obj
 0003:0002be18       ??_R3ConVar@@8             1012ae18     tier1:convar.obj
 0003:0002be2c       ??_R2ConVar@@8             1012ae2c     tier1:convar.obj
 0003:0002be3c       ??_R1A@?0A@EA@ConVar@@8    1012ae3c     tier1:convar.obj
 0003:0002be60       ??_R1BI@?0A@EA@IConVar@@8  1012ae60     tier1:convar.obj
 0003:0002be84       ??_R4ConVar@@6BIConVar@@@  1012ae84     tier1:convar.obj
 0003:0002be9c       ??_R4CEmptyConVar@@6BConCommandBase@@@ 1012ae9c     tier1:convar.obj
 0003:0002beb4       ??_R3CEmptyConVar@@8       1012aeb4     tier1:convar.obj
 0003:0002bec8       ??_R2CEmptyConVar@@8       1012aec8     tier1:convar.obj
 0003:0002bedc       ??_R1A@?0A@EA@CEmptyConVar@@8 1012aedc     tier1:convar.obj
 0003:0002bf00       ??_R4CEmptyConVar@@6BIConVar@@@ 1012af00     tier1:convar.obj
 0003:0002bf18       ??_R4CDllDemandLoader@@6B@ 1012af18     tier1:interface.obj
 0003:0002bf30       ??_R3CDllDemandLoader@@8   1012af30     tier1:interface.obj
 0003:0002bf44       ??_R2CDllDemandLoader@@8   1012af44     tier1:interface.obj
 0003:0002bf4c       ??_R1A@?0A@EA@CDllDemandLoader@@8 1012af4c     tier1:interface.obj
 0003:0002bf70       ??_R4CUtlCharConversion@@6B@ 1012af70     tier1:utlbuffer.obj
 0003:0002bf88       ??_R3CUtlCharConversion@@8 1012af88     tier1:utlbuffer.obj
 0003:0002bf9c       ??_R2CUtlCharConversion@@8 1012af9c     tier1:utlbuffer.obj
 0003:0002bfa4       ??_R1A@?0A@EA@CUtlCharConversion@@8 1012afa4     tier1:utlbuffer.obj
 0003:0002bfc8       ??_R4CUtlNoEscConversion@@6B@ 1012afc8     tier1:utlbuffer.obj
 0003:0002bfe0       ??_R3CUtlNoEscConversion@@8 1012afe0     tier1:utlbuffer.obj
 0003:0002bff4       ??_R2CUtlNoEscConversion@@8 1012aff4     tier1:utlbuffer.obj
 0003:0002c000       ??_R1A@?0A@EA@CUtlNoEscConversion@@8 1012b000     tier1:utlbuffer.obj
 0003:0002c024       ??_R4CUtlCStringConversion@@6B@ 1012b024     tier1:utlbuffer.obj
 0003:0002c03c       ??_R3CUtlCStringConversion@@8 1012b03c     tier1:utlbuffer.obj
 0003:0002c050       ??_R2CUtlCStringConversion@@8 1012b050     tier1:utlbuffer.obj
 0003:0002c05c       ??_R1A@?0A@EA@CUtlCStringConversion@@8 1012b05c     tier1:utlbuffer.obj
 0003:0002c080       ??_R4type_info@@6B@        1012b080     LIBCMTD:typinfo.obj
 0003:0002c098       ??_R3type_info@@8          1012b098     LIBCMTD:typinfo.obj
 0003:0002c0ac       ??_R2type_info@@8          1012b0ac     LIBCMTD:typinfo.obj
 0003:0002c0b4       ??_R1A@?0A@EA@type_info@@8 1012b0b4     LIBCMTD:typinfo.obj
 0003:0002c0d8       ??_R4bad_alloc@std@@6B@    1012b0d8     LIBCMTD:dbgnew.obj
 0003:0002c0f0       ??_R3bad_alloc@std@@8      1012b0f0     LIBCMTD:dbgnew.obj
 0003:0002c104       ??_R2bad_alloc@std@@8      1012b104     LIBCMTD:dbgnew.obj
 0003:0002c110       ??_R1A@?0A@EA@bad_alloc@std@@8 1012b110     LIBCMTD:dbgnew.obj
 0003:0002c134       ??_R1A@?0A@EA@exception@std@@8 1012b134     LIBCMTD:dbgnew.obj
 0003:0002c158       ??_R3exception@std@@8      1012b158     LIBCMTD:dbgnew.obj
 0003:0002c16c       ??_R2exception@std@@8      1012b16c     LIBCMTD:dbgnew.obj
 0003:0002c174       ??_R4exception@std@@6B@    1012b174     LIBCMTD:stdexcpt.obj
 0003:0002c18c       ??_R4bad_cast@std@@6B@     1012b18c     LIBCMTD:stdexcpt.obj
 0003:0002c1a4       ??_R3bad_cast@std@@8       1012b1a4     LIBCMTD:stdexcpt.obj
 0003:0002c1b8       ??_R2bad_cast@std@@8       1012b1b8     LIBCMTD:stdexcpt.obj
 0003:0002c1c4       ??_R1A@?0A@EA@bad_cast@std@@8 1012b1c4     LIBCMTD:stdexcpt.obj
 0003:0002c1e8       ??_R4bad_typeid@std@@6B@   1012b1e8     LIBCMTD:stdexcpt.obj
 0003:0002c200       ??_R3bad_typeid@std@@8     1012b200     LIBCMTD:stdexcpt.obj
 0003:0002c214       ??_R2bad_typeid@std@@8     1012b214     LIBCMTD:stdexcpt.obj
 0003:0002c220       ??_R1A@?0A@EA@bad_typeid@std@@8 1012b220     LIBCMTD:stdexcpt.obj
 0003:0002c244       ??_R4__non_rtti_object@std@@6B@ 1012b244     LIBCMTD:stdexcpt.obj
 0003:0002c25c       ??_R3__non_rtti_object@std@@8 1012b25c     LIBCMTD:stdexcpt.obj
 0003:0002c270       ??_R2__non_rtti_object@std@@8 1012b270     LIBCMTD:stdexcpt.obj
 0003:0002c280       ??_R1A@?0A@EA@__non_rtti_object@std@@8 1012b280     LIBCMTD:stdexcpt.obj
 0003:0002c2a4       ??_R4bad_exception@std@@6B@ 1012b2a4     LIBCMTD:frame.obj
 0003:0002c2bc       ??_R3bad_exception@std@@8  1012b2bc     LIBCMTD:frame.obj
 0003:0002c2d0       ??_R2bad_exception@std@@8  1012b2d0     LIBCMTD:frame.obj
 0003:0002c2dc       ??_R1A@?0A@EA@bad_exception@std@@8 1012b2dc     LIBCMTD:frame.obj
 0003:0002c448       ___rtc_iaa                 1012b448     LIBCMTD:_initsect_.obj
 0003:0002c65c       ___rtc_izz                 1012b65c     LIBCMTD:_initsect_.obj
 0003:0002c760       ___rtc_taa                 1012b760     LIBCMTD:_initsect_.obj
 0003:0002c974       ___rtc_tzz                 1012b974     LIBCMTD:_initsect_.obj
 0003:0002caf8       __TI2?AVbad_alloc@std@@    1012baf8     LIBCMTD:dbgnew.obj
 0003:0002cb0c       __CTA2?AVbad_alloc@std@@   1012bb0c     LIBCMTD:dbgnew.obj
 0003:0002cb1c       __CT??_R0?AVbad_alloc@std@@@8??0bad_alloc@std@@QAE@ABV01@@Z12 1012bb1c     LIBCMTD:dbgnew.obj
 0003:0002cb3c       __CT??_R0?AVexception@std@@@8??0exception@std@@QAE@ABV01@@Z12 1012bb3c     LIBCMTD:dbgnew.obj
 0003:0002cb80       __TI3?AV__non_rtti_object@std@@ 1012bb80     LIBCMTD:rtti.obj
 0003:0002cbb8       __CTA3?AV__non_rtti_object@std@@ 1012bbb8     LIBCMTD:rtti.obj
 0003:0002cbcc       __CT??_R0?AV__non_rtti_object@std@@@8??0__non_rtti_object@std@@QAE@ABV01@@Z12 1012bbcc     LIBCMTD:rtti.obj
 0003:0002cbec       __CT??_R0?AVbad_typeid@std@@@8??0bad_typeid@std@@QAE@ABV01@@Z12 1012bbec     LIBCMTD:rtti.obj
 0003:0002cc0c       __TI2?AVbad_typeid@std@@   1012bc0c     LIBCMTD:rtti.obj
 0003:0002cc40       __CTA2?AVbad_typeid@std@@  1012bc40     LIBCMTD:rtti.obj
 0003:0002cc50       __TI2?AVbad_cast@std@@     1012bc50     LIBCMTD:rtti.obj
 0003:0002cc88       __CTA2?AVbad_cast@std@@    1012bc88     LIBCMTD:rtti.obj
 0003:0002cc98       __CT??_R0?AVbad_cast@std@@@8??0bad_cast@std@@QAE@ABV01@@Z12 1012bc98     LIBCMTD:rtti.obj
 0003:0002d538       __TI2?AVbad_exception@std@@ 1012c538     LIBCMTD:frame.obj
 0003:0002d54c       __CTA2?AVbad_exception@std@@ 1012c54c     LIBCMTD:frame.obj
 0003:0002d55c       __CT??_R0?AVbad_exception@std@@@8??0bad_exception@std@@QAE@ABV01@@Z12 1012c55c     LIBCMTD:frame.obj
 0004:00000000       ??_R0?AVCShaderDLLVerification@@@8 1012d000     shader_dll_verify.obj
 0004:0000002c       ??_R0?AVIShaderDLLVerification@@@8 1012d02c     shader_dll_verify.obj
 0004:0000005c       ?__LINE__Var@?1??SetPixelShaderConstant@CBaseVSShader@@QAEXHHH@Z@4JA 1012d05c     BaseVSShader.obj
 0004:00000060       ?__LINE__Var@?1???AVector4D@@QBEMH@Z@4JA 1012d060     BaseVSShader.obj
 0004:00000064       ?__LINE__Var@?1??SetPixelShaderConstantGammaToLinear@CBaseVSShader@@QAEXHHH@Z@4JA 1012d064     BaseVSShader.obj
 0004:00000068       ?__LINE__Var@?1??SetPixelShaderConstant_W@CBaseVSShader@@QAEXHHM@Z@4JA 1012d068     BaseVSShader.obj
 0004:0000006c       ?__LINE__Var@?1??SetPixelShaderConstant@CBaseVSShader@@QAEXHH@Z@4JA 1012d06c     BaseVSShader.obj
 0004:00000070       ?__LINE__Var@?1??SetPixelShaderConstantGammaToLinear@CBaseVSShader@@QAEXHH@Z@4JA 1012d070     BaseVSShader.obj
 0004:00000074       ?__LINE__Var@?1??SetPixelShaderConstantFudge@CBaseVSShader@@QAEXHH@Z@4JA 1012d074     BaseVSShader.obj
 0004:00000078       ?__LINE__Var@?1??SetVertexShaderConstant@CBaseVSShader@@QAEXHH@Z@4JA 1012d078     BaseVSShader.obj
 0004:0000007c       ?__LINE__Var@?1??Init@Vector4D@@QAEXMMMM@Z@4JA 1012d07c     BaseVSShader.obj
 0004:00000080       ?__LINE__Var@?1???0Vector2D@@QAE@MM@Z@4JA 1012d080     BaseVSShader.obj
 0004:00000084       ?__LINE__Var@?1???AVector2D@@QAEAAMH@Z@4JA 1012d084     BaseVSShader.obj
 0004:00000088       ?__LINE__Var@?1???AVector4D@@QAEAAMH@Z@4JA 1012d088     BaseVSShader.obj
 0004:0000008c       ?__LINE__Var@?1??SetFlashlightVertexShaderConstants@CBaseVSShader@@QAEX_NH0H0@Z@4JA 1012d08c     BaseVSShader.obj
 0004:00000090       ?__LINE__Var@?1???AVector@@QBEMH@Z@4JA 1012d090     BaseVSShader.obj
 0004:00000094       ?__LINE__Var@?1???0Vector4D@@QAE@MMMM@Z@4JA 1012d094     BaseVSShader.obj
 0004:000000a8       ??_R0?AV?$CUtlMemory@PAVCShaderParam@PBR@@H@@@8 1012d0a8     pbr_dx9.obj
 0004:000000e8       ??_R0?AV?$CUtlVector@PAVCShaderParam@PBR@@V?$CUtlMemory@PAVCShaderParam@PBR@@H@@@@@8 1012d0e8     pbr_dx9.obj
 0004:00000150       ??_R0?AVCShader@PBR@@@8    1012d150     pbr_dx9.obj
 0004:00000170       ??_R0?AVCBaseVSShader@@@8  1012d170     pbr_dx9.obj
 0004:00000194       ??_R0?AVCBaseShader@@@8    1012d194     pbr_dx9.obj
 0004:000001b4       ??_R0?AVIShader@@@8        1012d1b4     pbr_dx9.obj
 0004:00000280       ?power2_n@@3PAMA           1012d280     mathlib:color_conversion.obj
 0004:00000798       ?pfVectorNormalizeFast@@3P6IXAAVVector@@@ZA 1012d798     mathlib:mathlib_base.obj
 0004:000007a4       ?quat_identity@@3VQuaternion@@B 1012d7a4     mathlib:mathlib_base.obj
 0004:000007b4       ?vec3_invalid@@3VVector@@B 1012d7b4     mathlib:mathlib_base.obj
 0004:00000934       ?__LINE__Var@?1??PI_EndCommandBuffer@CBaseShader@@QAEXXZ@4JA 1012d934     shaderlib:BaseShader.obj
 0004:00000938       ??_R0?AVCPerInstanceContextData@@@8 1012d938     shaderlib:BaseShader.obj
 0004:00000968       ??_R0?AVCBasePerInstanceContextData@@@8 1012d968     shaderlib:BaseShader.obj
 0004:000009a0       ?__LINE__Var@?1??GetShaderDLL@@YAPAVIShaderDLL@@XZ@4JA 1012d9a0     shaderlib:ShaderDLL.obj
 0004:000009a4       ?__LINE__Var@?1??GetShaderDLLInternal@@YAPAVIShaderDLLInternal@@XZ@4JA 1012d9a4     shaderlib:ShaderDLL.obj
 0004:000009a8       ??_R0?AVCShaderDLL@@@8     1012d9a8     shaderlib:ShaderDLL.obj
 0004:000009c8       ??_R0?AVIShaderDLLInternal@@@8 1012d9c8     shaderlib:ShaderDLL.obj
 0004:000009f0       ??_R0?AVIShaderDLL@@@8     1012d9f0     shaderlib:ShaderDLL.obj
 0004:00000a10       ??_R0?AV?$CUtlMemory@PAVIShader@@H@@@8 1012da10     shaderlib:ShaderDLL.obj
 0004:00000a44       ??_R0?AV?$CUtlMemory@PBUShaderComboSemantics_t@@H@@@8 1012da44     shaderlib:ShaderDLL.obj
 0004:00000a88       ??_R0?AV?$CUtlVector@PBUShaderComboSemantics_t@@V?$CUtlMemory@PBUShaderComboSemantics_t@@H@@@@@8 1012da88     shaderlib:ShaderDLL.obj
 0004:00000b00       ??_R0?AV?$CUtlVector@PAVIShader@@V?$CUtlMemory@PAVIShader@@H@@@@@8 1012db00     shaderlib:ShaderDLL.obj
 0004:00000b58       ??_R0?AVCShaderLibConVarAccessor@@@8 1012db58     shaderlib:shaderlib_cvar.obj
 0004:00000b88       ??_R0?AVIConCommandBaseAccessor@@@8 1012db88     shaderlib:shaderlib_cvar.obj
 0004:00000cc4       ??_R0?AVConCommandBase@@@8 1012dcc4     tier1:convar.obj
 0004:00000cec       ??_R0?AVConCommand@@@8     1012dcec     tier1:convar.obj
 0004:00000d0c       ??_R0?AVIConVar@@@8        1012dd0c     tier1:convar.obj
 0004:00000d28       ??_R0?AVConVar@@@8         1012dd28     tier1:convar.obj
 0004:00000d44       ??_R0?AVConVar_ServerBounded@@@8 1012dd44     tier1:convar.obj
 0004:00000d70       ??_R0?AVCDefaultAccessor@@@8 1012dd70     tier1:convar.obj
 0004:00000d9c       ??_R0?AVCEmptyConVar@@@8   1012dd9c     tier1:convar.obj
 0004:00000e08       ??_R0?AVCDllDemandLoader@@@8 1012de08     tier1:interface.obj
 0004:00000ec0       ??_R0?AVCUtlCharConversion@@@8 1012dec0     tier1:utlbuffer.obj
 0004:00000ee8       ??_R0?AVCUtlNoEscConversion@@@8 1012dee8     tier1:utlbuffer.obj
 0004:00000f10       ??_R0?AVCUtlCStringConversion@@@8 1012df10     tier1:utlbuffer.obj
 0004:00000f40       ??_R0?AVtype_info@@@8      1012df40     LIBCMTD:typinfo.obj
 0004:00000f5c       __fltused                  1012df5c     LIBCMTD:_fpinit_.obj
 0004:00000f60       __ldused                   1012df60     LIBCMTD:_fpinit_.obj
 0004:00000f70       __half                     1012df70     LIBCMTD:_pow_.obj
 0004:00000fa0       ??_R0?AVbad_alloc@std@@@8  1012dfa0     LIBCMTD:dbgnew.obj
 0004:00000fc4       ??_R0?AVexception@std@@@8  1012dfc4     LIBCMTD:dbgnew.obj
 0004:00000fe8       ??_R0?AV__non_rtti_object@std@@@8 1012dfe8     LIBCMTD:rtti.obj
 0004:00001014       ??_R0?AVbad_typeid@std@@@8 1012e014     LIBCMTD:rtti.obj
 0004:00001038       ??_R0?AVbad_cast@std@@@8   1012e038     LIBCMTD:rtti.obj
 0004:00001060       ?_RTC_ErrorLevels@@3PAHA   1012e060     LIBCMTD:_error_.obj
 0004:00001080       ___abort_behavior          1012e080     LIBCMTD:abort.obj
 0004:00001084       __cfltcvt_tab              1012e084     LIBCMTD:cmiscdat.obj
 0004:000010c0       ___security_cookie         1012e0c0     LIBCMTD:gs_cookie.obj
 0004:000010c4       ___security_cookie_complement 1012e0c4     LIBCMTD:gs_cookie.obj
 0004:000010c8       __crtDbgFlag               1012e0c8     LIBCMTD:dbgheap.obj
 0004:000010cc       ___crtDebugFillThreshold   1012e0cc     LIBCMTD:dbgheap.obj
 0004:000010d4       __crtBreakAlloc            1012e0d4     LIBCMTD:dbgheap.obj
 0004:000010e0       __iob                      1012e0e0     LIBCMTD:_file.obj
 0004:000013e0       ___nullstring              1012e3e0     LIBCMTD:output.obj
 0004:000013e4       ___wnullstring             1012e3e4     LIBCMTD:output.obj
 0004:000015b0       ___flsindex                1012e5b0     LIBCMTD:tidtable.obj
 0004:000015b4       ___getvalueindex           1012e5b4     LIBCMTD:tidtable.obj
 0004:000015c0       ___badioinfo               1012e5c0     LIBCMTD:ioinit.obj
 0004:000017a0       ___initialmbcinfo          1012e7a0     LIBCMTD:mbctype.obj
 0004:000019c0       __mbctype                  1012e9c0     LIBCMTD:mbctype.obj
 0004:00001ac8       __mbcasemap                1012eac8     LIBCMTD:mbctype.obj
 0004:00001bc8       ___ptmbcinfo               1012ebc8     LIBCMTD:mbctype.obj
 0004:00001dc8       ___globallocalestatus      1012edc8     LIBCMTD:glstatus.obj
 0004:00001dcc       ___clocalestr              1012edcc     LIBCMTD:nlsdata2.obj
 0004:00001dd0       ___lc_time_c               1012edd0     LIBCMTD:nlsdata2.obj
 0004:00001f80       ___initiallocinfo          1012ef80     LIBCMTD:nlsdata2.obj
 0004:00002084       ___ptlocinfo               1012f084     LIBCMTD:nlsdata2.obj
 0004:00002088       ___initiallocalestructinfo 1012f088     LIBCMTD:nlsdata2.obj
 0004:000020a0       __HUGE                     1012f0a0     LIBCMTD:_huge_.obj
 0004:000020b0       __pfnAllocHook             1012f0b0     LIBCMTD:dbghook.obj
 0004:000020b4       __crtAssertBusy            1012f0b4     LIBCMTD:dbgrptt.obj
 0004:000020b8       __CrtDbgMode               1012f0b8     LIBCMTD:dbgrptt.obj
 0004:000020c4       __CrtDbgFile               1012f0c4     LIBCMTD:dbgrptt.obj
 0004:000020d8       __matherr_flag             1012f0d8     LIBCMTD:_matherr_.obj
 0004:000021f8       __d_inf                    1012f1f8     LIBCMTD:_util_.obj
 0004:00002200       __d_ind                    1012f200     LIBCMTD:_util_.obj
 0004:00002208       __d_max                    1012f208     LIBCMTD:_util_.obj
 0004:00002210       __d_min                    1012f210     LIBCMTD:_util_.obj
 0004:00002218       __d_mzero                  1012f218     LIBCMTD:_util_.obj
 0004:00002290       ___lconv_static_decimal    1012f290     LIBCMTD:lconv.obj
 0004:00002294       ___lconv_static_W_decimal  1012f294     LIBCMTD:lconv.obj
 0004:00002298       ___lconv_c                 1012f298     LIBCMTD:lconv.obj
 0004:000022e8       ___lconv                   1012f2e8     LIBCMTD:lconv.obj
 0004:00002300       __pctype                   1012f300     LIBCMTD:ctype.obj
 0004:00002304       __pwctype                  1012f304     LIBCMTD:ctype.obj
 0004:00002310       __pow10pos                 1012f310     LIBCMTD:_constpow_.obj
 0004:00002470       __pow10neg                 1012f470     LIBCMTD:_constpow_.obj
 0004:00002658       ___mb_cur_max              1012f658     LIBCMTD:nlsdata1.obj
 0004:0000265c       ___decimal_point           1012f65c     LIBCMTD:nlsdata1.obj
 0004:00002660       ___decimal_point_length    1012f660     LIBCMTD:nlsdata1.obj
 0004:00002670       ??_R0?AVbad_exception@std@@@8 1012f670     LIBCMTD:frame.obj
 0004:000026a0       __NLG_Destination          1012f6a0     LIBCMTD:exsup.obj
 0004:000026b8       __lookuptrailbytes         1012f6b8     LIBCMTD:read.obj
 0004:000027ec       __confh                    1012f7ec     LIBCMTD:initcon.obj
 0004:00002998       ?r_flashlightbrightness@@3VConVar@@A 1012f998     BaseVSShader.obj
 0004:00002a08       ?r_emulategl@@3VConVar@@A  1012fa08     BaseVSShader.obj
 0004:00002a80       ?mat_envmaptintoverride@@3VConVar@@A 1012fa80     BaseVSShader.obj
 0004:00002ad8       ?mat_envmaptintscale@@3VConVar@@A 1012fad8     BaseVSShader.obj
 0004:00002d68       ?mat_allow_parallax_cubemaps@@3VConVar@@A 1012fd68     pbr_dx9.obj
 0004:00003070       ?pszName@?1???$MemAllocClassName@V?$CUtlMemory@PAVCShaderParam@PBR@@H@@@@YAPBDPAV?$CUtlMemory@PAVCShaderParam@PBR@@H@@@Z@4PBDB 10130070     pbr_dx9.obj
 0004:00003074       ??_B?1???$MemAllocClassName@V?$CUtlMemory@PAVCShaderParam@PBR@@H@@@@YAPBDPAV?$CUtlMemory@PAVCShaderParam@PBR@@H@@@Z@51 10130074     pbr_dx9.obj
 0004:00003078       ?pszName@?1???$MemAllocClassName@V?$CUtlVector@PAVCShaderParam@PBR@@V?$CUtlMemory@PAVCShaderParam@PBR@@H@@@@@@YAPBDPAV?$CUtlVector@PAVCShaderParam@PBR@@V?$CUtlMemory@PAVCShaderParam@PBR@@H@@@@@Z@4PBDB 10130078     pbr_dx9.obj
 0004:0000307c       ??_B?1???$MemAllocClassName@V?$CUtlVector@PAVCShaderParam@PBR@@V?$CUtlMemory@PAVCShaderParam@PBR@@H@@@@@@YAPBDPAV?$CUtlVector@PAVCShaderParam@PBR@@V?$CUtlMemory@PAVCShaderParam@PBR@@H@@@@@Z@51 1013007c     pbr_dx9.obj
 0004:00003480       ?lineartolightmap@@3PAEA   10130480     mathlib:color_conversion.obj
 0004:00006c80       ?lineartovertex@@3PAMA     10133c80     mathlib:color_conversion.obj
 0004:0000c6b8       ?SinCosTable@@3PAMA        101396b8     mathlib:mathlib_base.obj
 0004:0000cab8       ?s_bMathlibInitialized@@3_NA 10139ab8     mathlib:mathlib_base.obj
 0004:0000cac4       ?vec3_origin@@3VVector@@B  10139ac4     mathlib:mathlib_base.obj
 0004:0000cad0       ?vec3_angle@@3VQAngle@@B   10139ad0     mathlib:mathlib_base.obj
 0004:000152e0       ?s_pShaderShadow@CBaseShader@@1PAVIShaderShadow@@A 101422e0     shaderlib:BaseShader.obj
 0004:000152e4       ?s_ppParams@CBaseShader@@1PAPAVIMaterialVar@@A 101422e4     shaderlib:BaseShader.obj
 0004:000152e8       ?s_pShaderAPI@CBaseShader@@1PAVIShaderDynamicAPI@@A 101422e8     shaderlib:BaseShader.obj
 0004:000152ec       ?s_nModulationFlags@CBaseShader@@0HA 101422ec     shaderlib:BaseShader.obj
 0004:000152f0       ?s_pShaderInit@CBaseShader@@1PAVIShaderInit@@A 101422f0     shaderlib:BaseShader.obj
 0004:000152f4       ?s_pTextureGroupName@CBaseShader@@1PBDB 101422f4     shaderlib:BaseShader.obj
 0004:000152f8       ?s_nPassCount@CBaseShader@@0HA 101422f8     shaderlib:BaseShader.obj
 0004:000152fc       ?s_pInstanceDataPtr@CBaseShader@@0PAPAVCPerInstanceContextData@@A 101422fc     shaderlib:BaseShader.obj
 0004:00015301       ?g_shaderConfigDumpEnable@@3_NA 10142301     shaderlib:BaseShader.obj
 0004:00015624       ?g_pHardwareConfig@@3PAVIMaterialSystemHardwareConfig@@A 10142624     shaderlib:ShaderDLL.obj
 0004:00015628       ?g_pConfig@@3PBUMaterialSystem_Config_t@@B 10142628     shaderlib:ShaderDLL.obj
 0004:0001562c       ?g_pSLShaderSystem@@3PAVIShaderSystem@@A 1014262c     shaderlib:ShaderDLL.obj
 0004:0001569c       ?pszName@?1???$MemAllocClassName@V?$CUtlMemory@PAVIShader@@H@@@@YAPBDPAV?$CUtlMemory@PAVIShader@@H@@@Z@4PBDB 1014269c     shaderlib:ShaderDLL.obj
 0004:000156a0       ??_B?1???$MemAllocClassName@V?$CUtlMemory@PAVIShader@@H@@@@YAPBDPAV?$CUtlMemory@PAVIShader@@H@@@Z@51 101426a0     shaderlib:ShaderDLL.obj
 0004:000156a4       ?pszName@?1???$MemAllocClassName@V?$CUtlMemory@PBUShaderComboSemantics_t@@H@@@@YAPBDPAV?$CUtlMemory@PBUShaderComboSemantics_t@@H@@@Z@4PBDB 101426a4     shaderlib:ShaderDLL.obj
 0004:000156a8       ??_B?1???$MemAllocClassName@V?$CUtlMemory@PBUShaderComboSemantics_t@@H@@@@YAPBDPAV?$CUtlMemory@PBUShaderComboSemantics_t@@H@@@Z@51 101426a8     shaderlib:ShaderDLL.obj
 0004:000156ac       ?pszName@?1???$MemAllocClassName@V?$CUtlVector@PBUShaderComboSemantics_t@@V?$CUtlMemory@PBUShaderComboSemantics_t@@H@@@@@@YAPBDPAV?$CUtlVector@PBUShaderComboSemantics_t@@V?$CUtlMemory@PBUShaderComboSemantics_t@@H@@@@@Z@4PBDB 101426ac     shaderlib:ShaderDLL.obj
 0004:000156b0       ??_B?1???$MemAllocClassName@V?$CUtlVector@PBUShaderComboSemantics_t@@V?$CUtlMemory@PBUShaderComboSemantics_t@@H@@@@@@YAPBDPAV?$CUtlVector@PBUShaderComboSemantics_t@@V?$CUtlMemory@PBUShaderComboSemantics_t@@H@@@@@Z@51 101426b0     shaderlib:ShaderDLL.obj
 0004:000156b4       ?pszName@?1???$MemAllocClassName@V?$CUtlVector@PAVIShader@@V?$CUtlMemory@PAVIShader@@H@@@@@@YAPBDPAV?$CUtlVector@PAVIShader@@V?$CUtlMemory@PAVIShader@@H@@@@@Z@4PBDB 101426b4     shaderlib:ShaderDLL.obj
 0004:000156b8       ??_B?1???$MemAllocClassName@V?$CUtlVector@PAVIShader@@V?$CUtlMemory@PAVIShader@@H@@@@@@YAPBDPAV?$CUtlVector@PAVIShader@@V?$CUtlMemory@PAVIShader@@H@@@@@Z@51 101426b8     shaderlib:ShaderDLL.obj
 0004:000156d0       ?g_ConVarAccessor@@3VCShaderLibConVarAccessor@@A 101426d0     shaderlib:shaderlib_cvar.obj
 0004:00015828       ?s_pConCommandBases@ConCommandBase@@1PAV1@A 10142828     tier1:convar.obj
 0004:0001582c       ?s_pAccessor@ConCommandBase@@1PAVIConCommandBaseAccessor@@A 1014282c     tier1:convar.obj
 0004:00015b10       ?s_pInterfaceRegs@@3PAVInterfaceReg@@A 10142b10     tier1:interface.obj
 0004:00015b30       ?s_StringCharConversion@@3VCUtlCStringConversion@@A 10142b30     tier1:utlbuffer.obj
 0004:00016548       ?s_NoEscConversion@@3VCUtlNoEscConversion@@A 10143548     tier1:utlbuffer.obj
 0004:00017230       ___fastflag                10144230     LIBCMTD:_fpinit_.obj
 0004:00017234       ?__type_info_root_node@@3U__type_info_node@@A 10144234     LIBCMTD:tncleanup.obj
 0004:00017248       __aenvptr                  10144248     LIBCMTD:dllcrt0.obj
 0004:0001724c       __wenvptr                  1014424c     LIBCMTD:dllcrt0.obj
 0004:00017250       ___error_mode              10144250     LIBCMTD:dllcrt0.obj
 0004:00017254       ___app_type                10144254     LIBCMTD:dllcrt0.obj
 0004:00017290       ?wsprintffp@@3P6AHPADPBDZZA 10144290     LIBCMTD:_error_.obj
 0004:00017a04       ___pPurecall               10144a04     LIBCMTD:inithelp.obj
 0004:00017a08       __umaskval                 10144a08     LIBCMTD:crt0dat.obj
 0004:00017a0c       ___argc                    10144a0c     LIBCMTD:crt0dat.obj
 0004:00017a10       ___argv                    10144a10     LIBCMTD:crt0dat.obj
 0004:00017a14       ___wargv                   10144a14     LIBCMTD:crt0dat.obj
 0004:00017a18       __environ                  10144a18     LIBCMTD:crt0dat.obj
 0004:00017a1c       ___initenv                 10144a1c     LIBCMTD:crt0dat.obj
 0004:00017a20       __wenviron                 10144a20     LIBCMTD:crt0dat.obj
 0004:00017a24       ___winitenv                10144a24     LIBCMTD:crt0dat.obj
 0004:00017a28       __pgmptr                   10144a28     LIBCMTD:crt0dat.obj
 0004:00017a2c       __wpgmptr                  10144a2c     LIBCMTD:crt0dat.obj
 0004:00017a30       __exitflag                 10144a30     LIBCMTD:crt0dat.obj
 0004:00017a34       __C_Termination_Done       10144a34     LIBCMTD:crt0dat.obj
 0004:00017a38       __C_Exit_Done              10144a38     LIBCMTD:crt0dat.obj
 0004:00017a60       ?_pfnDumpClient@@3P6AXPAXI@ZA 10144a60     LIBCMTD:dbgheap.obj
 0004:00017a68       ___crtDebugCheckCount      10144a68     LIBCMTD:dbgheap.obj
 0004:00017a78       __cflush                   10144a78     LIBCMTD:_file.obj
 0004:00017a7c       __stdbuf                   10144a7c     LIBCMTD:_sftbuf.obj
 0004:00017a88       ___pInvalidArgHandler      10144a88     LIBCMTD:invarg.obj
 0004:00017a8c       _gpFlsAlloc                10144a8c     LIBCMTD:tidtable.obj
 0004:00017a90       _gpFlsGetValue             10144a90     LIBCMTD:tidtable.obj
 0004:00017a94       _gpFlsSetValue             10144a94     LIBCMTD:tidtable.obj
 0004:00017a98       _gpFlsFree                 10144a98     LIBCMTD:tidtable.obj
 0004:00017bdc       __crtheap                  10144bdc     LIBCMTD:heapinit.obj
 0004:00017d98       ?_pnhHeap@@3P6AHI@ZA       10144d98     LIBCMTD:handler.obj
 0004:00017da0       ___mbulinfo                10144da0     LIBCMTD:mbctype.obj
 0004:00017dac       ___mbcodepage              10144dac     LIBCMTD:mbctype.obj
 0004:00017db0       ___ismbcodepage            10144db0     LIBCMTD:mbctype.obj
 0004:00017db4       ___mblcid                  10144db4     LIBCMTD:mbctype.obj
 0004:00017dc0       ___locale_changed          10144dc0     LIBCMTD:setlocal.obj
 0004:00017de0       ?pArgList@UnDecorator@@0PAVReplicator@@A 10144de0     LIBCMTD:undname.obj
 0004:00017de4       ?pZNameList@UnDecorator@@0PAVReplicator@@A 10144de4     LIBCMTD:undname.obj
 0004:00017de8       ?pTemplateArgList@UnDecorator@@0PAVReplicator@@A 10144de8     LIBCMTD:undname.obj
 0004:00017dec       ?gName@UnDecorator@@0PBDB  10144dec     LIBCMTD:undname.obj
 0004:00017df0       ?name@UnDecorator@@0PBDB   10144df0     LIBCMTD:undname.obj
 0004:00017df4       ?outputString@UnDecorator@@0PADA 10144df4     LIBCMTD:undname.obj
 0004:00017df8       ?maxStringLength@UnDecorator@@0HA 10144df8     LIBCMTD:undname.obj
 0004:00017dfc       ?disableFlags@UnDecorator@@0KA 10144dfc     LIBCMTD:undname.obj
 0004:00017e00       ?m_pGetParameter@UnDecorator@@0P6APADJ@ZA 10144e00     LIBCMTD:undname.obj
 0004:00017e04       ?fExplicitTemplateParams@UnDecorator@@0_NA 10144e04     LIBCMTD:undname.obj
 0004:00017e05       ?fGetTemplateArgumentList@UnDecorator@@0_NA 10144e05     LIBCMTD:undname.obj
 0004:00017e78       ?nodes@?1??make@DNameStatusNode@@SAPAV2@W4DNameStatus@@@Z@4PAV2@A 10144e78     LIBCMTD:undname.obj
 0004:00017eb4       ??_B?1??make@DNameStatusNode@@SAPAV1@W4DNameStatus@@@Z@51 10144eb4     LIBCMTD:undname.obj
 0004:00017ee8       __outputformat             10144ee8     LIBCMTD:outputformat.obj
 0004:00017eec       ?__pInconsistency@@3P6AXXZA 10144eec     LIBCMTD:hooks.obj
 0004:00017ef4       __newmode                  10144ef4     LIBCMTD:_newmode.obj
 0004:000182bc       ___lconv_static_null       101452bc     LIBCMTD:lconv.obj
 0004:000182c0       ___lconv_static_W_null     101452c0     LIBCMTD:lconv.obj
 0004:000182e0       ?g_pVGuiLocalize@@3PAVILocalize@vgui@@A 101452e0     interfaces:interfaces.obj
 0004:000182e4       ?g_pSceneSystem@@3PAVISceneSystem@@A 101452e4     interfaces:interfaces.obj
 0004:000182e8       ?g_pAsyncFileSystem@@3PAVIAsyncFileSystem@@A 101452e8     interfaces:interfaces.obj
 0004:000182ec       ?g_pStudioRender@@3PAVIStudioRender@@A 101452ec     interfaces:interfaces.obj
 0004:000182f0       ?g_pMatSystemSurface@@3PAVIMatSystemSurface@@A 101452f0     interfaces:interfaces.obj
 0004:000182f4       ?g_pQueuedLoader@@3PAVIQueuedLoader@@A 101452f4     interfaces:interfaces.obj
 0004:000182f8       ?g_pDataCache@@3PAVIDataCache@@A 101452f8     interfaces:interfaces.obj
 0004:000182fc       ?g_pBIK@@3PAVIBik@@A       101452fc     interfaces:interfaces.obj
 0004:000184b8       ?g_pPhysics2ActorManager@@3PAVIPhysics2ActorManager@@A 101454b8     interfaces:interfaces.obj
 0004:000184c0       ?g_pVGuiInput@@3PAVIInput@vgui@@A 101454c0     interfaces:interfaces.obj
 0004:000184c4       ?g_pSoundSystem@@3PAVISoundSystem@@A 101454c4     interfaces:interfaces.obj
 0004:000184c8       ?g_pMaterialSystemHardwareConfig@@3PAVIMaterialSystemHardwareConfig@@A 101454c8     interfaces:interfaces.obj
 0004:000184cc       ?g_pVGuiSurface@@3PAVISurface@vgui@@A 101454cc     interfaces:interfaces.obj
 0004:000184d0       ?g_pInputStackSystem@@3PAVIInputStackSystem@@A 101454d0     interfaces:interfaces.obj
 0004:000184d4       ?g_pGameUISystemMgr@@3PAVIGameUISystemMgr@@A 101454d4     interfaces:interfaces.obj
 0004:000184d8       ?g_pWorldRendererMgr@@3PAVIWorldRendererMgr@@A 101454d8     interfaces:interfaces.obj
 0004:000184dc       ?g_pInputSystem@@3PAVIInputSystem@@A 101454dc     interfaces:interfaces.obj
 0004:000184e0       ?g_pMaterialSystem@@3PAVIMaterialSystem@@A 101454e0     interfaces:interfaces.obj
 0004:000184e4       ?materials@@3PAVIMaterialSystem@@A 101454e4     interfaces:interfaces.obj
 0004:000184e8       ?g_pSoundEmitterSystem@@3PAVISoundEmitterSystemBase@@A 101454e8     interfaces:interfaces.obj
 0004:000184ec       ?g_pVGuiRenderSurface@@3PAVIVGuiRenderSurface@@A 101454ec     interfaces:interfaces.obj
 0004:000184f0       ?mdlcache@@3PAVIMDLCache@@A 101454f0     interfaces:interfaces.obj
 0004:000184f4       ?colorcorrection@@3PAVIColorCorrectionSystem@@A 101454f4     interfaces:interfaces.obj
 0004:000184fc       ?g_VBAllocTracker@@3PAVIVBAllocTracker@@A 101454fc     interfaces:interfaces.obj
 0004:00018500       ?g_pAVI@@3PAVIAvi@@A       10145500     interfaces:interfaces.obj
 0004:00018504       ?g_pCVar@@3PAVICvar@@A     10145504     interfaces:interfaces.obj
 0004:00018508       ?g_pMaterialSystem2@@3PAVIMaterialSystem2@@A 10145508     interfaces:interfaces.obj
 0004:0001850c       ?cvar@@3PAVICvar@@A        1014550c     interfaces:interfaces.obj
 0004:00018510       ?g_pPhysicsCollision@@3PAVIPhysicsCollision@@A 10145510     interfaces:interfaces.obj
 0004:00018514       ?g_pProcessUtils@@3PAVIProcessUtils@@A 10145514     interfaces:interfaces.obj
 0004:00018518       ?g_pNetworkSystem@@3PAVINetworkSystem@@A 10145518     interfaces:interfaces.obj
 0004:0001851c       ?g_pVGuiSystem@@3PAVISystem@vgui@@A 1014551c     interfaces:interfaces.obj
 0004:00018520       ?g_pPrecacheSystem@@3PAVIPrecacheSystem@@A 10145520     interfaces:interfaces.obj
 0004:00018524       ?g_pVGui@@3PAVIVGui@vgui@@A 10145524     interfaces:interfaces.obj
 0004:00018528       ?g_pVGuiPanel@@3PAVIPanel@vgui@@A 10145528     interfaces:interfaces.obj
 0004:0001852c       ?g_pResourceSystem@@3PAVIResourceSystem@@A 1014552c     interfaces:interfaces.obj
 0004:00018530       ?g_pFullFileSystem@@3PAVIFileSystem@@A 10145530     interfaces:interfaces.obj
 0004:00018534       ?g_pResourceAccessControl@@3PAVIResourceAccessControl@@A 10145534     interfaces:interfaces.obj
 0004:00018538       ?studiorender@@3PAVIStudioRender@@A 10145538     interfaces:interfaces.obj
 0004:0001853c       ?g_pMaterialSystemDebugTextureInfo@@3PAVIDebugTextureInfo@@A 1014553c     interfaces:interfaces.obj
 0004:00018540       ?g_pEventSystem@@3PAVIEventSystem@@A 10145540     interfaces:interfaces.obj
 0004:00018544       ?g_pDmeMakefileUtils@@3PAVIDmeMakefileUtils@@A 10145544     interfaces:interfaces.obj
 0004:00018548       ?g_pRenderDevice@@3PAVIRenderDevice@@A 10145548     interfaces:interfaces.obj
 0004:0001854c       ?g_pRenderDeviceMgr@@3PAVIRenderDeviceMgr@@A 1014554c     interfaces:interfaces.obj
 0004:00018550       ?g_pMeshSystem@@3PAVIMeshSystem@@A 10145550     interfaces:interfaces.obj
 0004:00018554       ?g_pPhysics2ResourceManager@@3PAVIPhysics2ResourceManager@@A 10145554     interfaces:interfaces.obj
 0004:00018558       ?g_pPhysics2@@3PAVIPhysics2@@A 10145558     interfaces:interfaces.obj
 0004:0001855c       ?g_pVGuiSchemeManager@@3PAVISchemeManager@vgui@@A 1014555c     interfaces:interfaces.obj
 0004:00018560       ?g_pRenderHardwareConfig@@3PAVIRenderHardwareConfig@@A 10145560     interfaces:interfaces.obj
 0004:00018564       ?g_pMatchFramework@@3PAVIMatchFramework@@A 10145564     interfaces:interfaces.obj
 0004:00018568       ?mdllib@@3PAVIMdlLib@@A    10145568     interfaces:interfaces.obj
 0004:0001856c       ?g_pLocalize@@3PAVILocalize@@A 1014556c     interfaces:interfaces.obj
 0004:00018570       ?p4@@3PAVIP4@@A            10145570     interfaces:interfaces.obj
 0004:00018574       ?g_pMDLCache@@3PAVIMDLCache@@A 10145574     interfaces:interfaces.obj
 0004:00018604       __pfnReportHook            10145604     <common>
 0004:00018614       __pReportHookListW         10145614     <common>
 0004:00018618       __pReportHookList          10145618     <common>
 0004:0001861c       __debugger_hook_dummy      1014561c     <common>
 0004:00018628       ___setlc_active            10145628     <common>
 0004:00018638       ___unguarded_readlc_active 10145638     <common>
 0004:0001863c       ___use_sse2_mathfcns       1014563c     <common>
 0004:00018648       __pmatherr                 10145648     <common>
 0004:00018654       __nhandle                  10145654     <common>
 0004:000186a0       ___pioinfo                 101456a0     <common>
 0004:000187a0       ___piob                    101457a0     <common>
 0004:00018ae0       __bufin                    10145ae0     <common>
 0004:00019ae0       __nstream                  10146ae0     <common>
 0004:00019ae4       ___env_initialized         10146ae4     <common>
 0004:00019af4       ___onexitend               10146af4     <common>
 0004:00019af8       ___onexitbegin             10146af8     <common>
 0004:00019afc       ___mbctype_initialized     10146afc     <common>
 0004:00019b00       ___dyn_tls_init_callback   10146b00     <common>
 0004:00019b04       ___sse2_available          10146b04     <common>
 0004:00019b10       __acmdln                   10146b10     <common>
 0005:00000000       __IMPORT_DESCRIPTOR_tier0  10147000     tier0:tier0.dll
 0005:00000014       __IMPORT_DESCRIPTOR_KERNEL32 10147014     kernel32:KERNEL32.dll
 0005:00000028       __NULL_IMPORT_DESCRIPTOR   10147028     tier0:tier0.dll
 0005:000002b4       __imp__SetHandleCount@4    101472b4     kernel32:KERNEL32.dll
 0005:000002b8       __imp__CreateFileW@28      101472b8     kernel32:KERNEL32.dll
 0005:000002bc       __imp__SetStdHandle@8      101472bc     kernel32:KERNEL32.dll
 0005:000002c0       __imp__ReadFile@20         101472c0     kernel32:KERNEL32.dll
 0005:000002c4       __imp__FlushFileBuffers@4  101472c4     kernel32:KERNEL32.dll
 0005:000002c8       __imp__GetUserDefaultLCID@0 101472c8     kernel32:KERNEL32.dll
 0005:000002cc       __imp__EnumSystemLocalesA@8 101472cc     kernel32:KERNEL32.dll
 0005:000002d0       __imp__IsValidLocale@8     101472d0     kernel32:KERNEL32.dll
 0005:000002d4       __imp__GetLocaleInfoA@16   101472d4     kernel32:KERNEL32.dll
 0005:000002d8       __imp__GetConsoleMode@8    101472d8     kernel32:KERNEL32.dll
 0005:000002dc       __imp__MultiByteToWideChar@24 101472dc     kernel32:KERNEL32.dll
 0005:000002e0       __imp__WideCharToMultiByte@32 101472e0     kernel32:KERNEL32.dll
 0005:000002e4       __imp__GetProcAddress@8    101472e4     kernel32:KERNEL32.dll
 0005:000002e8       __imp__GetModuleHandleA@4  101472e8     kernel32:KERNEL32.dll
 0005:000002ec       __imp__LoadLibraryExA@12   101472ec     kernel32:KERNEL32.dll
 0005:000002f0       __imp__WaitForSingleObject@8 101472f0     kernel32:KERNEL32.dll
 0005:000002f4       __imp__GetCurrentProcessId@0 101472f4     kernel32:KERNEL32.dll
 0005:000002f8       __imp__CreateFileMappingA@24 101472f8     kernel32:KERNEL32.dll
 0005:000002fc       __imp__CloseHandle@4       101472fc     kernel32:KERNEL32.dll
 0005:00000300       __imp__OpenFileMappingA@12 10147300     kernel32:KERNEL32.dll
 0005:00000304       __imp__FreeLibrary@4       10147304     kernel32:KERNEL32.dll
 0005:00000308       __imp__DecodePointer@4     10147308     kernel32:KERNEL32.dll
 0005:0000030c       __imp__EncodePointer@4     1014730c     kernel32:KERNEL32.dll
 0005:00000310       __imp__GetCurrentThreadId@0 10147310     kernel32:KERNEL32.dll
 0005:00000314       __imp__GetCommandLineA@0   10147314     kernel32:KERNEL32.dll
 0005:00000318       __imp__GetLastError@0      10147318     kernel32:KERNEL32.dll
 0005:0000031c       __imp__GetFullPathNameA@16 1014731c     kernel32:KERNEL32.dll
 0005:00000320       __imp__GetDriveTypeW@4     10147320     kernel32:KERNEL32.dll
 0005:00000324       __imp__SetEnvironmentVariableA@8 10147324     kernel32:KERNEL32.dll
 0005:00000328       __imp__GetCurrentDirectoryA@8 10147328     kernel32:KERNEL32.dll
 0005:0000032c       __imp__SetCurrentDirectoryA@4 1014732c     kernel32:KERNEL32.dll
 0005:00000330       __imp__IsProcessorFeaturePresent@4 10147330     kernel32:KERNEL32.dll
 0005:00000334       __imp__IsDebuggerPresent@0 10147334     kernel32:KERNEL32.dll
 0005:00000338       __imp__RaiseException@16   10147338     kernel32:KERNEL32.dll
 0005:0000033c       __imp__lstrlenA@4          1014733c     kernel32:KERNEL32.dll
 0005:00000340       __imp__LoadLibraryW@4      10147340     kernel32:KERNEL32.dll
 0005:00000344       __imp__GetModuleFileNameW@12 10147344     kernel32:KERNEL32.dll
 0005:00000348       __imp__WriteFile@20        10147348     kernel32:KERNEL32.dll
 0005:0000034c       __imp__GetStdHandle@4      1014734c     kernel32:KERNEL32.dll
 0005:00000350       __imp__GetLocaleInfoW@16   10147350     kernel32:KERNEL32.dll
 0005:00000354       __imp__InterlockedIncrement@4 10147354     kernel32:KERNEL32.dll
 0005:00000358       __imp__InterlockedDecrement@4 10147358     kernel32:KERNEL32.dll
 0005:0000035c       __imp__GetModuleHandleW@4  1014735c     kernel32:KERNEL32.dll
 0005:00000360       __imp__ExitProcess@4       10147360     kernel32:KERNEL32.dll
 0005:00000364       __imp__HeapValidate@12     10147364     kernel32:KERNEL32.dll
 0005:00000368       __imp__IsBadReadPtr@8      10147368     kernel32:KERNEL32.dll
 0005:0000036c       __imp__EnterCriticalSection@4 1014736c     kernel32:KERNEL32.dll
 0005:00000370       __imp__LeaveCriticalSection@4 10147370     kernel32:KERNEL32.dll
 0005:00000374       __imp__TerminateProcess@8  10147374     kernel32:KERNEL32.dll
 0005:00000378       __imp__GetCurrentProcess@0 10147378     kernel32:KERNEL32.dll
 0005:0000037c       __imp__UnhandledExceptionFilter@4 1014737c     kernel32:KERNEL32.dll
 0005:00000380       __imp__SetUnhandledExceptionFilter@4 10147380     kernel32:KERNEL32.dll
 0005:00000384       __imp__TlsAlloc@0          10147384     kernel32:KERNEL32.dll
 0005:00000388       __imp__TlsGetValue@4       10147388     kernel32:KERNEL32.dll
 0005:0000038c       __imp__TlsSetValue@8       1014738c     kernel32:KERNEL32.dll
 0005:00000390       __imp__TlsFree@4           10147390     kernel32:KERNEL32.dll
 0005:00000394       __imp__SetLastError@4      10147394     kernel32:KERNEL32.dll
 0005:00000398       __imp__GetCurrentThread@0  10147398     kernel32:KERNEL32.dll
 0005:0000039c       __imp__GetConsoleCP@0      1014739c     kernel32:KERNEL32.dll
 0005:000003a0       __imp__InitializeCriticalSectionAndSpinCount@8 101473a0     kernel32:KERNEL32.dll
 0005:000003a4       __imp__GetFileType@4       101473a4     kernel32:KERNEL32.dll
 0005:000003a8       __imp__GetStartupInfoW@4   101473a8     kernel32:KERNEL32.dll
 0005:000003ac       __imp__DeleteCriticalSection@4 101473ac     kernel32:KERNEL32.dll
 0005:000003b0       __imp__GetModuleFileNameA@12 101473b0     kernel32:KERNEL32.dll
 0005:000003b4       __imp__FreeEnvironmentStringsW@4 101473b4     kernel32:KERNEL32.dll
 0005:000003b8       __imp__GetEnvironmentStringsW@0 101473b8     kernel32:KERNEL32.dll
 0005:000003bc       __imp__HeapCreate@12       101473bc     kernel32:KERNEL32.dll
 0005:000003c0       __imp__HeapDestroy@4       101473c0     kernel32:KERNEL32.dll
 0005:000003c4       __imp__QueryPerformanceCounter@4 101473c4     kernel32:KERNEL32.dll
 0005:000003c8       __imp__GetTickCount@0      101473c8     kernel32:KERNEL32.dll
 0005:000003cc       __imp__GetSystemTimeAsFileTime@4 101473cc     kernel32:KERNEL32.dll
 0005:000003d0       __imp__FatalAppExitA@8     101473d0     kernel32:KERNEL32.dll
 0005:000003d4       __imp__GetACP@0            101473d4     kernel32:KERNEL32.dll
 0005:000003d8       __imp__GetOEMCP@0          101473d8     kernel32:KERNEL32.dll
 0005:000003dc       __imp__GetCPInfo@8         101473dc     kernel32:KERNEL32.dll
 0005:000003e0       __imp__IsValidCodePage@4   101473e0     kernel32:KERNEL32.dll
 0005:000003e4       __imp__LCMapStringW@24     101473e4     kernel32:KERNEL32.dll
 0005:000003e8       __imp__GetCurrentDirectoryW@8 101473e8     kernel32:KERNEL32.dll
 0005:000003ec       __imp__SetCurrentDirectoryW@4 101473ec     kernel32:KERNEL32.dll
 0005:000003f0       __imp__RtlUnwind@16        101473f0     kernel32:KERNEL32.dll
 0005:000003f4       __imp__HeapFree@12         101473f4     kernel32:KERNEL32.dll
 0005:000003f8       __imp__HeapAlloc@12        101473f8     kernel32:KERNEL32.dll
 0005:000003fc       __imp__GetProcessHeap@0    101473fc     kernel32:KERNEL32.dll
 0005:00000400       __imp__VirtualQuery@12     10147400     kernel32:KERNEL32.dll
 0005:00000404       __imp__SetConsoleCtrlHandler@8 10147404     kernel32:KERNEL32.dll
 0005:00000408       __imp__InterlockedExchange@8 10147408     kernel32:KERNEL32.dll
 0005:0000040c       __imp__HeapReAlloc@16      1014740c     kernel32:KERNEL32.dll
 0005:00000410       __imp__HeapSize@12         10147410     kernel32:KERNEL32.dll
 0005:00000414       __imp__HeapQueryInformation@20 10147414     kernel32:KERNEL32.dll
 0005:00000418       __imp__OutputDebugStringA@4 10147418     kernel32:KERNEL32.dll
 0005:0000041c       __imp__WriteConsoleW@20    1014741c     kernel32:KERNEL32.dll
 0005:00000420       __imp__OutputDebugStringW@4 10147420     kernel32:KERNEL32.dll
 0005:00000424       __imp__GetStringTypeW@16   10147424     kernel32:KERNEL32.dll
 0005:00000428       __imp__SetFilePointer@16   10147428     kernel32:KERNEL32.dll
 0005:0000042c       \177KERNEL32_NULL_THUNK_DATA 1014742c     kernel32:KERNEL32.dll
 0005:000004a0       __imp__ThreadSleep         101474a0     tier0:tier0.dll
 0005:000004a4       __imp__GetCPUInformation   101474a4     tier0:tier0.dll
 0005:000004a8       __imp__Error               101474a8     tier0:tier0.dll
 0005:000004ac       __imp__g_pMemAlloc         101474ac     tier0:tier0.dll
 0005:000004b0       __imp__CommandLine         101474b0     tier0:tier0.dll
 0005:000004b4       __imp__LoggingSystem_LogAssert 101474b4     tier0:tier0.dll
 0005:000004b8       __imp__ShouldUseNewAssertDialog 101474b8     tier0:tier0.dll
 0005:000004bc       __imp__DoNewAssertDialog   101474bc     tier0:tier0.dll
 0005:000004c0       __imp___ExitOnFatalAssert  101474c0     tier0:tier0.dll
 0005:000004c4       __imp__Warning             101474c4     tier0:tier0.dll
 0005:000004c8       __imp_?ConMsg@@YAXPBDZZ    101474c8     tier0:tier0.dll
 0005:000004cc       __imp___AssertValidStringPtr 101474cc     tier0:tier0.dll
 0005:000004d0       __imp___AssertValidWritePtr 101474d0     tier0:tier0.dll
 0005:000004d4       __imp___AssertValidReadPtr 101474d4     tier0:tier0.dll
 0005:000004d8       __imp__Plat_IsInDebugSession 101474d8     tier0:tier0.dll
 0005:000004dc       __imp__ReleaseThreadHandle 101474dc     tier0:tier0.dll
 0005:000004e0       __imp__CreateSimpleThread  101474e0     tier0:tier0.dll
 0005:000004e4       __imp__StackToolsNotify_LoadedLibrary 101474e4     tier0:tier0.dll
 0005:000004e8       __imp__GetThreadedLoadLibraryFunc 101474e8     tier0:tier0.dll
 0005:000004ec       __imp_?DevWarning@@YAXPBDZZ 101474ec     tier0:tier0.dll
 0005:000004f0       \177tier0_NULL_THUNK_DATA  101474f0     tier0:tier0.dll

 entry point at        0002:00000fc3

